 CTM_PID_withoutG_cgxe

 Timestamp is 65895f5e (Mon Dec 25 19:54:22 2023)

 Preferred load address is 0000000180000000

 Start         Length     Name                   Class
 0001:00000000 000498f0H .text$mn                CODE
 0001:000498f0 00000040H .text$mn$00             CODE
 0001:00049930 0000073eH .text$x                 CODE
 0002:00000000 000004a0H .idata$5                DATA
 0002:000004a0 00000038H .00cfg                  DATA
 0002:000004d8 00000008H .CRT$XCA                DATA
 0002:000004e0 00000008H .CRT$XCZ                DATA
 0002:000004e8 00000008H .CRT$XIA                DATA
 0002:000004f0 00000008H .CRT$XIZ                DATA
 0002:000004f8 00000008H .CRT$XPA                DATA
 0002:00000500 00000008H .CRT$XPZ                DATA
 0002:00000508 00000008H .CRT$XTA                DATA
 0002:00000510 00000010H .CRT$XTZ                DATA
 0002:00000518 00000000H .gehcont$y              DATA
 0002:00000518 00000000H .gfids$y                DATA
 0002:00000520 00000660H .rdata                  DATA
 0002:00000b80 00000080H .rdata$CastGuardVftablesA DATA
 0002:00000c00 00000080H .rdata$CastGuardVftablesC DATA
 0002:00000c80 0000026cH .rdata$r                DATA
 0002:00000eec 000003ecH .rdata$voltmd           DATA
 0002:000012d8 000002c8H .rdata$zzzdbg           DATA
 0002:000015a0 00000008H .rtc$IAA                DATA
 0002:000015a8 00000008H .rtc$IZZ                DATA
 0002:000015b0 00000008H .rtc$TAA                DATA
 0002:000015b8 00000008H .rtc$TZZ                DATA
 0002:000015c0 000023a8H .xdata                  DATA
 0002:00003968 000000f8H .xdata$x                DATA
 0002:00003a60 000002c4H .edata                  DATA
 0002:00003d24 00000140H .idata$2                DATA
 0002:00003e64 00000014H .idata$3                DATA
 0002:00003e78 000004a0H .idata$4                DATA
 0002:00004318 00000ea6H .idata$6                DATA
 0003:00000000 00011148H .data                   DATA
 0003:00011148 00000080H .data$r                 DATA
 0003:000111c8 00000058H .data$rs                DATA
 0003:00011220 000006a0H .bss                    DATA
 0004:00000000 000025a4H .pdata                  DATA

  Address         Publics by Value              Rva+Base               Lib:Object

 0000:00000000       __arm64x_native_entrypoint 0000000000000000     <absolute>
 0000:00000000       __hybrid_auxiliary_iat_copy 0000000000000000     <absolute>
 0000:00000000       __guard_iat_table          0000000000000000     <absolute>
 0000:00000000       __guard_longjmp_count      0000000000000000     <absolute>
 0000:00000000       __guard_fids_count         0000000000000000     <absolute>
 0000:00000000       __arm64x_redirection_metadata 0000000000000000     <absolute>
 0000:00000000       __arm64x_extra_rfe_table   0000000000000000     <absolute>
 0000:00000000       __guard_iat_count          0000000000000000     <absolute>
 0000:00000000       __arm64x_redirection_metadata_count 0000000000000000     <absolute>
 0000:00000000       ___safe_se_handler_table   0000000000000000     <absolute>
 0000:00000000       __dynamic_value_reloc_table 0000000000000000     <absolute>
 0000:00000000       __enclave_config           0000000000000000     <absolute>
 0000:00000000       __hybrid_code_map          0000000000000000     <absolute>
 0000:00000000       __x64_code_ranges_to_entry_points_count 0000000000000000     <absolute>
 0000:00000000       __guard_longjmp_table      0000000000000000     <absolute>
 0000:00000000       __AbsoluteZero             0000000000000000     <absolute>
 0000:00000000       __x64_code_ranges_to_entry_points 0000000000000000     <absolute>
 0000:00000000       __arm64x_extra_rfe_table_size 0000000000000000     <absolute>
 0000:00000000       ___safe_se_handler_count   0000000000000000     <absolute>
 0000:00000000       __guard_eh_cont_count      0000000000000000     <absolute>
 0000:00000000       __guard_fids_table         0000000000000000     <absolute>
 0000:00000000       __guard_eh_cont_table      0000000000000000     <absolute>
 0000:00000000       __hybrid_auxiliary_iat     0000000000000000     <absolute>
 0000:00000000       __hybrid_code_map_count    0000000000000000     <absolute>
 0000:00000000       __guard_check_icall_a64n_fptr 0000000000000000     <absolute>
 0000:00000100       __guard_flags              0000000000000100     <absolute>
 0000:00000000       __ImageBase                0000000180000000     <linker-defined>
 0001:00000000       mexfilerequiredapiversion  0000000180001000 f   c_mexapi_version.obj
 0001:00000030       cgxe_CTM_PID_withoutG_method_dispatcher 0000000180001030 f   CTM_PID_withoutG_cgxe.obj
 0001:00000140       method_dispatcher_FAU8KyrDQYUp9atreb3T4G 0000000180001140 f   m_FAU8KyrDQYUp9atreb3T4G.obj
 0001:00013310       cgxe_FAU8KyrDQYUp9atreb3T4G_BuildInfoUpdate 0000000180014310 f   m_FAU8KyrDQYUp9atreb3T4G.obj
 0001:00013680       cgxe_FAU8KyrDQYUp9atreb3T4G_fallback_info 0000000180014680 f   m_FAU8KyrDQYUp9atreb3T4G.obj
 0001:00013720       method_dispatcher_xSE9GNLJOSGMLwcrwI4qWD 0000000180014720 f   m_xSE9GNLJOSGMLwcrwI4qWD.obj
 0001:00029950       cgxe_xSE9GNLJOSGMLwcrwI4qWD_BuildInfoUpdate 000000018002a950 f   m_xSE9GNLJOSGMLwcrwI4qWD.obj
 0001:00029cc0       cgxe_xSE9GNLJOSGMLwcrwI4qWD_fallback_info 000000018002acc0 f   m_xSE9GNLJOSGMLwcrwI4qWD.obj
 0001:00029d60       mexFunction                000000018002ad60 f   CTM_PID_withoutG_cgxe_registry.obj
 0001:0002bbd0       _ssSetInputPortDirectFeedThroughFcn 000000018002cbd0 f   CTM_PID_withoutG_cgxe_registry.obj
 0001:0002bd40       _ssSetRWorkValueFcn        000000018002cd40 f   CTM_PID_withoutG_cgxe_registry.obj
 0001:0002bdc0       _ssGetRWorkValueFcn        000000018002cdc0 f   CTM_PID_withoutG_cgxe_registry.obj
 0001:0002be30       _ssSetIWorkValueFcn        000000018002ce30 f   CTM_PID_withoutG_cgxe_registry.obj
 0001:0002beb0       _ssGetIWorkValueFcn        000000018002ceb0 f   CTM_PID_withoutG_cgxe_registry.obj
 0001:0002bf20       _ssSetPWorkValueFcn        000000018002cf20 f   CTM_PID_withoutG_cgxe_registry.obj
 0001:0002bfa0       _ssGetPWorkValueFcn        000000018002cfa0 f   CTM_PID_withoutG_cgxe_registry.obj
 0001:0002c010       _ssGetInputPortSignalFcn   000000018002d010 f   CTM_PID_withoutG_cgxe_registry.obj
 0001:0002c3a0       _ssGetInputPortBufferDstPortFcn 000000018002d3a0 f   CTM_PID_withoutG_cgxe_registry.obj
 0001:0002c420       _ssGetInputPortSignalPtrsFcn 000000018002d420 f   CTM_PID_withoutG_cgxe_registry.obj
 0001:0002c7b0       ssGetParameterTuningCompliance 000000018002d7b0 f   CTM_PID_withoutG_cgxe_registry.obj
 0001:0002c820       _ssReadInputStringFcn      000000018002d820 f   CTM_PID_withoutG_cgxe_registry.obj
 0001:0002c890       ssGetDTypeIdFromMxArray    000000018002d890 f   CTM_PID_withoutG_cgxe_registry.obj
 0001:0002c9b0       ssWriteRTWMx2dMatParam     000000018002d9b0 f   CTM_PID_withoutG_cgxe_registry.obj
 0001:0002ca40       ssWriteRTWMxVectParam      000000018002da40 f   CTM_PID_withoutG_cgxe_registry.obj
 0001:0002cac0       ssWriteRTWParameters       000000018002dac0 f   CTM_PID_withoutG_cgxe_registry.obj
 0001:0002d080       ssWriteRTWParamSettings    000000018002e080 f   CTM_PID_withoutG_cgxe_registry.obj
 0001:0002d770       ssWriteRTWStr              000000018002e770 f   CTM_PID_withoutG_cgxe_registry.obj
 0001:0002d7d0       ssWriteRTWWorkVect         000000018002e7d0 f   CTM_PID_withoutG_cgxe_registry.obj
 0001:0002dd30       ssWarning                  000000018002ed30 f   CTM_PID_withoutG_cgxe_registry.obj
 0001:0002de20       ssGetRootSS                000000018002ee20 f   CTM_PID_withoutG_cgxe_registry.obj
 0001:0002dee0       ssGetParentSS              000000018002eee0 f   CTM_PID_withoutG_cgxe_registry.obj
 0001:0002dfa0       ssWriteRTWNameValuePair    000000018002efa0 f   CTM_PID_withoutG_cgxe_registry.obj
 0001:0002e4a0       _ssSetInputPortMatrixDimensions 000000018002f4a0 f   CTM_PID_withoutG_cgxe_registry.obj
 0001:0002e5f0       _ssSetOutputPortMatrixDimensions 000000018002f5f0 f   CTM_PID_withoutG_cgxe_registry.obj
 0001:0002e740       _ssSetInputPortVectorDimension 000000018002f740 f   CTM_PID_withoutG_cgxe_registry.obj
 0001:0002e7f0       _ssSetOutputPortVectorDimension 000000018002f7f0 f   CTM_PID_withoutG_cgxe_registry.obj
 0001:0002e8a0       ssIsRunTimeParamTunable    000000018002f8a0 f   CTM_PID_withoutG_cgxe_registry.obj
 0001:0002e910       ssGetSFuncBlockHandle      000000018002f910 f   CTM_PID_withoutG_cgxe_registry.obj
 0001:0002e980       _ssGetCallSystemNumFcnCallDestinations 000000018002f980 f   CTM_PID_withoutG_cgxe_registry.obj
 0001:0002e9f0       _ssGetCurrentInputPortWidth 000000018002f9f0 f   CTM_PID_withoutG_cgxe_registry.obj
 0001:0002eb30       _ssGetCurrentOutputPortWidth 000000018002fb30 f   CTM_PID_withoutG_cgxe_registry.obj
 0001:0002ec70       ssGetIsZeroCrossControlDisabled 000000018002fc70 f   CTM_PID_withoutG_cgxe_registry.obj
 0001:0002ece0       ssSetIsInputPortUsedForContZcSignal 000000018002fce0 f   CTM_PID_withoutG_cgxe_registry.obj
 0001:0002ed50       ssSetZcSignalIsZcElementDisc 000000018002fd50 f   CTM_PID_withoutG_cgxe_registry.obj
 0001:0002ee00       ssSetZcSignalName          000000018002fe00 f   CTM_PID_withoutG_cgxe_registry.obj
 0001:0002ee70       ssSetZcSignalWidth         000000018002fe70 f   CTM_PID_withoutG_cgxe_registry.obj
 0001:0002eee0       ssSetZcSignalZcEventType   000000018002fee0 f   CTM_PID_withoutG_cgxe_registry.obj
 0001:0002ef50       ssSetZcSignalType          000000018002ff50 f   CTM_PID_withoutG_cgxe_registry.obj
 0001:0002efc0       ssSetZcSignalZcTol         000000018002ffc0 f   CTM_PID_withoutG_cgxe_registry.obj
 0001:0002f030       ssSetZcSignalNeedsEventNotification 0000000180030030 f   CTM_PID_withoutG_cgxe_registry.obj
 0001:0002f0a0       ssCreateAndAddZcSignalInfo 00000001800300a0 f   CTM_PID_withoutG_cgxe_registry.obj
 0001:0002f110       ssCloneAndAddZcSignalInfo  0000000180030110 f   CTM_PID_withoutG_cgxe_registry.obj
 0001:0002f180       ssGetNumZcSignals          0000000180030180 f   CTM_PID_withoutG_cgxe_registry.obj
 0001:0002f1f0       ssGetZcSignalVector        00000001800301f0 f   CTM_PID_withoutG_cgxe_registry.obj
 0001:0002f260       ssGetZcSignalName          0000000180030260 f   CTM_PID_withoutG_cgxe_registry.obj
 0001:0002f2d0       ssGetZcSignalWidth         00000001800302d0 f   CTM_PID_withoutG_cgxe_registry.obj
 0001:0002f340       ssGetZcSignalZcEventType   0000000180030340 f   CTM_PID_withoutG_cgxe_registry.obj
 0001:0002f3b0       ssGetZcSignalZcEvents      00000001800303b0 f   CTM_PID_withoutG_cgxe_registry.obj
 0001:0002f420       ssGetZcSignalType          0000000180030420 f   CTM_PID_withoutG_cgxe_registry.obj
 0001:0002f490       ssGetZcSignalZcTol         0000000180030490 f   CTM_PID_withoutG_cgxe_registry.obj
 0001:0002f510       ssGetZcSignalNeedsEventNotification 0000000180030510 f   CTM_PID_withoutG_cgxe_registry.obj
 0001:0002f580       ssGetZcSignalIsZcElementDisc 0000000180030580 f   CTM_PID_withoutG_cgxe_registry.obj
 0001:0002f620       ssGetIsInputPortElementContinuous 0000000180030620 f   CTM_PID_withoutG_cgxe_registry.obj
 0001:0002f6c0       _ssGetAbsTol               00000001800306c0 f   CTM_PID_withoutG_cgxe_registry.obj
 0001:0002f730       _ssSetStateAbsTol          0000000180030730 f   CTM_PID_withoutG_cgxe_registry.obj
 0001:0002f810       _ssSetInputPortReusableFcn 0000000180030810 f   CTM_PID_withoutG_cgxe_registry.obj
 0001:0002f910       _ssSetOutputPortReusableFcn 0000000180030910 f   CTM_PID_withoutG_cgxe_registry.obj
 0001:0002fa10       _ssSetSymbolicDimsSupport  0000000180030a10 f   CTM_PID_withoutG_cgxe_registry.obj
 0001:0002fa80       _ssRegisterSymbolicDimsExpr 0000000180030a80 f   CTM_PID_withoutG_cgxe_registry.obj
 0001:0002fb00       _ssRegisterSymbolicDimsMATLABExpr 0000000180030b00 f   CTM_PID_withoutG_cgxe_registry.obj
 0001:0002fb90       _ssRegisterSymbolicDims    0000000180030b90 f   CTM_PID_withoutG_cgxe_registry.obj
 0001:0002fc30       _ssRegisterSymbolicDimsString 0000000180030c30 f   CTM_PID_withoutG_cgxe_registry.obj
 0001:0002fcb0       _ssRegisterSymbolicDimsIntValue 0000000180030cb0 f   CTM_PID_withoutG_cgxe_registry.obj
 0001:0002fd20       _ssRegisterSymbolicEqualRelation 0000000180030d20 f   CTM_PID_withoutG_cgxe_registry.obj
 0001:0002fd90       _ssRegisterSymbolicEqualValue 0000000180030d90 f   CTM_PID_withoutG_cgxe_registry.obj
 0001:0002fe00       _ssAmendLeadingSymbolicDims 0000000180030e00 f   CTM_PID_withoutG_cgxe_registry.obj
 0001:0002fe80       _ssAmendTrailingSymbolicDims 0000000180030e80 f   CTM_PID_withoutG_cgxe_registry.obj
 0001:0002ff00       _ssRegisterSymbolicDimsPlus 0000000180030f00 f   CTM_PID_withoutG_cgxe_registry.obj
 0001:0002ff80       _ssRegisterSymbolicDimsMinus 0000000180030f80 f   CTM_PID_withoutG_cgxe_registry.obj
 0001:00030000       _ssRegisterSymbolicDimsMultiply 0000000180031000 f   CTM_PID_withoutG_cgxe_registry.obj
 0001:00030080       _ssRegisterSymbolicDimsDivide 0000000180031080 f   CTM_PID_withoutG_cgxe_registry.obj
 0001:00030100       _ssGetNumSymbolicDims      0000000180031100 f   CTM_PID_withoutG_cgxe_registry.obj
 0001:00030170       _ssGetSymbolicDim          0000000180031170 f   CTM_PID_withoutG_cgxe_registry.obj
 0001:000301f0       _ssSetInputPortSymbolicDimsId 00000001800311f0 f   CTM_PID_withoutG_cgxe_registry.obj
 0001:00030260       _ssGetCompInputPortSymbolicDimsId 0000000180031260 f   CTM_PID_withoutG_cgxe_registry.obj
 0001:000302d0       _ssSetCompInputPortSymbolicDimsId 00000001800312d0 f   CTM_PID_withoutG_cgxe_registry.obj
 0001:00030340       _ssSetOutputPortSymbolicDimsId 0000000180031340 f   CTM_PID_withoutG_cgxe_registry.obj
 0001:000303b0       _ssGetCompOutputPortSymbolicDimsId 00000001800313b0 f   CTM_PID_withoutG_cgxe_registry.obj
 0001:00030420       _ssSetCompOutputPortSymbolicDimsId 0000000180031420 f   CTM_PID_withoutG_cgxe_registry.obj
 0001:00030490       _ssGetDWorkSymbolicDimsId  0000000180031490 f   CTM_PID_withoutG_cgxe_registry.obj
 0001:00030500       _ssSetDWorkSymbolicDimsId  0000000180031500 f   CTM_PID_withoutG_cgxe_registry.obj
 0001:00030570       _ssGetCompDWorkSymbolicDimsId 0000000180031570 f   CTM_PID_withoutG_cgxe_registry.obj
 0001:000305e0       _ssSetCompDWorkSymbolicDimsId 00000001800315e0 f   CTM_PID_withoutG_cgxe_registry.obj
 0001:00030650       _ssCreateSLCGStringBuffer  0000000180031650 f   CTM_PID_withoutG_cgxe_registry.obj
 0001:000306c0       _ssAddToSLCGStringBuffer   00000001800316c0 f   CTM_PID_withoutG_cgxe_registry.obj
 0001:00030730       _ssGetPointerContainedData 0000000180031730 f   CTM_PID_withoutG_cgxe_registry.obj
 0001:000307c0       _ssGetPointerContainedDataWidth 00000001800317c0 f   CTM_PID_withoutG_cgxe_registry.obj
 0001:00030850       _ssRegisterDynamicArrayDataTypeFcn 0000000180031850 f   CTM_PID_withoutG_cgxe_registry.obj
 0001:000308f0       _ssGetDynamicArrayContainedDataCurrentWidthFcn 00000001800318f0 f   CTM_PID_withoutG_cgxe_registry.obj
 0001:000309c0       _ssGetDynamicArrayContainedDataFcn 00000001800319c0 f   CTM_PID_withoutG_cgxe_registry.obj
 0001:00030a90       _ssGetInputPortDynamicArrayDataFcn 0000000180031a90 f   CTM_PID_withoutG_cgxe_registry.obj
 0001:00030b50       _ssGetOutputPortDynamicArrayDataFcn 0000000180031b50 f   CTM_PID_withoutG_cgxe_registry.obj
 0001:00030c10       _ssGetInputPortDynamicArrayContainedDataFcn 0000000180031c10 f   CTM_PID_withoutG_cgxe_registry.obj
 0001:00030cd0       _ssGetOutputPortDynamicArrayContainedDataFcn 0000000180031cd0 f   CTM_PID_withoutG_cgxe_registry.obj
 0001:00030d90       _ssGetDynamicArrayDWorkContainedDataFcn 0000000180031d90 f   CTM_PID_withoutG_cgxe_registry.obj
 0001:00032970       __local_stdio_printf_options 0000000180033970 f i CTM_PID_withoutG_cgxe_registry.obj
 0001:00032980       _vsnprintf_l               0000000180033980 f i CTM_PID_withoutG_cgxe_registry.obj
 0001:00032a00       _vsprintf_l                0000000180033a00 f i CTM_PID_withoutG_cgxe_registry.obj
 0001:00032a50       sprintf                    0000000180033a50 f i CTM_PID_withoutG_cgxe_registry.obj
 0001:00033440       ccdFirstDirDefault         0000000180034440 f   ccd_ccd.obj
 0001:00033480       __ccdSupport               0000000180034480 f   ccd_ccd.obj
 0001:00033560       ccdGJKIntersect            0000000180034560 f   ccd_ccd.obj
 0001:000335f0       __ccdGJK                   00000001800345f0 f   ccd_ccd.obj
 0001:000337b0       ccdGJKSeparate             00000001800347b0 f   ccd_ccd.obj
 0001:00033850       ccdGJKPenetration          0000000180034850 f   ccd_ccd.obj
 0001:00037d60       ccdMPRIntersect            0000000180038d60 f   ccd_mpr.obj
 0001:00037e30       ccdMPRPenetration          0000000180038e30 f   ccd_mpr.obj
 0001:00039930       ccdPtInit                  000000018003a930 f   ccd_polytope.obj
 0001:000399a0       ccdPtDestroy               000000018003a9a0 f   ccd_polytope.obj
 0001:00039af0       ccdPtAddVertex             000000018003aaf0 f   ccd_polytope.obj
 0001:00039bc0       ccdPtAddEdge               000000018003abc0 f   ccd_polytope.obj
 0001:00039d80       ccdPtAddFace               000000018003ad80 f   ccd_polytope.obj
 0001:0003a260       ccdPtRecomputeDistances    000000018003b260 f   ccd_polytope.obj
 0001:0003a550       ccdPtNearest               000000018003b550 f   ccd_polytope.obj
 0001:0003a590       ccdPtDumpSVT               000000018003b590 f   ccd_polytope.obj
 0001:0003a5f0       ccdPtDumpSVT2              000000018003b5f0 f   ccd_polytope.obj
 0001:0003aae0       _vfprintf_l                000000018003bae0 f i ccd_polytope.obj
 0001:0003ab30       fprintf                    000000018003bb30 f i ccd_polytope.obj
 0001:0003b070       ccdVec3PointSegmentDist2   000000018003c070 f   ccd_vec3.obj
 0001:0003b0b0       ccdVec3PointTriDist2       000000018003c0b0 f   ccd_vec3.obj
 0001:0003bfe0       ??RCollisionGeometryDeleter@shared_robotics@@QEAAXPEAVCollisionGeometry@1@@Z 000000018003cfe0 f   collisioncodegen_CollisionGeometry.obj
 0001:0003c030       ??1CollisionGeometry@shared_robotics@@UEAA@XZ 000000018003d030 f   collisioncodegen_CollisionGeometry.obj
 0001:0003c090       ?support@CollisionGeometry@shared_robotics@@QEBAXPEBU_ccd_vec3_t@@PEAU3@@Z 000000018003d090 f   collisioncodegen_CollisionGeometry.obj
 0001:0003cbe0       ?constructConnectionList@CollisionGeometry@shared_robotics@@IEAAXXZ 000000018003dbe0 f   collisioncodegen_CollisionGeometry.obj
 0001:0003d160       ??$?0$$V@?$_Compressed_pair@V?$allocator@N@std@@V?$_Vector_val@U?$_Simple_types@N@std@@@2@$00@std@@QEAA@U_Zero_then_variadic_args_t@1@@Z 000000018003e160 f i collisioncodegen_CollisionGeometry.obj
 0001:0003d190       ??$?0$$V@?$_Compressed_pair@V?$allocator@_K@std@@V?$_Vector_val@U?$_Simple_types@_K@std@@@2@$00@std@@QEAA@U_Zero_then_variadic_args_t@1@@Z 000000018003e190 f i collisioncodegen_CollisionGeometry.obj
 0001:0003d1c0       ??$?0AEAPEA_KAEAPEA_K$0A@@?$pair@PEA_KPEA_K@std@@QEAA@AEAPEA_K0@Z 000000018003e1c0 f i collisioncodegen_CollisionGeometry.obj
 0001:0003d210       ??$?0V?$allocator@_K@std@@PEA_KPEA_KPEA_K@?$_Compressed_pair@V?$allocator@_K@std@@V?$_Vector_val@U?$_Simple_types@_K@std@@@2@$00@std@@QEAA@U_One_then_variadic_args_t@1@$$QEAV?$allocator@_K@1@$$QEAPEA_K22@Z 000000018003e210 f i collisioncodegen_CollisionGeometry.obj
 0001:0003d280       ??$?6U?$char_traits@D@std@@@std@@YAAEAV?$basic_ostream@DU?$char_traits@D@std@@@0@AEAV10@PEBD@Z 000000018003e280 f i collisioncodegen_CollisionGeometry.obj
 0001:0003d630       ??$?RAEANAEAN@?$less@X@std@@QEBA_NAEAN0@Z 000000018003e630 f i collisioncodegen_CollisionGeometry.obj
 0001:0003d670       ??$?RAEA_KAEA_K@?$equal_to@X@std@@QEBA_NAEA_K0@Z 000000018003e670 f i collisioncodegen_CollisionGeometry.obj
 0001:0003d6b0       ??$?RAEA_KAEA_K@?$less@X@std@@QEBA_NAEA_K0@Z 000000018003e6b0 f i collisioncodegen_CollisionGeometry.obj
 0001:0003d6f0       ??$_Adl_verify_range@V?$_Vector_iterator@V?$_Vector_val@U?$_Simple_types@N@std@@@std@@@std@@V12@@std@@YAXAEBV?$_Vector_iterator@V?$_Vector_val@U?$_Simple_types@N@std@@@std@@@0@0@Z 000000018003e6f0 f i collisioncodegen_CollisionGeometry.obj
 0001:0003d700       ??$_Adl_verify_range@V?$_Vector_iterator@V?$_Vector_val@U?$_Simple_types@_K@std@@@std@@@std@@V12@@std@@YAXAEBV?$_Vector_iterator@V?$_Vector_val@U?$_Simple_types@_K@std@@@std@@@0@0@Z 000000018003e700 f i collisioncodegen_CollisionGeometry.obj
 0001:0003d710       ??$_Allocate@$0BA@U_Default_allocate_traits@std@@$0A@@std@@YAPEAX_K@Z 000000018003e710 f i collisioncodegen_CollisionGeometry.obj
 0001:0003d750       ??$_Allocate_manually_vector_aligned@U_Default_allocate_traits@std@@@std@@YAPEAX_K@Z 000000018003e750 f i collisioncodegen_CollisionGeometry.obj
 0001:0003d7e0       ??$_Copy_backward_memmove@PEA_KPEA_K@std@@YAPEA_KPEA_K00@Z 000000018003e7e0 f i collisioncodegen_CollisionGeometry.obj
 0001:0003d890       ??$_Copy_memmove@PEANPEAN@std@@YAPEANPEAN00@Z 000000018003e890 f i collisioncodegen_CollisionGeometry.obj
 0001:0003d930       ??$_Copy_memmove@PEA_KPEA_K@std@@YAPEA_KPEA_K00@Z 000000018003e930 f i collisioncodegen_CollisionGeometry.obj
 0001:0003d9d0       ??$_Deallocate@$0BA@$0A@@std@@YAXPEAX_K@Z 000000018003e9d0 f i collisioncodegen_CollisionGeometry.obj
 0001:0003da10       ??$_Destroy_range@V?$allocator@N@std@@@std@@YAXPEANQEANAEAV?$allocator@N@0@@Z 000000018003ea10 f i collisioncodegen_CollisionGeometry.obj
 0001:0003da20       ??$_Destroy_range@V?$allocator@U_ccd_vec3_t@@@std@@@std@@YAXPEAU_ccd_vec3_t@@QEAU1@AEAV?$allocator@U_ccd_vec3_t@@@0@@Z 000000018003ea20 f i collisioncodegen_CollisionGeometry.obj
 0001:0003da30       ??$_Destroy_range@V?$allocator@U_idx_vec3_t@shared_robotics@@@std@@@std@@YAXPEAU_idx_vec3_t@shared_robotics@@QEAU12@AEAV?$allocator@U_idx_vec3_t@shared_robotics@@@0@@Z 000000018003ea30 f i collisioncodegen_CollisionGeometry.obj
 0001:0003da40       ??$_Destroy_range@V?$allocator@V?$vector@_KV?$allocator@_K@std@@@std@@@std@@@std@@YAXPEAV?$vector@_KV?$allocator@_K@std@@@0@QEAV10@AEAV?$allocator@V?$vector@_KV?$allocator@_K@std@@@std@@@0@@Z 000000018003ea40 f i collisioncodegen_CollisionGeometry.obj
 0001:0003da90       ??$_Destroy_range@V?$allocator@_K@std@@@std@@YAXPEA_KQEA_KAEAV?$allocator@_K@0@@Z 000000018003ea90 f i collisioncodegen_CollisionGeometry.obj
 0001:0003daa0       ??$_Emplace_back@$$V@?$_Uninitialized_backout_al@V?$allocator@V?$vector@_KV?$allocator@_K@std@@@std@@@std@@@std@@QEAAXXZ 000000018003eaa0 f i collisioncodegen_CollisionGeometry.obj
 0001:0003daf0       ??$_Emplace_back@$$V@?$_Uninitialized_backout_al@V?$allocator@_K@std@@@std@@QEAAXXZ 000000018003eaf0 f i collisioncodegen_CollisionGeometry.obj
 0001:0003db40       ??$_Emplace_back@N@?$_Uninitialized_backout_al@V?$allocator@N@std@@@std@@QEAAX$$QEAN@Z 000000018003eb40 f i collisioncodegen_CollisionGeometry.obj
 0001:0003dba0       ??$_Emplace_back@V?$vector@_KV?$allocator@_K@std@@@std@@@?$_Uninitialized_backout_al@V?$allocator@V?$vector@_KV?$allocator@_K@std@@@std@@@std@@@std@@QEAAX$$QEAV?$vector@_KV?$allocator@_K@std@@@1@@Z 000000018003eba0 f i collisioncodegen_CollisionGeometry.obj
 0001:0003dc00       ??$_Emplace_back@_K@?$_Uninitialized_backout_al@V?$allocator@_K@std@@@std@@QEAAX$$QEA_K@Z 000000018003ec00 f i collisioncodegen_CollisionGeometry.obj
 0001:0003dc60       ??$_Emplace_back_with_unused_capacity@AEB_K@?$vector@_KV?$allocator@_K@std@@@std@@AEAA?A_TAEB_K@Z 000000018003ec60 f i collisioncodegen_CollisionGeometry.obj
 0001:0003dd10       ??$_Emplace_back_with_unused_capacity@N@?$vector@NV?$allocator@N@std@@@std@@AEAA?A_T$$QEAN@Z 000000018003ed10 f i collisioncodegen_CollisionGeometry.obj
 0001:0003ddc0       ??$_Emplace_reallocate@AEB_K@?$vector@_KV?$allocator@_K@std@@@std@@QEAAPEA_KQEA_KAEB_K@Z 000000018003edc0 f i collisioncodegen_CollisionGeometry.obj
 0001:0003dfd0       ??$_Emplace_reallocate@N@?$vector@NV?$allocator@N@std@@@std@@QEAAPEANQEAN$$QEAN@Z 000000018003efd0 f i collisioncodegen_CollisionGeometry.obj
 0001:0003e1e0       ??$_Get_size_of_n@$07@std@@YA_K_K@Z 000000018003f1e0 f i collisioncodegen_CollisionGeometry.obj
 0001:0003e230       ??$_Get_size_of_n@$0BI@@std@@YA_K_K@Z 000000018003f230 f i collisioncodegen_CollisionGeometry.obj
 0001:0003e270       ??$_Get_unwrapped@AEAV?$_Vector_iterator@V?$_Vector_val@U?$_Simple_types@N@std@@@std@@@std@@@std@@YA?A_TAEAV?$_Vector_iterator@V?$_Vector_val@U?$_Simple_types@N@std@@@std@@@0@@Z 000000018003f270 f i collisioncodegen_CollisionGeometry.obj
 0001:0003e290       ??$_Get_unwrapped@AEAV?$_Vector_iterator@V?$_Vector_val@U?$_Simple_types@_K@std@@@std@@@std@@@std@@YA?A_TAEAV?$_Vector_iterator@V?$_Vector_val@U?$_Simple_types@_K@std@@@std@@@0@@Z 000000018003f290 f i collisioncodegen_CollisionGeometry.obj
 0001:0003e2b0       ??$_Get_unwrapped@AEBQEAN@std@@YA?A_TAEBQEAN@Z 000000018003f2b0 f i collisioncodegen_CollisionGeometry.obj
 0001:0003e2c0       ??$_Get_unwrapped@AEBQEAV?$vector@_KV?$allocator@_K@std@@@std@@@std@@YA?A_TAEBQEAV?$vector@_KV?$allocator@_K@std@@@0@@Z 000000018003f2c0 f i collisioncodegen_CollisionGeometry.obj
 0001:0003e2d0       ??$_Get_unwrapped@AEBQEA_K@std@@YA?A_TAEBQEA_K@Z 000000018003f2d0 f i collisioncodegen_CollisionGeometry.obj
 0001:0003e2e0       ??$_Get_unwrapped@AEBV?$_Vector_iterator@V?$_Vector_val@U?$_Simple_types@_K@std@@@std@@@std@@@std@@YA?A_TAEBV?$_Vector_iterator@V?$_Vector_val@U?$_Simple_types@_K@std@@@std@@@0@@Z 000000018003f2e0 f i collisioncodegen_CollisionGeometry.obj
 0001:0003e300       ??$_Guess_median_unchecked@PEA_KU?$less@X@std@@@std@@YAXPEA_K00U?$less@X@0@@Z 000000018003f300 f i collisioncodegen_CollisionGeometry.obj
 0001:0003e460       ??$_Insertion_sort_unchecked@PEA_KU?$less@X@std@@@std@@YAPEA_KQEA_K0U?$less@X@0@@Z 000000018003f460 f i collisioncodegen_CollisionGeometry.obj
 0001:0003e5a0       ??$_Make_heap_unchecked@PEA_KU?$less@X@std@@@std@@YAXPEA_K0U?$less@X@0@@Z 000000018003f5a0 f i collisioncodegen_CollisionGeometry.obj
 0001:0003e640       ??$_Max_element_unchecked@PEANU?$less@X@std@@@std@@YAPEANPEAN0U?$less@X@0@@Z 000000018003f640 f i collisioncodegen_CollisionGeometry.obj
 0001:0003e6c0       ??$_Med3_unchecked@PEA_KU?$less@X@std@@@std@@YAXPEA_K00U?$less@X@0@@Z 000000018003f6c0 f i collisioncodegen_CollisionGeometry.obj
 0001:0003e760       ??$_Move_backward_unchecked@PEA_KPEA_K@std@@YAPEA_KPEA_K00@Z 000000018003f760 f i collisioncodegen_CollisionGeometry.obj
 0001:0003e7e0       ??$_Move_unchecked@PEA_KPEA_K@std@@YAPEA_KPEA_K00@Z 000000018003f7e0 f i collisioncodegen_CollisionGeometry.obj
 0001:0003e860       ??$_Next_iter@PEA_K@std@@YAPEA_KPEA_K@Z 000000018003f860 f i collisioncodegen_CollisionGeometry.obj
 0001:0003e880       ??$_Partition_by_median_guess_unchecked@PEA_KU?$less@X@std@@@std@@YA?AU?$pair@PEA_KPEA_K@0@PEA_K0U?$less@X@0@@Z 000000018003f880 f i collisioncodegen_CollisionGeometry.obj
 0001:0003ec40       ??$_Pass_fn@U?$less@X@std@@$0A@@std@@YA?AU?$less@X@0@U10@@Z 000000018003fc40 f i collisioncodegen_CollisionGeometry.obj
 0001:0003ec50       ??$_Pop_heap_hole_by_index@PEA_K_KU?$less@X@std@@@std@@YAXPEA_K_J1$$QEA_KU?$less@X@0@@Z 000000018003fc50 f i collisioncodegen_CollisionGeometry.obj
 0001:0003edb0       ??$_Pop_heap_hole_unchecked@PEA_K_KU?$less@X@std@@@std@@YAXPEA_K00$$QEA_KU?$less@X@0@@Z 000000018003fdb0 f i collisioncodegen_CollisionGeometry.obj
 0001:0003ee20       ??$_Pop_heap_unchecked@PEA_KU?$less@X@std@@@std@@YAXPEA_K0U?$less@X@0@@Z 000000018003fe20 f i collisioncodegen_CollisionGeometry.obj
 0001:0003eea0       ??$_Prev_iter@PEA_K@std@@YAPEA_KPEA_K@Z 000000018003fea0 f i collisioncodegen_CollisionGeometry.obj
 0001:0003eec0       ??$_Push_heap_by_index@PEA_K_KU?$less@X@std@@@std@@YAXPEA_K_J1$$QEA_KU?$less@X@0@@Z 000000018003fec0 f i collisioncodegen_CollisionGeometry.obj
 0001:0003ef80       ??$_Refancy@PEAN$0A@@std@@YAPEANPEAN@Z 000000018003ff80 f i collisioncodegen_CollisionGeometry.obj
 0001:0003ef90       ??$_Refancy@PEA_K$0A@@std@@YAPEA_KPEA_K@Z 000000018003ff90 f i collisioncodegen_CollisionGeometry.obj
 0001:0003efa0       ??$_Resize@U_Value_init_tag@std@@@?$vector@V?$vector@_KV?$allocator@_K@std@@@std@@V?$allocator@V?$vector@_KV?$allocator@_K@std@@@std@@@2@@std@@AEAAX_KAEBU_Value_init_tag@1@@Z 000000018003ffa0 f i collisioncodegen_CollisionGeometry.obj
 0001:0003f110       ??$_Resize@U_Value_init_tag@std@@@?$vector@_KV?$allocator@_K@std@@@std@@AEAAX_KAEBU_Value_init_tag@1@@Z 0000000180040110 f i collisioncodegen_CollisionGeometry.obj
 0001:0003f280       ??$_Resize_reallocate@U_Value_init_tag@std@@@?$vector@V?$vector@_KV?$allocator@_K@std@@@std@@V?$allocator@V?$vector@_KV?$allocator@_K@std@@@std@@@2@@std@@AEAAX_KAEBU_Value_init_tag@1@@Z 0000000180040280 f i collisioncodegen_CollisionGeometry.obj
 0001:0003f3d0       ??$_Resize_reallocate@U_Value_init_tag@std@@@?$vector@_KV?$allocator@_K@std@@@std@@AEAAX_KAEBU_Value_init_tag@1@@Z 00000001800403d0 f i collisioncodegen_CollisionGeometry.obj
 0001:0003f520       ??$_Seek_wrapped@V?$_Vector_iterator@V?$_Vector_val@U?$_Simple_types@N@std@@@std@@@std@@PEAN@std@@YAXAEAV?$_Vector_iterator@V?$_Vector_val@U?$_Simple_types@N@std@@@std@@@0@$$QEAPEAN@Z 0000000180040520 f i collisioncodegen_CollisionGeometry.obj
 0001:0003f550       ??$_Seek_wrapped@V?$_Vector_iterator@V?$_Vector_val@U?$_Simple_types@_K@std@@@std@@@std@@AEAPEA_K@std@@YAXAEAV?$_Vector_iterator@V?$_Vector_val@U?$_Simple_types@_K@std@@@std@@@0@AEAPEA_K@Z 0000000180040550 f i collisioncodegen_CollisionGeometry.obj
 0001:0003f580       ??$_Seek_wrapped@V?$_Vector_iterator@V?$_Vector_val@U?$_Simple_types@_K@std@@@std@@@std@@AEBQEA_K@std@@YAXAEAV?$_Vector_iterator@V?$_Vector_val@U?$_Simple_types@_K@std@@@std@@@0@AEBQEA_K@Z 0000000180040580 f i collisioncodegen_CollisionGeometry.obj
 0001:0003f5b0       ??$_Sort_heap_unchecked@PEA_KU?$less@X@std@@@std@@YAXPEA_K0U?$less@X@0@@Z 00000001800405b0 f i collisioncodegen_CollisionGeometry.obj
 0001:0003f610       ??$_Sort_unchecked@PEA_KU?$less@X@std@@@std@@YAXPEA_K0_JU?$less@X@0@@Z 0000000180040610 f i collisioncodegen_CollisionGeometry.obj
 0001:0003f750       ??$_To_address@PEAN@std@@YA?A_PAEBQEAN@Z 0000000180040750 f i collisioncodegen_CollisionGeometry.obj
 0001:0003f760       ??$_To_address@PEA_K@std@@YA?A_PAEBQEA_K@Z 0000000180040760 f i collisioncodegen_CollisionGeometry.obj
 0001:0003f770       ??$_Unfancy@N@std@@YAPEANPEAN@Z 0000000180040770 f i collisioncodegen_CollisionGeometry.obj
 0001:0003f780       ??$_Unfancy@V?$vector@_KV?$allocator@_K@std@@@std@@@std@@YAPEAV?$vector@_KV?$allocator@_K@std@@@0@PEAV10@@Z 0000000180040780 f i collisioncodegen_CollisionGeometry.obj
 0001:0003f790       ??$_Unfancy@_K@std@@YAPEA_KPEA_K@Z 0000000180040790 f i collisioncodegen_CollisionGeometry.obj
 0001:0003f7a0       ??$_Uninitialized_move@PEANV?$allocator@N@std@@@std@@YAPEANQEAN0PEANAEAV?$allocator@N@0@@Z 00000001800407a0 f i collisioncodegen_CollisionGeometry.obj
 0001:0003f880       ??$_Uninitialized_move@PEAV?$vector@_KV?$allocator@_K@std@@@std@@V?$allocator@V?$vector@_KV?$allocator@_K@std@@@std@@@2@@std@@YAPEAV?$vector@_KV?$allocator@_K@std@@@0@QEAV10@0PEAV10@AEAV?$allocator@V?$vector@_KV?$allocator@_K@std@@@std@@@0@@Z 0000000180040880 f i collisioncodegen_CollisionGeometry.obj
 0001:0003f930       ??$_Uninitialized_move@PEA_KV?$allocator@_K@std@@@std@@YAPEA_KQEA_K0PEA_KAEAV?$allocator@_K@0@@Z 0000000180040930 f i collisioncodegen_CollisionGeometry.obj
 0001:0003fa10       ??$_Uninitialized_value_construct_n@V?$allocator@V?$vector@_KV?$allocator@_K@std@@@std@@@std@@@std@@YAPEAV?$vector@_KV?$allocator@_K@std@@@0@PEAV10@_KAEAV?$allocator@V?$vector@_KV?$allocator@_K@std@@@std@@@0@@Z 0000000180040a10 f i collisioncodegen_CollisionGeometry.obj
 0001:0003fa80       ??$_Uninitialized_value_construct_n@V?$allocator@_K@std@@@std@@YAPEA_KPEA_K_KAEAV?$allocator@_K@0@@Z 0000000180040a80 f i collisioncodegen_CollisionGeometry.obj
 0001:0003fb30       ??$_Voidify_iter@PEAN@std@@YAPEAXPEAN@Z 0000000180040b30 f i collisioncodegen_CollisionGeometry.obj
 0001:0003fb40       ??$_Voidify_iter@PEAV?$vector@_KV?$allocator@_K@std@@@std@@@std@@YAPEAXPEAV?$vector@_KV?$allocator@_K@std@@@0@@Z 0000000180040b40 f i collisioncodegen_CollisionGeometry.obj
 0001:0003fb50       ??$_Voidify_iter@PEA_K@std@@YAPEAXPEA_K@Z 0000000180040b50 f i collisioncodegen_CollisionGeometry.obj
 0001:0003fb60       ??$_Zero_range@PEA_K@std@@YAPEA_KQEA_K0@Z 0000000180040b60 f i collisioncodegen_CollisionGeometry.obj
 0001:0003fbc0       ??$addressof@V?$_Vector_val@U?$_Simple_types@N@std@@@std@@@std@@YAPEAV?$_Vector_val@U?$_Simple_types@N@std@@@0@AEAV10@@Z 0000000180040bc0 f i collisioncodegen_CollisionGeometry.obj
 0001:0003fbd0       ??$addressof@V?$_Vector_val@U?$_Simple_types@_K@std@@@std@@@std@@YAPEAV?$_Vector_val@U?$_Simple_types@_K@std@@@0@AEAV10@@Z 0000000180040bd0 f i collisioncodegen_CollisionGeometry.obj
 0001:0003fbe0       ??$construct@NN@?$_Default_allocator_traits@V?$allocator@N@std@@@std@@SAXAEAV?$allocator@N@1@QEAN$$QEAN@Z 0000000180040be0 f i collisioncodegen_CollisionGeometry.obj
 0001:0003fc30       ??$construct@V?$vector@_KV?$allocator@_K@std@@@std@@$$V@?$_Default_allocator_traits@V?$allocator@V?$vector@_KV?$allocator@_K@std@@@std@@@std@@@std@@SAXAEAV?$allocator@V?$vector@_KV?$allocator@_K@std@@@std@@@1@QEAV?$vector@_KV?$allocator@_K@std@@@1@@Z 0000000180040c30 f i collisioncodegen_CollisionGeometry.obj
 0001:0003fc70       ??$construct@V?$vector@_KV?$allocator@_K@std@@@std@@V12@@?$_Default_allocator_traits@V?$allocator@V?$vector@_KV?$allocator@_K@std@@@std@@@std@@@std@@SAXAEAV?$allocator@V?$vector@_KV?$allocator@_K@std@@@std@@@1@QEAV?$vector@_KV?$allocator@_K@std@@@1@$$QEAV31@@Z 0000000180040c70 f i collisioncodegen_CollisionGeometry.obj
 0001:0003fcc0       ??$construct@_K$$V@?$_Default_allocator_traits@V?$allocator@_K@std@@@std@@SAXAEAV?$allocator@_K@1@QEA_K@Z 0000000180040cc0 f i collisioncodegen_CollisionGeometry.obj
 0001:0003fd10       ??$construct@_KAEB_K@?$_Default_allocator_traits@V?$allocator@_K@std@@@std@@SAXAEAV?$allocator@_K@1@QEA_KAEB_K@Z 0000000180040d10 f i collisioncodegen_CollisionGeometry.obj
 0001:0003fd60       ??$construct@_K_K@?$_Default_allocator_traits@V?$allocator@_K@std@@@std@@SAXAEAV?$allocator@_K@1@QEA_K$$QEA_K@Z 0000000180040d60 f i collisioncodegen_CollisionGeometry.obj
 0001:0003fdb0       ??$destroy@V?$vector@_KV?$allocator@_K@std@@@std@@@?$_Default_allocator_traits@V?$allocator@V?$vector@_KV?$allocator@_K@std@@@std@@@std@@@std@@SAXAEAV?$allocator@V?$vector@_KV?$allocator@_K@std@@@std@@@1@QEAV?$vector@_KV?$allocator@_K@std@@@1@@Z 0000000180040db0 f i collisioncodegen_CollisionGeometry.obj
 0001:0003fdd0       ??$emplace_back@AEB_K@?$vector@_KV?$allocator@_K@std@@@std@@QEAA?A_TAEB_K@Z 0000000180040dd0 f i collisioncodegen_CollisionGeometry.obj
 0001:0003fe50       ??$emplace_back@N@?$vector@NV?$allocator@N@std@@@std@@QEAA?A_T$$QEAN@Z 0000000180040e50 f i collisioncodegen_CollisionGeometry.obj
 0001:0003fed0       ??$endl@DU?$char_traits@D@std@@@std@@YAAEAV?$basic_ostream@DU?$char_traits@D@std@@@0@AEAV10@@Z 0000000180040ed0 f i collisioncodegen_CollisionGeometry.obj
 0001:0003ff20       ??$exchange@PEA_K$$T@std@@YAPEA_KAEAPEA_K$$QEA$$T@Z 0000000180040f20 f i collisioncodegen_CollisionGeometry.obj
 0001:0003ff60       ??$forward@AEAPEA_K@std@@YAAEAPEA_KAEAPEA_K@Z 0000000180040f60 f i collisioncodegen_CollisionGeometry.obj
 0001:0003ff70       ??$forward@AEBQEA_K@std@@YAAEBQEA_KAEBQEA_K@Z 0000000180040f70 f i collisioncodegen_CollisionGeometry.obj
 0001:0003ff80       ??$forward@AEB_K@std@@YAAEB_KAEB_K@Z 0000000180040f80 f i collisioncodegen_CollisionGeometry.obj
 0001:0003ff90       ??$forward@N@std@@YA$$QEANAEAN@Z 0000000180040f90 f i collisioncodegen_CollisionGeometry.obj
 0001:0003ffa0       ??$forward@PEAN@std@@YA$$QEAPEANAEAPEAN@Z 0000000180040fa0 f i collisioncodegen_CollisionGeometry.obj
 0001:0003ffb0       ??$forward@PEA_K@std@@YA$$QEAPEA_KAEAPEA_K@Z 0000000180040fb0 f i collisioncodegen_CollisionGeometry.obj
 0001:0003ffc0       ??$forward@V?$allocator@_K@std@@@std@@YA$$QEAV?$allocator@_K@0@AEAV10@@Z 0000000180040fc0 f i collisioncodegen_CollisionGeometry.obj
 0001:0003ffd0       ??$forward@V?$vector@_KV?$allocator@_K@std@@@std@@@std@@YA$$QEAV?$vector@_KV?$allocator@_K@std@@@0@AEAV10@@Z 0000000180040fd0 f i collisioncodegen_CollisionGeometry.obj
 0001:0003ffe0       ??$forward@_K@std@@YA$$QEA_KAEA_K@Z 0000000180040fe0 f i collisioncodegen_CollisionGeometry.obj
 0001:0003fff0       ??$iter_swap@PEA_KPEA_K@std@@YAXPEA_K0@Z 0000000180040ff0 f i collisioncodegen_CollisionGeometry.obj
 0001:00040020       ??$max_element@V?$_Vector_iterator@V?$_Vector_val@U?$_Simple_types@N@std@@@std@@@std@@@std@@YA?AV?$_Vector_iterator@V?$_Vector_val@U?$_Simple_types@N@std@@@std@@@0@V10@0@Z 0000000180041020 f i collisioncodegen_CollisionGeometry.obj
 0001:00040070       ??$max_element@V?$_Vector_iterator@V?$_Vector_val@U?$_Simple_types@N@std@@@std@@@std@@U?$less@X@2@@std@@YA?AV?$_Vector_iterator@V?$_Vector_val@U?$_Simple_types@N@std@@@std@@@0@V10@0U?$less@X@0@@Z 0000000180041070 f i collisioncodegen_CollisionGeometry.obj
 0001:00040100       ??$min@_K@std@@YAAEB_KAEB_K0@Z 0000000180041100 f i collisioncodegen_CollisionGeometry.obj
 0001:00040150       ??$move@AEAN@std@@YA$$QEANAEAN@Z 0000000180041150 f i collisioncodegen_CollisionGeometry.obj
 0001:00040160       ??$move@AEAV?$allocator@_K@std@@@std@@YA$$QEAV?$allocator@_K@0@AEAV10@@Z 0000000180041160 f i collisioncodegen_CollisionGeometry.obj
 0001:00040170       ??$move@AEAV?$vector@_KV?$allocator@_K@std@@@std@@@std@@YA$$QEAV?$vector@_KV?$allocator@_K@std@@@0@AEAV10@@Z 0000000180041170 f i collisioncodegen_CollisionGeometry.obj
 0001:00040180       ??$move@AEA_K@std@@YA$$QEA_KAEA_K@Z 0000000180041180 f i collisioncodegen_CollisionGeometry.obj
 0001:00040190       ??$sort@V?$_Vector_iterator@V?$_Vector_val@U?$_Simple_types@_K@std@@@std@@@std@@@std@@YAXV?$_Vector_iterator@V?$_Vector_val@U?$_Simple_types@_K@std@@@std@@@0@0@Z 0000000180041190 f i collisioncodegen_CollisionGeometry.obj
 0001:000401d0       ??$sort@V?$_Vector_iterator@V?$_Vector_val@U?$_Simple_types@_K@std@@@std@@@std@@U?$less@X@2@@std@@YAXV?$_Vector_iterator@V?$_Vector_val@U?$_Simple_types@_K@std@@@std@@@0@0U?$less@X@0@@Z 00000001800411d0 f i collisioncodegen_CollisionGeometry.obj
 0001:00040250       ??$swap@_K$0A@@std@@YAXAEA_K0@Z 0000000180041250 f i collisioncodegen_CollisionGeometry.obj
 0001:000402a0       ??$unique@V?$_Vector_iterator@V?$_Vector_val@U?$_Simple_types@_K@std@@@std@@@std@@@std@@YA?AV?$_Vector_iterator@V?$_Vector_val@U?$_Simple_types@_K@std@@@std@@@0@V10@0@Z 00000001800412a0 f i collisioncodegen_CollisionGeometry.obj
 0001:000402f0       ??$unique@V?$_Vector_iterator@V?$_Vector_val@U?$_Simple_types@_K@std@@@std@@@std@@U?$equal_to@X@2@@std@@YA?AV?$_Vector_iterator@V?$_Vector_val@U?$_Simple_types@_K@std@@@std@@@0@V10@0U?$equal_to@X@0@@Z 00000001800412f0 f i collisioncodegen_CollisionGeometry.obj
 0001:00040450       ??0?$_Uninitialized_backout_al@V?$allocator@N@std@@@std@@QEAA@PEANAEAV?$allocator@N@1@@Z 0000000180041450 f i collisioncodegen_CollisionGeometry.obj
 0001:00040490       ??0?$_Uninitialized_backout_al@V?$allocator@V?$vector@_KV?$allocator@_K@std@@@std@@@std@@@std@@QEAA@PEAV?$vector@_KV?$allocator@_K@std@@@1@AEAV?$allocator@V?$vector@_KV?$allocator@_K@std@@@std@@@1@@Z 0000000180041490 f i collisioncodegen_CollisionGeometry.obj
 0001:000404d0       ??0?$_Uninitialized_backout_al@V?$allocator@_K@std@@@std@@QEAA@PEA_KAEAV?$allocator@_K@1@@Z 00000001800414d0 f i collisioncodegen_CollisionGeometry.obj
 0001:00040510       ??0?$_Vector_const_iterator@V?$_Vector_val@U?$_Simple_types@N@std@@@std@@@std@@QEAA@PEANPEBU_Container_base0@1@@Z 0000000180041510 f i collisioncodegen_CollisionGeometry.obj
 0001:00040550       ??0?$_Vector_const_iterator@V?$_Vector_val@U?$_Simple_types@_K@std@@@std@@@std@@QEAA@PEA_KPEBU_Container_base0@1@@Z 0000000180041550 f i collisioncodegen_CollisionGeometry.obj
 0001:00040590       ??0?$_Vector_iterator@V?$_Vector_val@U?$_Simple_types@N@std@@@std@@@std@@QEAA@PEANPEBU_Container_base0@1@@Z 0000000180041590 f i collisioncodegen_CollisionGeometry.obj
 0001:000405d0       ??0?$_Vector_iterator@V?$_Vector_val@U?$_Simple_types@_K@std@@@std@@@std@@QEAA@PEA_KPEBU_Container_base0@1@@Z 00000001800415d0 f i collisioncodegen_CollisionGeometry.obj
 0001:00040610       ??0?$_Vector_val@U?$_Simple_types@N@std@@@std@@QEAA@XZ 0000000180041610 f i collisioncodegen_CollisionGeometry.obj
 0001:00040650       ??0?$_Vector_val@U?$_Simple_types@_K@std@@@std@@QEAA@PEA_K00@Z 0000000180041650 f i collisioncodegen_CollisionGeometry.obj
 0001:000406a0       ??0?$_Vector_val@U?$_Simple_types@_K@std@@@std@@QEAA@XZ 00000001800416a0 f i collisioncodegen_CollisionGeometry.obj
 0001:000406e0       ??0?$allocator@N@std@@QEAA@XZ 00000001800416e0 f i collisioncodegen_CollisionGeometry.obj
 0001:000406f0       ??0?$allocator@_K@std@@QEAA@XZ 00000001800416f0 f i collisioncodegen_CollisionGeometry.obj
 0001:00040700       ??0?$vector@NV?$allocator@N@std@@@std@@QEAA@XZ 0000000180041700 f i collisioncodegen_CollisionGeometry.obj
 0001:00040740       ??0?$vector@_KV?$allocator@_K@std@@@std@@QEAA@$$QEAV01@@Z 0000000180041740 f i collisioncodegen_CollisionGeometry.obj
 0001:00040840       ??0?$vector@_KV?$allocator@_K@std@@@std@@QEAA@XZ 0000000180041840 f i collisioncodegen_CollisionGeometry.obj
 0001:00040880       ??0_Sentry_base@?$basic_ostream@DU?$char_traits@D@std@@@std@@QEAA@AEAV12@@Z 0000000180041880 f i collisioncodegen_CollisionGeometry.obj
 0001:000408f0       ??0bad_alloc@std@@AEAA@QEBD@Z 00000001800418f0 f i collisioncodegen_CollisionGeometry.obj
 0001:00040930       ??0bad_alloc@std@@QEAA@AEBV01@@Z 0000000180041930 f i collisioncodegen_CollisionGeometry.obj
 0001:00040970       ??0bad_array_new_length@std@@QEAA@AEBV01@@Z 0000000180041970 f i collisioncodegen_CollisionGeometry.obj
 0001:000409b0       ??0bad_array_new_length@std@@QEAA@XZ 00000001800419b0 f i collisioncodegen_CollisionGeometry.obj
 0001:000409f0       ??0exception@std@@QEAA@AEBV01@@Z 00000001800419f0 f i collisioncodegen_CollisionGeometry.obj
 0001:00040a50       ??0exception@std@@QEAA@QEBDH@Z 0000000180041a50 f i collisioncodegen_CollisionGeometry.obj
 0001:00040aa0       ??0sentry@?$basic_ostream@DU?$char_traits@D@std@@@std@@QEAA@AEAV12@@Z 0000000180041aa0 f i collisioncodegen_CollisionGeometry.obj
 0001:00040b80       ??1?$_Uninitialized_backout_al@V?$allocator@N@std@@@std@@QEAA@XZ 0000000180041b80 f i collisioncodegen_CollisionGeometry.obj
 0001:00040bb0       ??1?$_Uninitialized_backout_al@V?$allocator@V?$vector@_KV?$allocator@_K@std@@@std@@@std@@@std@@QEAA@XZ 0000000180041bb0 f i collisioncodegen_CollisionGeometry.obj
 0001:00040be0       ??1?$_Uninitialized_backout_al@V?$allocator@_K@std@@@std@@QEAA@XZ 0000000180041be0 f i collisioncodegen_CollisionGeometry.obj
 0001:00040c10       ??1?$vector@NV?$allocator@N@std@@@std@@QEAA@XZ 0000000180041c10 f i collisioncodegen_CollisionGeometry.obj
 0001:00040c30       ??1?$vector@U_ccd_vec3_t@@V?$allocator@U_ccd_vec3_t@@@std@@@std@@QEAA@XZ 0000000180041c30 f i collisioncodegen_CollisionGeometry.obj
 0001:00040c50       ??1?$vector@U_idx_vec3_t@shared_robotics@@V?$allocator@U_idx_vec3_t@shared_robotics@@@std@@@std@@QEAA@XZ 0000000180041c50 f i collisioncodegen_CollisionGeometry.obj
 0001:00040c70       ??1?$vector@V?$vector@_KV?$allocator@_K@std@@@std@@V?$allocator@V?$vector@_KV?$allocator@_K@std@@@std@@@2@@std@@QEAA@XZ 0000000180041c70 f i collisioncodegen_CollisionGeometry.obj
 0001:00040c90       ??1?$vector@_KV?$allocator@_K@std@@@std@@QEAA@XZ 0000000180041c90 f i collisioncodegen_CollisionGeometry.obj
 0001:00040cb0       ??1_Sentry_base@?$basic_ostream@DU?$char_traits@D@std@@@std@@QEAA@XZ 0000000180041cb0 f i collisioncodegen_CollisionGeometry.obj
 0001:00040d10       ??1bad_alloc@std@@UEAA@XZ  0000000180041d10 f i collisioncodegen_CollisionGeometry.obj
 0001:00040d30       ??1bad_array_new_length@std@@UEAA@XZ 0000000180041d30 f i collisioncodegen_CollisionGeometry.obj
 0001:00040d50       ??1exception@std@@UEAA@XZ  0000000180041d50 f i collisioncodegen_CollisionGeometry.obj
 0001:00040d80       ??1sentry@?$basic_ostream@DU?$char_traits@D@std@@@std@@QEAA@XZ 0000000180041d80 f i collisioncodegen_CollisionGeometry.obj
 0001:00040de0       ??2@YAPEAX_KPEAX@Z         0000000180041de0 f i collisioncodegen_CollisionGeometry.obj
 0001:00040df0       ??A?$vector@U_ccd_vec3_t@@V?$allocator@U_ccd_vec3_t@@@std@@@std@@QEBAAEBU_ccd_vec3_t@@_K@Z 0000000180041df0 f i collisioncodegen_CollisionGeometry.obj
 0001:00040e20       ??A?$vector@U_idx_vec3_t@shared_robotics@@V?$allocator@U_idx_vec3_t@shared_robotics@@@std@@@std@@QEAAAEAU_idx_vec3_t@shared_robotics@@_K@Z 0000000180041e20 f i collisioncodegen_CollisionGeometry.obj
 0001:00040e50       ??A?$vector@V?$vector@_KV?$allocator@_K@std@@@std@@V?$allocator@V?$vector@_KV?$allocator@_K@std@@@std@@@2@@std@@QEAAAEAV?$vector@_KV?$allocator@_K@std@@@1@_K@Z 0000000180041e50 f i collisioncodegen_CollisionGeometry.obj
 0001:00040e80       ??A?$vector@V?$vector@_KV?$allocator@_K@std@@@std@@V?$allocator@V?$vector@_KV?$allocator@_K@std@@@std@@@2@@std@@QEBAAEBV?$vector@_KV?$allocator@_K@std@@@1@_K@Z 0000000180041e80 f i collisioncodegen_CollisionGeometry.obj
 0001:00040eb0       ??A?$vector@_KV?$allocator@_K@std@@@std@@QEBAAEB_K_K@Z 0000000180041eb0 f i collisioncodegen_CollisionGeometry.obj
 0001:00040ee0       ??Bsentry@?$basic_ostream@DU?$char_traits@D@std@@@std@@QEBA_NXZ 0000000180041ee0 f i collisioncodegen_CollisionGeometry.obj
 0001:00040ef0       ??G?$_Vector_const_iterator@V?$_Vector_val@U?$_Simple_types@N@std@@@std@@@std@@QEBA_JAEBV01@@Z 0000000180041ef0 f i collisioncodegen_CollisionGeometry.obj
 0001:00040f30       ??_G?$vector@_KV?$allocator@_K@std@@@std@@QEAAPEAXI@Z 0000000180041f30 f i collisioncodegen_CollisionGeometry.obj
 0001:00040f70       ??_GCollisionGeometry@shared_robotics@@UEAAPEAXI@Z 0000000180041f70 f i collisioncodegen_CollisionGeometry.obj
 0001:00040f70       ??_ECollisionGeometry@shared_robotics@@UEAAPEAXI@Z 0000000180041f70 f i collisioncodegen_CollisionGeometry.obj
 0001:00040fb0       ??_Gbad_alloc@std@@UEAAPEAXI@Z 0000000180041fb0 f i collisioncodegen_CollisionGeometry.obj
 0001:00040fb0       ??_Ebad_alloc@std@@UEAAPEAXI@Z 0000000180041fb0 f i collisioncodegen_CollisionGeometry.obj
 0001:00040ff0       ??_Ebad_array_new_length@std@@UEAAPEAXI@Z 0000000180041ff0 f i collisioncodegen_CollisionGeometry.obj
 0001:00040ff0       ??_Gbad_array_new_length@std@@UEAAPEAXI@Z 0000000180041ff0 f i collisioncodegen_CollisionGeometry.obj
 0001:00041030       ??_Eexception@std@@UEAAPEAXI@Z 0000000180042030 f i collisioncodegen_CollisionGeometry.obj
 0001:00041030       ??_Gexception@std@@UEAAPEAXI@Z 0000000180042030 f i collisioncodegen_CollisionGeometry.obj
 0001:00041070       ?_Adjust_manually_vector_aligned@std@@YAXAEAPEAXAEA_K@Z 0000000180042070 f i collisioncodegen_CollisionGeometry.obj
 0001:00041110       ?_Adopt@_Iterator_base0@std@@QEAAXPEBX@Z 0000000180042110 f i collisioncodegen_CollisionGeometry.obj
 0001:00041120       ?_Alloc_proxy@_Container_base0@std@@QEAAXAEBU_Fake_allocator@2@@Z 0000000180042120 f i collisioncodegen_CollisionGeometry.obj
 0001:00041130       ?_Allocate@_Default_allocate_traits@std@@SAPEAX_K@Z 0000000180042130 f i collisioncodegen_CollisionGeometry.obj
 0001:00041150       ?_Calculate_growth@?$vector@NV?$allocator@N@std@@@std@@AEBA_K_K@Z 0000000180042150 f i collisioncodegen_CollisionGeometry.obj
 0001:000411e0       ?_Calculate_growth@?$vector@V?$vector@_KV?$allocator@_K@std@@@std@@V?$allocator@V?$vector@_KV?$allocator@_K@std@@@std@@@2@@std@@AEBA_K_K@Z 00000001800421e0 f i collisioncodegen_CollisionGeometry.obj
 0001:00041270       ?_Calculate_growth@?$vector@_KV?$allocator@_K@std@@@std@@AEBA_K_K@Z 0000000180042270 f i collisioncodegen_CollisionGeometry.obj
 0001:00041300       ?_Change_array@?$vector@NV?$allocator@N@std@@@std@@AEAAXQEAN_K1@Z 0000000180042300 f i collisioncodegen_CollisionGeometry.obj
 0001:000413f0       ?_Change_array@?$vector@V?$vector@_KV?$allocator@_K@std@@@std@@V?$allocator@V?$vector@_KV?$allocator@_K@std@@@std@@@2@@std@@AEAAXQEAV?$vector@_KV?$allocator@_K@std@@@2@_K1@Z 00000001800423f0 f i collisioncodegen_CollisionGeometry.obj
 0001:000414f0       ?_Change_array@?$vector@_KV?$allocator@_K@std@@@std@@AEAAXQEA_K_K1@Z 00000001800424f0 f i collisioncodegen_CollisionGeometry.obj
 0001:000415e0       ?_Compat@?$_Vector_const_iterator@V?$_Vector_val@U?$_Simple_types@N@std@@@std@@@std@@QEBAXAEBV12@@Z 00000001800425e0 f i collisioncodegen_CollisionGeometry.obj
 0001:000415f0       ?_Get_first@?$_Compressed_pair@V?$allocator@N@std@@V?$_Vector_val@U?$_Simple_types@N@std@@@2@$00@std@@QEAAAEAV?$allocator@N@2@XZ 00000001800425f0 f i collisioncodegen_CollisionGeometry.obj
 0001:00041600       ?_Get_first@?$_Compressed_pair@V?$allocator@N@std@@V?$_Vector_val@U?$_Simple_types@N@std@@@2@$00@std@@QEBAAEBV?$allocator@N@2@XZ 0000000180042600 f i collisioncodegen_CollisionGeometry.obj
 0001:00041610       ?_Get_first@?$_Compressed_pair@V?$allocator@U_ccd_vec3_t@@@std@@V?$_Vector_val@U?$_Simple_types@U_ccd_vec3_t@@@std@@@2@$00@std@@QEAAAEAV?$allocator@U_ccd_vec3_t@@@2@XZ 0000000180042610 f i collisioncodegen_CollisionGeometry.obj
 0001:00041620       ?_Get_first@?$_Compressed_pair@V?$allocator@U_idx_vec3_t@shared_robotics@@@std@@V?$_Vector_val@U?$_Simple_types@U_idx_vec3_t@shared_robotics@@@std@@@2@$00@std@@QEAAAEAV?$allocator@U_idx_vec3_t@shared_robotics@@@2@XZ 0000000180042620 f i collisioncodegen_CollisionGeometry.obj
 0001:00041630       ?_Get_first@?$_Compressed_pair@V?$allocator@V?$vector@_KV?$allocator@_K@std@@@std@@@std@@V?$_Vector_val@U?$_Simple_types@V?$vector@_KV?$allocator@_K@std@@@std@@@std@@@2@$00@std@@QEAAAEAV?$allocator@V?$vector@_KV?$allocator@_K@std@@@std@@@2@XZ 0000000180042630 f i collisioncodegen_CollisionGeometry.obj
 0001:00041640       ?_Get_first@?$_Compressed_pair@V?$allocator@V?$vector@_KV?$allocator@_K@std@@@std@@@std@@V?$_Vector_val@U?$_Simple_types@V?$vector@_KV?$allocator@_K@std@@@std@@@std@@@2@$00@std@@QEBAAEBV?$allocator@V?$vector@_KV?$allocator@_K@std@@@std@@@2@XZ 0000000180042640 f i collisioncodegen_CollisionGeometry.obj
 0001:00041650       ?_Get_first@?$_Compressed_pair@V?$allocator@_K@std@@V?$_Vector_val@U?$_Simple_types@_K@std@@@2@$00@std@@QEAAAEAV?$allocator@_K@2@XZ 0000000180042650 f i collisioncodegen_CollisionGeometry.obj
 0001:00041660       ?_Get_first@?$_Compressed_pair@V?$allocator@_K@std@@V?$_Vector_val@U?$_Simple_types@_K@std@@@2@$00@std@@QEBAAEBV?$allocator@_K@2@XZ 0000000180042660 f i collisioncodegen_CollisionGeometry.obj
 0001:00041670       ?_Getal@?$vector@NV?$allocator@N@std@@@std@@AEAAAEAV?$allocator@N@2@XZ 0000000180042670 f i collisioncodegen_CollisionGeometry.obj
 0001:00041690       ?_Getal@?$vector@NV?$allocator@N@std@@@std@@AEBAAEBV?$allocator@N@2@XZ 0000000180042690 f i collisioncodegen_CollisionGeometry.obj
 0001:000416b0       ?_Getal@?$vector@U_ccd_vec3_t@@V?$allocator@U_ccd_vec3_t@@@std@@@std@@AEAAAEAV?$allocator@U_ccd_vec3_t@@@2@XZ 00000001800426b0 f i collisioncodegen_CollisionGeometry.obj
 0001:000416d0       ?_Getal@?$vector@U_idx_vec3_t@shared_robotics@@V?$allocator@U_idx_vec3_t@shared_robotics@@@std@@@std@@AEAAAEAV?$allocator@U_idx_vec3_t@shared_robotics@@@2@XZ 00000001800426d0 f i collisioncodegen_CollisionGeometry.obj
 0001:000416f0       ?_Getal@?$vector@V?$vector@_KV?$allocator@_K@std@@@std@@V?$allocator@V?$vector@_KV?$allocator@_K@std@@@std@@@2@@std@@AEAAAEAV?$allocator@V?$vector@_KV?$allocator@_K@std@@@std@@@2@XZ 00000001800426f0 f i collisioncodegen_CollisionGeometry.obj
 0001:00041710       ?_Getal@?$vector@V?$vector@_KV?$allocator@_K@std@@@std@@V?$allocator@V?$vector@_KV?$allocator@_K@std@@@std@@@2@@std@@AEBAAEBV?$allocator@V?$vector@_KV?$allocator@_K@std@@@std@@@2@XZ 0000000180042710 f i collisioncodegen_CollisionGeometry.obj
 0001:00041730       ?_Getal@?$vector@_KV?$allocator@_K@std@@@std@@AEAAAEAV?$allocator@_K@2@XZ 0000000180042730 f i collisioncodegen_CollisionGeometry.obj
 0001:00041750       ?_Getal@?$vector@_KV?$allocator@_K@std@@@std@@AEBAAEBV?$allocator@_K@2@XZ 0000000180042750 f i collisioncodegen_CollisionGeometry.obj
 0001:00041770       ?_Orphan_all@_Container_base0@std@@QEAAXXZ 0000000180042770 f i collisioncodegen_CollisionGeometry.obj
 0001:00041780       ?_Orphan_range@?$vector@NV?$allocator@N@std@@@std@@AEBAXPEAN0@Z 0000000180042780 f i collisioncodegen_CollisionGeometry.obj
 0001:00041790       ?_Orphan_range@?$vector@V?$vector@_KV?$allocator@_K@std@@@std@@V?$allocator@V?$vector@_KV?$allocator@_K@std@@@std@@@2@@std@@AEBAXPEAV?$vector@_KV?$allocator@_K@std@@@2@0@Z 0000000180042790 f i collisioncodegen_CollisionGeometry.obj
 0001:000417a0       ?_Orphan_range@?$vector@_KV?$allocator@_K@std@@@std@@AEBAXPEA_K0@Z 00000001800427a0 f i collisioncodegen_CollisionGeometry.obj
 0001:000417b0       ?_Release@?$_Uninitialized_backout_al@V?$allocator@N@std@@@std@@QEAAPEANXZ 00000001800427b0 f i collisioncodegen_CollisionGeometry.obj
 0001:000417d0       ?_Release@?$_Uninitialized_backout_al@V?$allocator@V?$vector@_KV?$allocator@_K@std@@@std@@@std@@@std@@QEAAPEAV?$vector@_KV?$allocator@_K@std@@@2@XZ 00000001800427d0 f i collisioncodegen_CollisionGeometry.obj
 0001:000417f0       ?_Release@?$_Uninitialized_backout_al@V?$allocator@_K@std@@@std@@QEAAPEA_KXZ 00000001800427f0 f i collisioncodegen_CollisionGeometry.obj
 0001:00041810       ?_Seek_to@?$_Vector_const_iterator@V?$_Vector_val@U?$_Simple_types@N@std@@@std@@@std@@QEAAXPEBN@Z 0000000180042810 f i collisioncodegen_CollisionGeometry.obj
 0001:00041840       ?_Seek_to@?$_Vector_const_iterator@V?$_Vector_val@U?$_Simple_types@_K@std@@@std@@@std@@QEAAXPEB_K@Z 0000000180042840 f i collisioncodegen_CollisionGeometry.obj
 0001:00041870       ?_Swap_proxy_and_iterators@_Container_base0@std@@QEAAXAEAU12@@Z 0000000180042870 f i collisioncodegen_CollisionGeometry.obj
 0001:00041880       ?_Throw_bad_array_new_length@std@@YAXXZ 0000000180042880 f i collisioncodegen_CollisionGeometry.obj
 0001:000418b0       ?_Tidy@?$vector@NV?$allocator@N@std@@@std@@AEAAXXZ 00000001800428b0 f i collisioncodegen_CollisionGeometry.obj
 0001:00041980       ?_Tidy@?$vector@U_ccd_vec3_t@@V?$allocator@U_ccd_vec3_t@@@std@@@std@@AEAAXXZ 0000000180042980 f i collisioncodegen_CollisionGeometry.obj
 0001:00041a60       ?_Tidy@?$vector@U_idx_vec3_t@shared_robotics@@V?$allocator@U_idx_vec3_t@shared_robotics@@@std@@@std@@AEAAXXZ 0000000180042a60 f i collisioncodegen_CollisionGeometry.obj
 0001:00041b40       ?_Tidy@?$vector@V?$vector@_KV?$allocator@_K@std@@@std@@V?$allocator@V?$vector@_KV?$allocator@_K@std@@@std@@@2@@std@@AEAAXXZ 0000000180042b40 f i collisioncodegen_CollisionGeometry.obj
 0001:00041c20       ?_Tidy@?$vector@_KV?$allocator@_K@std@@@std@@AEAAXXZ 0000000180042c20 f i collisioncodegen_CollisionGeometry.obj
 0001:00041cf0       ?_Unchecked_begin@?$vector@U_ccd_vec3_t@@V?$allocator@U_ccd_vec3_t@@@std@@@std@@QEBAPEBU_ccd_vec3_t@@XZ 0000000180042cf0 f i collisioncodegen_CollisionGeometry.obj
 0001:00041d00       ?_Unchecked_end@?$vector@U_ccd_vec3_t@@V?$allocator@U_ccd_vec3_t@@@std@@@std@@QEBAPEBU_ccd_vec3_t@@XZ 0000000180042d00 f i collisioncodegen_CollisionGeometry.obj
 0001:00041d10       ?_Unwrapped@?$_Vector_iterator@V?$_Vector_val@U?$_Simple_types@N@std@@@std@@@std@@QEBAPEANXZ 0000000180042d10 f i collisioncodegen_CollisionGeometry.obj
 0001:00041d30       ?_Unwrapped@?$_Vector_iterator@V?$_Vector_val@U?$_Simple_types@_K@std@@@std@@@std@@QEBAPEA_KXZ 0000000180042d30 f i collisioncodegen_CollisionGeometry.obj
 0001:00041d50       ?_Xlength@?$vector@NV?$allocator@N@std@@@std@@CAXXZ 0000000180042d50 f i collisioncodegen_CollisionGeometry.obj
 0001:00041d70       ?_Xlength@?$vector@V?$vector@_KV?$allocator@_K@std@@@std@@V?$allocator@V?$vector@_KV?$allocator@_K@std@@@std@@@2@@std@@CAXXZ 0000000180042d70 f i collisioncodegen_CollisionGeometry.obj
 0001:00041d90       ?_Xlength@?$vector@_KV?$allocator@_K@std@@@std@@CAXXZ 0000000180042d90 f i collisioncodegen_CollisionGeometry.obj
 0001:00041db0       ?allocate@?$allocator@N@std@@QEAAPEAN_K@Z 0000000180042db0 f i collisioncodegen_CollisionGeometry.obj
 0001:00041de0       ?allocate@?$allocator@V?$vector@_KV?$allocator@_K@std@@@std@@@std@@QEAAPEAV?$vector@_KV?$allocator@_K@std@@@2@_K@Z 0000000180042de0 f i collisioncodegen_CollisionGeometry.obj
 0001:00041e10       ?allocate@?$allocator@_K@std@@QEAAPEA_K_K@Z 0000000180042e10 f i collisioncodegen_CollisionGeometry.obj
 0001:00041e40       ?begin@?$vector@NV?$allocator@N@std@@@std@@QEAA?AV?$_Vector_iterator@V?$_Vector_val@U?$_Simple_types@N@std@@@std@@@2@XZ 0000000180042e40 f i collisioncodegen_CollisionGeometry.obj
 0001:00041e90       ?begin@?$vector@_KV?$allocator@_K@std@@@std@@QEAA?AV?$_Vector_iterator@V?$_Vector_val@U?$_Simple_types@_K@std@@@std@@@2@XZ 0000000180042e90 f i collisioncodegen_CollisionGeometry.obj
 0001:00041ee0       ?capacity@?$vector@NV?$allocator@N@std@@@std@@QEBA_KXZ 0000000180042ee0 f i collisioncodegen_CollisionGeometry.obj
 0001:00041f10       ?capacity@?$vector@V?$vector@_KV?$allocator@_K@std@@@std@@V?$allocator@V?$vector@_KV?$allocator@_K@std@@@std@@@2@@std@@QEBA_KXZ 0000000180042f10 f i collisioncodegen_CollisionGeometry.obj
 0001:00041f50       ?capacity@?$vector@_KV?$allocator@_K@std@@@std@@QEBA_KXZ 0000000180042f50 f i collisioncodegen_CollisionGeometry.obj
 0001:00041f80       ?clear@?$vector@_KV?$allocator@_K@std@@@std@@QEAAXXZ 0000000180042f80 f i collisioncodegen_CollisionGeometry.obj
 0001:00041ff0       ?deallocate@?$allocator@N@std@@QEAAXQEAN_K@Z 0000000180042ff0 f i collisioncodegen_CollisionGeometry.obj
 0001:00042020       ?deallocate@?$allocator@U_ccd_vec3_t@@@std@@QEAAXQEAU_ccd_vec3_t@@_K@Z 0000000180043020 f i collisioncodegen_CollisionGeometry.obj
 0001:00042050       ?deallocate@?$allocator@U_idx_vec3_t@shared_robotics@@@std@@QEAAXQEAU_idx_vec3_t@shared_robotics@@_K@Z 0000000180043050 f i collisioncodegen_CollisionGeometry.obj
 0001:00042080       ?deallocate@?$allocator@V?$vector@_KV?$allocator@_K@std@@@std@@@std@@QEAAXQEAV?$vector@_KV?$allocator@_K@std@@@2@_K@Z 0000000180043080 f i collisioncodegen_CollisionGeometry.obj
 0001:000420b0       ?deallocate@?$allocator@_K@std@@QEAAXQEA_K_K@Z 00000001800430b0 f i collisioncodegen_CollisionGeometry.obj
 0001:000420e0       ?end@?$vector@NV?$allocator@N@std@@@std@@QEAA?AV?$_Vector_iterator@V?$_Vector_val@U?$_Simple_types@N@std@@@std@@@2@XZ 00000001800430e0 f i collisioncodegen_CollisionGeometry.obj
 0001:00042130       ?end@?$vector@_KV?$allocator@_K@std@@@std@@QEAA?AV?$_Vector_iterator@V?$_Vector_val@U?$_Simple_types@_K@std@@@std@@@2@XZ 0000000180043130 f i collisioncodegen_CollisionGeometry.obj
 0001:00042180       ?eof@?$_Narrow_char_traits@DH@std@@SAHXZ 0000000180043180 f i collisioncodegen_CollisionGeometry.obj
 0001:00042190       ?eq_int_type@?$_Narrow_char_traits@DH@std@@SA_NAEBH0@Z 0000000180043190 f i collisioncodegen_CollisionGeometry.obj
 0001:000421d0       ?erase@?$vector@_KV?$allocator@_K@std@@@std@@QEAA?AV?$_Vector_iterator@V?$_Vector_val@U?$_Simple_types@_K@std@@@std@@@2@V?$_Vector_const_iterator@V?$_Vector_val@U?$_Simple_types@_K@std@@@std@@@2@0@Z 00000001800431d0 f i collisioncodegen_CollisionGeometry.obj
 0001:000422b0       ?length@?$_Narrow_char_traits@DH@std@@SA_KQEBD@Z 00000001800432b0 f i collisioncodegen_CollisionGeometry.obj
 0001:000422d0       ?max@?$numeric_limits@_J@std@@SA_JXZ 00000001800432d0 f i collisioncodegen_CollisionGeometry.obj
 0001:000422e0       ?max_size@?$_Default_allocator_traits@V?$allocator@N@std@@@std@@SA_KAEBV?$allocator@N@2@@Z 00000001800432e0 f i collisioncodegen_CollisionGeometry.obj
 0001:000422f0       ?max_size@?$_Default_allocator_traits@V?$allocator@V?$vector@_KV?$allocator@_K@std@@@std@@@std@@@std@@SA_KAEBV?$allocator@V?$vector@_KV?$allocator@_K@std@@@std@@@2@@Z 00000001800432f0 f i collisioncodegen_CollisionGeometry.obj
 0001:00042300       ?max_size@?$_Default_allocator_traits@V?$allocator@_K@std@@@std@@SA_KAEBV?$allocator@_K@2@@Z 0000000180043300 f i collisioncodegen_CollisionGeometry.obj
 0001:00042310       ?max_size@?$vector@NV?$allocator@N@std@@@std@@QEBA_KXZ 0000000180043310 f i collisioncodegen_CollisionGeometry.obj
 0001:00042360       ?max_size@?$vector@V?$vector@_KV?$allocator@_K@std@@@std@@V?$allocator@V?$vector@_KV?$allocator@_K@std@@@std@@@2@@std@@QEBA_KXZ 0000000180043360 f i collisioncodegen_CollisionGeometry.obj
 0001:000423b0       ?max_size@?$vector@_KV?$allocator@_K@std@@@std@@QEBA_KXZ 00000001800433b0 f i collisioncodegen_CollisionGeometry.obj
 0001:00042400       ?push_back@?$vector@NV?$allocator@N@std@@@std@@QEAAX$$QEAN@Z 0000000180043400 f i collisioncodegen_CollisionGeometry.obj
 0001:00042430       ?push_back@?$vector@_KV?$allocator@_K@std@@@std@@QEAAXAEB_K@Z 0000000180043430 f i collisioncodegen_CollisionGeometry.obj
 0001:00042460       ?resize@?$vector@V?$vector@_KV?$allocator@_K@std@@@std@@V?$allocator@V?$vector@_KV?$allocator@_K@std@@@std@@@2@@std@@QEAAX_K@Z 0000000180043460 f i collisioncodegen_CollisionGeometry.obj
 0001:00042490       ?resize@?$vector@_KV?$allocator@_K@std@@@std@@QEAAX_K@Z 0000000180043490 f i collisioncodegen_CollisionGeometry.obj
 0001:000424c0       ?sign@CollisionGeometry@shared_robotics@@IEBAHN@Z 00000001800434c0 f i collisioncodegen_CollisionGeometry.obj
 0001:00042510       ?size@?$vector@_KV?$allocator@_K@std@@@std@@QEBA_KXZ 0000000180043510 f i collisioncodegen_CollisionGeometry.obj
 0001:00042540       ?what@exception@std@@UEBAPEBDXZ 0000000180043540 f i collisioncodegen_CollisionGeometry.obj
 0001:000425f0       collisioncodegen_makeBox   00000001800435f0 f   collisioncodegen_api.obj
 0001:00042670       collisioncodegen_makeSphere 0000000180043670 f   collisioncodegen_api.obj
 0001:000426d0       collisioncodegen_makeCylinder 00000001800436d0 f   collisioncodegen_api.obj
 0001:00042740       collisioncodegen_makeCapsule 0000000180043740 f   collisioncodegen_api.obj
 0001:000427c0       collisioncodegen_makeMesh  00000001800437c0 f   collisioncodegen_api.obj
 0001:00042830       collisioncodegen_intersect 0000000180043830 f   collisioncodegen_api.obj
 0001:000428c0       collisioncodegen_destructGeometry 00000001800438c0 f   collisioncodegen_api.obj
 0001:00042920       collisioncodegen_copyGeometry 0000000180043920 f   collisioncodegen_api.obj
 0001:00042990       collisioncodegen_getVertices 0000000180043990 f   collisioncodegen_api.obj
 0001:00042a60       collisioncodegen_getNumVertices 0000000180043a60 f   collisioncodegen_api.obj
 0001:00042ab0       collisioncodegen_getX      0000000180043ab0 f   collisioncodegen_api.obj
 0001:00042ad0       collisioncodegen_getY      0000000180043ad0 f   collisioncodegen_api.obj
 0001:00042af0       collisioncodegen_getZ      0000000180043af0 f   collisioncodegen_api.obj
 0001:00042b10       collisioncodegen_getRadius 0000000180043b10 f   collisioncodegen_api.obj
 0001:00042b30       collisioncodegen_getLength 0000000180043b30 f   collisioncodegen_api.obj
 0001:00042b50       collisioncodegen_getType   0000000180043b50 f   collisioncodegen_api.obj
 0001:00042bf0       ??$?0$$V@?$_Compressed_pair@V?$allocator@D@std@@V?$_String_val@U?$_Simple_types@D@std@@@2@$00@std@@QEAA@U_Zero_then_variadic_args_t@1@@Z 0000000180043bf0 f i collisioncodegen_api.obj
 0001:00042c20       ??$?0$$V@?$_Compressed_pair@V?$allocator@U_ccd_vec3_t@@@std@@V?$_Vector_val@U?$_Simple_types@U_ccd_vec3_t@@@std@@@2@$00@std@@QEAA@U_Zero_then_variadic_args_t@1@@Z 0000000180043c20 f i collisioncodegen_api.obj
 0001:00042c50       ??$?0$$V@?$_Compressed_pair@V?$allocator@U_idx_vec3_t@shared_robotics@@@std@@V?$_Vector_val@U?$_Simple_types@U_idx_vec3_t@shared_robotics@@@std@@@2@$00@std@@QEAA@U_Zero_then_variadic_args_t@1@@Z 0000000180043c50 f i collisioncodegen_api.obj
 0001:00042c80       ??$?0$$V@?$_Compressed_pair@V?$allocator@V?$vector@_KV?$allocator@_K@std@@@std@@@std@@V?$_Vector_val@U?$_Simple_types@V?$vector@_KV?$allocator@_K@std@@@std@@@std@@@2@$00@std@@QEAA@U_Zero_then_variadic_args_t@1@@Z 0000000180043c80 f i collisioncodegen_api.obj
 0001:00042cb0       ??$?0V?$allocator@U_ccd_vec3_t@@@std@@$$V@?$_Compressed_pair@V?$allocator@U_ccd_vec3_t@@@std@@V?$_Vector_val@U?$_Simple_types@U_ccd_vec3_t@@@std@@@2@$00@std@@QEAA@U_One_then_variadic_args_t@1@$$QEAV?$allocator@U_ccd_vec3_t@@@1@@Z 0000000180043cb0 f i collisioncodegen_api.obj
 0001:00042cf0       ??$?0V?$allocator@U_idx_vec3_t@shared_robotics@@@std@@$$V@?$_Compressed_pair@V?$allocator@U_idx_vec3_t@shared_robotics@@@std@@V?$_Vector_val@U?$_Simple_types@U_idx_vec3_t@shared_robotics@@@std@@@2@$00@std@@QEAA@U_One_then_variadic_args_t@1@$$QEAV?$allocator@U_idx_vec3_t@shared_robotics@@@1@@Z 0000000180043cf0 f i collisioncodegen_api.obj
 0001:00042d30       ??$?0V?$allocator@V?$vector@_KV?$allocator@_K@std@@@std@@@std@@$$V@?$_Compressed_pair@V?$allocator@V?$vector@_KV?$allocator@_K@std@@@std@@@std@@V?$_Vector_val@U?$_Simple_types@V?$vector@_KV?$allocator@_K@std@@@std@@@std@@@2@$00@std@@QEAA@U_One_then_variadic_args_t@1@$$QEAV?$allocator@V?$vector@_KV?$allocator@_K@std@@@std@@@1@@Z 0000000180043d30 f i collisioncodegen_api.obj
 0001:00042d70       ??$?0V?$allocator@_K@std@@$$V@?$_Compressed_pair@V?$allocator@_K@std@@V?$_Vector_val@U?$_Simple_types@_K@std@@@2@$00@std@@QEAA@U_One_then_variadic_args_t@1@$$QEAV?$allocator@_K@1@@Z 0000000180043d70 f i collisioncodegen_api.obj
 0001:00042db0       ??$_Construct_in_place@PEADAEBQEAD@std@@YAXAEAPEADAEBQEAD@Z 0000000180043db0 f i collisioncodegen_api.obj
 0001:00042e00       ??$_Construct_n@AEBQEAU_ccd_vec3_t@@AEBQEAU1@@?$vector@U_ccd_vec3_t@@V?$allocator@U_ccd_vec3_t@@@std@@@std@@AEAAX_KAEBQEAU_ccd_vec3_t@@1@Z 0000000180043e00 f i collisioncodegen_api.obj
 0001:00042ee0       ??$_Construct_n@AEBQEAU_idx_vec3_t@shared_robotics@@AEBQEAU12@@?$vector@U_idx_vec3_t@shared_robotics@@V?$allocator@U_idx_vec3_t@shared_robotics@@@std@@@std@@AEAAX_KAEBQEAU_idx_vec3_t@shared_robotics@@1@Z 0000000180043ee0 f i collisioncodegen_api.obj
 0001:00042fc0       ??$_Construct_n@AEBQEAV?$vector@_KV?$allocator@_K@std@@@std@@AEBQEAV12@@?$vector@V?$vector@_KV?$allocator@_K@std@@@std@@V?$allocator@V?$vector@_KV?$allocator@_K@std@@@std@@@2@@std@@AEAAX_KAEBQEAV?$vector@_KV?$allocator@_K@std@@@1@1@Z 0000000180043fc0 f i collisioncodegen_api.obj
 0001:000430a0       ??$_Construct_n@AEBQEA_KAEBQEA_K@?$vector@_KV?$allocator@_K@std@@@std@@AEAAX_KAEBQEA_K1@Z 00000001800440a0 f i collisioncodegen_api.obj
 0001:00043180       ??$_Convert_size@_K@std@@YA_K_K@Z 0000000180044180 f i collisioncodegen_api.obj
 0001:00043190       ??$_Copy_memmove@PEAU_ccd_vec3_t@@PEAU1@@std@@YAPEAU_ccd_vec3_t@@PEAU1@00@Z 0000000180044190 f i collisioncodegen_api.obj
 0001:00043230       ??$_Copy_memmove@PEAU_idx_vec3_t@shared_robotics@@PEAU12@@std@@YAPEAU_idx_vec3_t@shared_robotics@@PEAU12@00@Z 0000000180044230 f i collisioncodegen_api.obj
 0001:000432d0       ??$_Destroy_in_place@PEAD@std@@YAXAEAPEAD@Z 00000001800442d0 f i collisioncodegen_api.obj
 0001:000432e0       ??$_Emplace_back@AEAU_ccd_vec3_t@@@?$_Uninitialized_backout_al@V?$allocator@U_ccd_vec3_t@@@std@@@std@@QEAAXAEAU_ccd_vec3_t@@@Z 00000001800442e0 f i collisioncodegen_api.obj
 0001:00043340       ??$_Emplace_back@AEAU_idx_vec3_t@shared_robotics@@@?$_Uninitialized_backout_al@V?$allocator@U_idx_vec3_t@shared_robotics@@@std@@@std@@QEAAXAEAU_idx_vec3_t@shared_robotics@@@Z 0000000180044340 f i collisioncodegen_api.obj
 0001:000433a0       ??$_Emplace_back@AEAV?$vector@_KV?$allocator@_K@std@@@std@@@?$_Uninitialized_backout_al@V?$allocator@V?$vector@_KV?$allocator@_K@std@@@std@@@std@@@std@@QEAAXAEAV?$vector@_KV?$allocator@_K@std@@@1@@Z 00000001800443a0 f i collisioncodegen_api.obj
 0001:00043400       ??$_Emplace_back@AEA_K@?$_Uninitialized_backout_al@V?$allocator@_K@std@@@std@@QEAAXAEA_K@Z 0000000180044400 f i collisioncodegen_api.obj
 0001:00043460       ??$_Emplace_back@U_ccd_vec3_t@@@?$_Uninitialized_backout_al@V?$allocator@U_ccd_vec3_t@@@std@@@std@@QEAAX$$QEAU_ccd_vec3_t@@@Z 0000000180044460 f i collisioncodegen_api.obj
 0001:000434c0       ??$_Emplace_back_with_unused_capacity@AEBU_ccd_vec3_t@@@?$vector@U_ccd_vec3_t@@V?$allocator@U_ccd_vec3_t@@@std@@@std@@AEAA?A_TAEBU_ccd_vec3_t@@@Z 00000001800444c0 f i collisioncodegen_api.obj
 0001:00043570       ??$_Emplace_reallocate@AEBU_ccd_vec3_t@@@?$vector@U_ccd_vec3_t@@V?$allocator@U_ccd_vec3_t@@@std@@@std@@QEAAPEAU_ccd_vec3_t@@QEAU2@AEBU2@@Z 0000000180044570 f i collisioncodegen_api.obj
 0001:00043790       ??$_Get_size_of_n@$00@std@@YA_K_K@Z 0000000180044790 f i collisioncodegen_api.obj
 0001:000437b0       ??$_Get_unwrapped@AEBQEAU_ccd_vec3_t@@@std@@YA?A_TAEBQEAU_ccd_vec3_t@@@Z 00000001800447b0 f i collisioncodegen_api.obj
 0001:000437c0       ??$_Get_unwrapped@AEBQEAU_idx_vec3_t@shared_robotics@@@std@@YA?A_TAEBQEAU_idx_vec3_t@shared_robotics@@@Z 00000001800447c0 f i collisioncodegen_api.obj
 0001:000437d0       ??$_Reallocate_for@V<lambda_66f57f934f28d61049862f64df852ff0>@@PEBD@?$basic_string@DU?$char_traits@D@std@@V?$allocator@D@2@@std@@AEAAAEAV01@_KV<lambda_66f57f934f28d61049862f64df852ff0>@@PEBD@Z 00000001800447d0 f i collisioncodegen_api.obj
 0001:000438f0       ??$_To_address@PEAU_ccd_vec3_t@@@std@@YA?A_PAEBQEAU_ccd_vec3_t@@@Z 00000001800448f0 f i collisioncodegen_api.obj
 0001:00043900       ??$_To_address@PEAU_idx_vec3_t@shared_robotics@@@std@@YA?A_PAEBQEAU_idx_vec3_t@shared_robotics@@@Z 0000000180044900 f i collisioncodegen_api.obj
 0001:00043910       ??$_Unfancy@D@std@@YAPEADPEAD@Z 0000000180044910 f i collisioncodegen_api.obj
 0001:00043920       ??$_Unfancy@U_ccd_vec3_t@@@std@@YAPEAU_ccd_vec3_t@@PEAU1@@Z 0000000180044920 f i collisioncodegen_api.obj
 0001:00043930       ??$_Unfancy@U_idx_vec3_t@shared_robotics@@@std@@YAPEAU_idx_vec3_t@shared_robotics@@PEAU12@@Z 0000000180044930 f i collisioncodegen_api.obj
 0001:00043940       ??$_Uninitialized_copy@PEAU_ccd_vec3_t@@V?$allocator@U_ccd_vec3_t@@@std@@@std@@YAPEAU_ccd_vec3_t@@QEAU1@0PEAU1@AEAV?$allocator@U_ccd_vec3_t@@@0@@Z 0000000180044940 f i collisioncodegen_api.obj
 0001:00043a30       ??$_Uninitialized_copy@PEAU_idx_vec3_t@shared_robotics@@V?$allocator@U_idx_vec3_t@shared_robotics@@@std@@@std@@YAPEAU_idx_vec3_t@shared_robotics@@QEAU12@0PEAU12@AEAV?$allocator@U_idx_vec3_t@shared_robotics@@@0@@Z 0000000180044a30 f i collisioncodegen_api.obj
 0001:00043b20       ??$_Uninitialized_copy@PEAV?$vector@_KV?$allocator@_K@std@@@std@@V?$allocator@V?$vector@_KV?$allocator@_K@std@@@std@@@2@@std@@YAPEAV?$vector@_KV?$allocator@_K@std@@@0@QEAV10@0PEAV10@AEAV?$allocator@V?$vector@_KV?$allocator@_K@std@@@std@@@0@@Z 0000000180044b20 f i collisioncodegen_api.obj
 0001:00043bc0       ??$_Uninitialized_copy@PEA_KV?$allocator@_K@std@@@std@@YAPEA_KQEA_K0PEA_KAEAV?$allocator@_K@0@@Z 0000000180044bc0 f i collisioncodegen_api.obj
 0001:00043ca0       ??$_Uninitialized_move@PEAU_ccd_vec3_t@@V?$allocator@U_ccd_vec3_t@@@std@@@std@@YAPEAU_ccd_vec3_t@@QEAU1@0PEAU1@AEAV?$allocator@U_ccd_vec3_t@@@0@@Z 0000000180044ca0 f i collisioncodegen_api.obj
 0001:00043d90       ??$_Voidify_iter@PEAPEAD@std@@YAPEAXPEAPEAD@Z 0000000180044d90 f i collisioncodegen_api.obj
 0001:00043da0       ??$_Voidify_iter@PEAU_ccd_vec3_t@@@std@@YAPEAXPEAU_ccd_vec3_t@@@Z 0000000180044da0 f i collisioncodegen_api.obj
 0001:00043db0       ??$_Voidify_iter@PEAU_idx_vec3_t@shared_robotics@@@std@@YAPEAXPEAU_idx_vec3_t@shared_robotics@@@Z 0000000180044db0 f i collisioncodegen_api.obj
 0001:00043dc0       ??$addressof@PEAD@std@@YAPEAPEADAEAPEAD@Z 0000000180044dc0 f i collisioncodegen_api.obj
 0001:00043dd0       ??$construct@U_ccd_vec3_t@@AEAU1@@?$_Default_allocator_traits@V?$allocator@U_ccd_vec3_t@@@std@@@std@@SAXAEAV?$allocator@U_ccd_vec3_t@@@1@QEAU_ccd_vec3_t@@AEAU3@@Z 0000000180044dd0 f i collisioncodegen_api.obj
 0001:00043e30       ??$construct@U_ccd_vec3_t@@AEBU1@@?$_Default_allocator_traits@V?$allocator@U_ccd_vec3_t@@@std@@@std@@SAXAEAV?$allocator@U_ccd_vec3_t@@@1@QEAU_ccd_vec3_t@@AEBU3@@Z 0000000180044e30 f i collisioncodegen_api.obj
 0001:00043e90       ??$construct@U_ccd_vec3_t@@U1@@?$_Default_allocator_traits@V?$allocator@U_ccd_vec3_t@@@std@@@std@@SAXAEAV?$allocator@U_ccd_vec3_t@@@1@QEAU_ccd_vec3_t@@$$QEAU3@@Z 0000000180044e90 f i collisioncodegen_api.obj
 0001:00043ef0       ??$construct@U_idx_vec3_t@shared_robotics@@AEAU12@@?$_Default_allocator_traits@V?$allocator@U_idx_vec3_t@shared_robotics@@@std@@@std@@SAXAEAV?$allocator@U_idx_vec3_t@shared_robotics@@@1@QEAU_idx_vec3_t@shared_robotics@@AEAU34@@Z 0000000180044ef0 f i collisioncodegen_api.obj
 0001:00043f50       ??$construct@V?$vector@_KV?$allocator@_K@std@@@std@@AEAV12@@?$_Default_allocator_traits@V?$allocator@V?$vector@_KV?$allocator@_K@std@@@std@@@std@@@std@@SAXAEAV?$allocator@V?$vector@_KV?$allocator@_K@std@@@std@@@1@QEAV?$vector@_KV?$allocator@_K@std@@@1@AEAV31@@Z 0000000180044f50 f i collisioncodegen_api.obj
 0001:00043fa0       ??$construct@_KAEA_K@?$_Default_allocator_traits@V?$allocator@_K@std@@@std@@SAXAEAV?$allocator@_K@1@QEA_KAEA_K@Z 0000000180044fa0 f i collisioncodegen_api.obj
 0001:00043ff0       ??$emplace_back@AEBU_ccd_vec3_t@@@?$vector@U_ccd_vec3_t@@V?$allocator@U_ccd_vec3_t@@@std@@@std@@QEAA?A_TAEBU_ccd_vec3_t@@@Z 0000000180044ff0 f i collisioncodegen_api.obj
 0001:00044070       ??$forward@AEAU_ccd_vec3_t@@@std@@YAAEAU_ccd_vec3_t@@AEAU1@@Z 0000000180045070 f i collisioncodegen_api.obj
 0001:00044080       ??$forward@AEAU_idx_vec3_t@shared_robotics@@@std@@YAAEAU_idx_vec3_t@shared_robotics@@AEAU12@@Z 0000000180045080 f i collisioncodegen_api.obj
 0001:00044090       ??$forward@AEAV?$vector@_KV?$allocator@_K@std@@@std@@@std@@YAAEAV?$vector@_KV?$allocator@_K@std@@@0@AEAV10@@Z 0000000180045090 f i collisioncodegen_api.obj
 0001:000440a0       ??$forward@AEA_K@std@@YAAEA_KAEA_K@Z 00000001800450a0 f i collisioncodegen_api.obj
 0001:000440b0       ??$forward@AEBQEAD@std@@YAAEBQEADAEBQEAD@Z 00000001800450b0 f i collisioncodegen_api.obj
 0001:000440c0       ??$forward@AEBQEAU_ccd_vec3_t@@@std@@YAAEBQEAU_ccd_vec3_t@@AEBQEAU1@@Z 00000001800450c0 f i collisioncodegen_api.obj
 0001:000440d0       ??$forward@AEBQEAU_idx_vec3_t@shared_robotics@@@std@@YAAEBQEAU_idx_vec3_t@shared_robotics@@AEBQEAU12@@Z 00000001800450d0 f i collisioncodegen_api.obj
 0001:000440e0       ??$forward@AEBQEAV?$vector@_KV?$allocator@_K@std@@@std@@@std@@YAAEBQEAV?$vector@_KV?$allocator@_K@std@@@0@AEBQEAV10@@Z 00000001800450e0 f i collisioncodegen_api.obj
 0001:000440f0       ??$forward@AEBU_ccd_vec3_t@@@std@@YAAEBU_ccd_vec3_t@@AEBU1@@Z 00000001800450f0 f i collisioncodegen_api.obj
 0001:00044100       ??$forward@U_ccd_vec3_t@@@std@@YA$$QEAU_ccd_vec3_t@@AEAU1@@Z 0000000180045100 f i collisioncodegen_api.obj
 0001:00044110       ??$forward@V?$allocator@U_ccd_vec3_t@@@std@@@std@@YA$$QEAV?$allocator@U_ccd_vec3_t@@@0@AEAV10@@Z 0000000180045110 f i collisioncodegen_api.obj
 0001:00044120       ??$forward@V?$allocator@U_idx_vec3_t@shared_robotics@@@std@@@std@@YA$$QEAV?$allocator@U_idx_vec3_t@shared_robotics@@@0@AEAV10@@Z 0000000180045120 f i collisioncodegen_api.obj
 0001:00044130       ??$forward@V?$allocator@V?$vector@_KV?$allocator@_K@std@@@std@@@std@@@std@@YA$$QEAV?$allocator@V?$vector@_KV?$allocator@_K@std@@@std@@@0@AEAV10@@Z 0000000180045130 f i collisioncodegen_api.obj
 0001:00044140       ??$max@_K@std@@YAAEB_KAEB_K0@Z 0000000180045140 f i collisioncodegen_api.obj
 0001:00044190       ??$move@AEAU_ccd_vec3_t@@@std@@YA$$QEAU_ccd_vec3_t@@AEAU1@@Z 0000000180045190 f i collisioncodegen_api.obj
 0001:000441a0       ??0?$_String_val@U?$_Simple_types@D@std@@@std@@QEAA@XZ 00000001800451a0 f i collisioncodegen_api.obj
 0001:000441e0       ??0?$_Uninitialized_backout_al@V?$allocator@U_ccd_vec3_t@@@std@@@std@@QEAA@PEAU_ccd_vec3_t@@AEAV?$allocator@U_ccd_vec3_t@@@1@@Z 00000001800451e0 f i collisioncodegen_api.obj
 0001:00044220       ??0?$_Uninitialized_backout_al@V?$allocator@U_idx_vec3_t@shared_robotics@@@std@@@std@@QEAA@PEAU_idx_vec3_t@shared_robotics@@AEAV?$allocator@U_idx_vec3_t@shared_robotics@@@1@@Z 0000000180045220 f i collisioncodegen_api.obj
 0001:00044260       ??0?$_Vector_val@U?$_Simple_types@U_ccd_vec3_t@@@std@@@std@@QEAA@XZ 0000000180045260 f i collisioncodegen_api.obj
 0001:000442a0       ??0?$_Vector_val@U?$_Simple_types@U_idx_vec3_t@shared_robotics@@@std@@@std@@QEAA@XZ 00000001800452a0 f i collisioncodegen_api.obj
 0001:000442e0       ??0?$_Vector_val@U?$_Simple_types@V?$vector@_KV?$allocator@_K@std@@@std@@@std@@@std@@QEAA@XZ 00000001800452e0 f i collisioncodegen_api.obj
 0001:00044320       ??0?$allocator@D@std@@QEAA@XZ 0000000180045320 f i collisioncodegen_api.obj
 0001:00044330       ??0?$allocator@U_ccd_vec3_t@@@std@@QEAA@XZ 0000000180045330 f i collisioncodegen_api.obj
 0001:00044340       ??0?$allocator@U_idx_vec3_t@shared_robotics@@@std@@QEAA@XZ 0000000180045340 f i collisioncodegen_api.obj
 0001:00044350       ??0?$allocator@V?$vector@_KV?$allocator@_K@std@@@std@@@std@@QEAA@XZ 0000000180045350 f i collisioncodegen_api.obj
 0001:00044360       ??0?$basic_string@DU?$char_traits@D@std@@V?$allocator@D@2@@std@@QEAA@QEBD@Z 0000000180045360 f i collisioncodegen_api.obj
 0001:000443e0       ??0?$vector@U_ccd_vec3_t@@V?$allocator@U_ccd_vec3_t@@@std@@@std@@QEAA@AEBV01@@Z 00000001800453e0 f i collisioncodegen_api.obj
 0001:00044480       ??0?$vector@U_ccd_vec3_t@@V?$allocator@U_ccd_vec3_t@@@std@@@std@@QEAA@XZ 0000000180045480 f i collisioncodegen_api.obj
 0001:000444c0       ??0?$vector@U_idx_vec3_t@shared_robotics@@V?$allocator@U_idx_vec3_t@shared_robotics@@@std@@@std@@QEAA@AEBV01@@Z 00000001800454c0 f i collisioncodegen_api.obj
 0001:00044560       ??0?$vector@U_idx_vec3_t@shared_robotics@@V?$allocator@U_idx_vec3_t@shared_robotics@@@std@@@std@@QEAA@XZ 0000000180045560 f i collisioncodegen_api.obj
 0001:000445a0       ??0?$vector@V?$vector@_KV?$allocator@_K@std@@@std@@V?$allocator@V?$vector@_KV?$allocator@_K@std@@@std@@@2@@std@@QEAA@AEBV01@@Z 00000001800455a0 f i collisioncodegen_api.obj
 0001:00044640       ??0?$vector@V?$vector@_KV?$allocator@_K@std@@@std@@V?$allocator@V?$vector@_KV?$allocator@_K@std@@@std@@@2@@std@@QEAA@XZ 0000000180045640 f i collisioncodegen_api.obj
 0001:00044680       ??0?$vector@_KV?$allocator@_K@std@@@std@@QEAA@AEBV01@@Z 0000000180045680 f i collisioncodegen_api.obj
 0001:00044710       ??0CollisionGeometry@shared_robotics@@QEAA@AEBV01@@Z 0000000180045710 f i collisioncodegen_api.obj
 0001:00044870       ??0CollisionGeometry@shared_robotics@@QEAA@N@Z 0000000180045870 f i collisioncodegen_api.obj
 0001:00044900       ??0CollisionGeometry@shared_robotics@@QEAA@NN@Z 0000000180045900 f i collisioncodegen_api.obj
 0001:000449a0       ??0CollisionGeometry@shared_robotics@@QEAA@NNN@Z 00000001800459a0 f i collisioncodegen_api.obj
 0001:00044a50       ??0CollisionGeometry@shared_robotics@@QEAA@PEANH_N@Z 0000000180045a50 f i collisioncodegen_api.obj
 0001:00044c40       ??0_Bxty@?$_String_val@U?$_Simple_types@D@std@@@std@@QEAA@XZ 0000000180045c40 f i collisioncodegen_api.obj
 0001:00044c60       ??0_Fake_proxy_ptr_impl@std@@QEAA@AEBU_Fake_allocator@1@AEBU_Container_base0@1@@Z 0000000180045c60 f i collisioncodegen_api.obj
 0001:00044c80       ??1?$_Compressed_pair@V?$allocator@D@std@@V?$_String_val@U?$_Simple_types@D@std@@@2@$00@std@@QEAA@XZ 0000000180045c80 f i collisioncodegen_api.obj
 0001:00044ca0       ??1?$_String_val@U?$_Simple_types@D@std@@@std@@QEAA@XZ 0000000180045ca0 f i collisioncodegen_api.obj
 0001:00044cc0       ??1?$_Tidy_guard@V?$vector@U_ccd_vec3_t@@V?$allocator@U_ccd_vec3_t@@@std@@@std@@@std@@QEAA@XZ 0000000180045cc0 f i collisioncodegen_api.obj
 0001:00044cf0       ??1?$_Tidy_guard@V?$vector@U_idx_vec3_t@shared_robotics@@V?$allocator@U_idx_vec3_t@shared_robotics@@@std@@@std@@@std@@QEAA@XZ 0000000180045cf0 f i collisioncodegen_api.obj
 0001:00044d20       ??1?$_Tidy_guard@V?$vector@V?$vector@_KV?$allocator@_K@std@@@std@@V?$allocator@V?$vector@_KV?$allocator@_K@std@@@std@@@2@@std@@@std@@QEAA@XZ 0000000180045d20 f i collisioncodegen_api.obj
 0001:00044d50       ??1?$_Tidy_guard@V?$vector@_KV?$allocator@_K@std@@@std@@@std@@QEAA@XZ 0000000180045d50 f i collisioncodegen_api.obj
 0001:00044d80       ??1?$_Uninitialized_backout_al@V?$allocator@U_ccd_vec3_t@@@std@@@std@@QEAA@XZ 0000000180045d80 f i collisioncodegen_api.obj
 0001:00044db0       ??1?$_Uninitialized_backout_al@V?$allocator@U_idx_vec3_t@shared_robotics@@@std@@@std@@QEAA@XZ 0000000180045db0 f i collisioncodegen_api.obj
 0001:00044de0       ??1?$basic_string@DU?$char_traits@D@std@@V?$allocator@D@2@@std@@QEAA@XZ 0000000180045de0 f i collisioncodegen_api.obj
 0001:00044e10       ??1_Bxty@?$_String_val@U?$_Simple_types@D@std@@@std@@QEAA@XZ 0000000180045e10 f i collisioncodegen_api.obj
 0001:00044e20       ??A?$vector@U_ccd_vec3_t@@V?$allocator@U_ccd_vec3_t@@@std@@@std@@QEAAAEAU_ccd_vec3_t@@_K@Z 0000000180045e20 f i collisioncodegen_api.obj
 0001:00044e50       ??R<lambda_66f57f934f28d61049862f64df852ff0>@@QEBA@QEAD_KQEBD@Z 0000000180045e50 f i collisioncodegen_api.obj
 0001:00044eb0       ?_Buy_nonzero@?$vector@U_ccd_vec3_t@@V?$allocator@U_ccd_vec3_t@@@std@@@std@@AEAAX_K@Z 0000000180045eb0 f i collisioncodegen_api.obj
 0001:00044ef0       ?_Buy_nonzero@?$vector@U_idx_vec3_t@shared_robotics@@V?$allocator@U_idx_vec3_t@shared_robotics@@@std@@@std@@AEAAX_K@Z 0000000180045ef0 f i collisioncodegen_api.obj
 0001:00044f30       ?_Buy_nonzero@?$vector@V?$vector@_KV?$allocator@_K@std@@@std@@V?$allocator@V?$vector@_KV?$allocator@_K@std@@@std@@@2@@std@@AEAAX_K@Z 0000000180045f30 f i collisioncodegen_api.obj
 0001:00044f70       ?_Buy_nonzero@?$vector@_KV?$allocator@_K@std@@@std@@AEAAX_K@Z 0000000180045f70 f i collisioncodegen_api.obj
 0001:00044fb0       ?_Buy_raw@?$vector@U_ccd_vec3_t@@V?$allocator@U_ccd_vec3_t@@@std@@@std@@AEAAX_K@Z 0000000180045fb0 f i collisioncodegen_api.obj
 0001:00045050       ?_Buy_raw@?$vector@U_idx_vec3_t@shared_robotics@@V?$allocator@U_idx_vec3_t@shared_robotics@@@std@@@std@@AEAAX_K@Z 0000000180046050 f i collisioncodegen_api.obj
 0001:000450f0       ?_Buy_raw@?$vector@V?$vector@_KV?$allocator@_K@std@@@std@@V?$allocator@V?$vector@_KV?$allocator@_K@std@@@std@@@2@@std@@AEAAX_K@Z 00000001800460f0 f i collisioncodegen_api.obj
 0001:00045190       ?_Buy_raw@?$vector@_KV?$allocator@_K@std@@@std@@AEAAX_K@Z 0000000180046190 f i collisioncodegen_api.obj
 0001:00045220       ?_Calculate_growth@?$basic_string@DU?$char_traits@D@std@@V?$allocator@D@2@@std@@AEBA_K_K@Z 0000000180046220 f i collisioncodegen_api.obj
 0001:00045260       ?_Calculate_growth@?$basic_string@DU?$char_traits@D@std@@V?$allocator@D@2@@std@@CA_K_K00@Z 0000000180046260 f i collisioncodegen_api.obj
 0001:00045300       ?_Calculate_growth@?$vector@U_ccd_vec3_t@@V?$allocator@U_ccd_vec3_t@@@std@@@std@@AEBA_K_K@Z 0000000180046300 f i collisioncodegen_api.obj
 0001:00045390       ?_Change_array@?$vector@U_ccd_vec3_t@@V?$allocator@U_ccd_vec3_t@@@std@@@std@@AEAAXQEAU_ccd_vec3_t@@_K1@Z 0000000180046390 f i collisioncodegen_api.obj
 0001:00045490       ?_Get_first@?$_Compressed_pair@V?$allocator@D@std@@V?$_String_val@U?$_Simple_types@D@std@@@2@$00@std@@QEAAAEAV?$allocator@D@2@XZ 0000000180046490 f i collisioncodegen_api.obj
 0001:000454a0       ?_Get_first@?$_Compressed_pair@V?$allocator@D@std@@V?$_String_val@U?$_Simple_types@D@std@@@2@$00@std@@QEBAAEBV?$allocator@D@2@XZ 00000001800464a0 f i collisioncodegen_api.obj
 0001:000454b0       ?_Get_first@?$_Compressed_pair@V?$allocator@U_ccd_vec3_t@@@std@@V?$_Vector_val@U?$_Simple_types@U_ccd_vec3_t@@@std@@@2@$00@std@@QEBAAEBV?$allocator@U_ccd_vec3_t@@@2@XZ 00000001800464b0 f i collisioncodegen_api.obj
 0001:000454c0       ?_Get_first@?$_Compressed_pair@V?$allocator@U_idx_vec3_t@shared_robotics@@@std@@V?$_Vector_val@U?$_Simple_types@U_idx_vec3_t@shared_robotics@@@std@@@2@$00@std@@QEBAAEBV?$allocator@U_idx_vec3_t@shared_robotics@@@2@XZ 00000001800464c0 f i collisioncodegen_api.obj
 0001:000454d0       ?_Getal@?$basic_string@DU?$char_traits@D@std@@V?$allocator@D@2@@std@@AEAAAEAV?$allocator@D@2@XZ 00000001800464d0 f i collisioncodegen_api.obj
 0001:000454f0       ?_Getal@?$basic_string@DU?$char_traits@D@std@@V?$allocator@D@2@@std@@AEBAAEBV?$allocator@D@2@XZ 00000001800464f0 f i collisioncodegen_api.obj
 0001:00045510       ?_Getal@?$vector@U_ccd_vec3_t@@V?$allocator@U_ccd_vec3_t@@@std@@@std@@AEBAAEBV?$allocator@U_ccd_vec3_t@@@2@XZ 0000000180046510 f i collisioncodegen_api.obj
 0001:00045530       ?_Getal@?$vector@U_idx_vec3_t@shared_robotics@@V?$allocator@U_idx_vec3_t@shared_robotics@@@std@@@std@@AEBAAEBV?$allocator@U_idx_vec3_t@shared_robotics@@@2@XZ 0000000180046530 f i collisioncodegen_api.obj
 0001:00045550       ?_Large_string_engaged@?$_String_val@U?$_Simple_types@D@std@@@std@@QEBA_NXZ 0000000180046550 f i collisioncodegen_api.obj
 0001:00045580       ?_Myptr@?$_String_val@U?$_Simple_types@D@std@@@std@@QEAAPEADXZ 0000000180046580 f i collisioncodegen_api.obj
 0001:000455c0       ?_Myptr@?$_String_val@U?$_Simple_types@D@std@@@std@@QEBAPEBDXZ 00000001800465c0 f i collisioncodegen_api.obj
 0001:00045600       ?_Orphan_range@?$vector@U_ccd_vec3_t@@V?$allocator@U_ccd_vec3_t@@@std@@@std@@AEBAXPEAU_ccd_vec3_t@@0@Z 0000000180046600 f i collisioncodegen_api.obj
 0001:00045610       ?_Release@?$_Uninitialized_backout_al@V?$allocator@U_ccd_vec3_t@@@std@@@std@@QEAAPEAU_ccd_vec3_t@@XZ 0000000180046610 f i collisioncodegen_api.obj
 0001:00045630       ?_Release@?$_Uninitialized_backout_al@V?$allocator@U_idx_vec3_t@shared_robotics@@@std@@@std@@QEAAPEAU_idx_vec3_t@shared_robotics@@XZ 0000000180046630 f i collisioncodegen_api.obj
 0001:00045650       ?_Release@_Fake_proxy_ptr_impl@std@@QEAAXXZ 0000000180046650 f i collisioncodegen_api.obj
 0001:00045660       ?_Tidy_deallocate@?$basic_string@DU?$char_traits@D@std@@V?$allocator@D@2@@std@@AEAAXXZ 0000000180046660 f i collisioncodegen_api.obj
 0001:00045720       ?_Tidy_init@?$basic_string@DU?$char_traits@D@std@@V?$allocator@D@2@@std@@AEAAXXZ 0000000180046720 f i collisioncodegen_api.obj
 0001:00045780       ?_Xlen_string@std@@YAXXZ   0000000180046780 f i collisioncodegen_api.obj
 0001:000457a0       ?_Xlength@?$vector@U_ccd_vec3_t@@V?$allocator@U_ccd_vec3_t@@@std@@@std@@CAXXZ 00000001800467a0 f i collisioncodegen_api.obj
 0001:000457c0       ?_Xlength@?$vector@U_idx_vec3_t@shared_robotics@@V?$allocator@U_idx_vec3_t@shared_robotics@@@std@@@std@@CAXXZ 00000001800467c0 f i collisioncodegen_api.obj
 0001:000457e0       ?allocate@?$allocator@D@std@@QEAAPEAD_K@Z 00000001800467e0 f i collisioncodegen_api.obj
 0001:00045810       ?allocate@?$allocator@U_ccd_vec3_t@@@std@@QEAAPEAU_ccd_vec3_t@@_K@Z 0000000180046810 f i collisioncodegen_api.obj
 0001:00045840       ?allocate@?$allocator@U_idx_vec3_t@shared_robotics@@@std@@QEAAPEAU_idx_vec3_t@shared_robotics@@_K@Z 0000000180046840 f i collisioncodegen_api.obj
 0001:00045870       ?assign@?$_Narrow_char_traits@DH@std@@SAXAEADAEBD@Z 0000000180046870 f i collisioncodegen_api.obj
 0001:00045890       ?assign@?$basic_string@DU?$char_traits@D@std@@V?$allocator@D@2@@std@@QEAAAEAV12@QEBD@Z 0000000180046890 f i collisioncodegen_api.obj
 0001:000458d0       ?assign@?$basic_string@DU?$char_traits@D@std@@V?$allocator@D@2@@std@@QEAAAEAV12@QEBD_K@Z 00000001800468d0 f i collisioncodegen_api.obj
 0001:00045990       ?c_str@?$basic_string@DU?$char_traits@D@std@@V?$allocator@D@2@@std@@QEBAPEBDXZ 0000000180046990 f i collisioncodegen_api.obj
 0001:000459b0       ?capacity@?$vector@U_ccd_vec3_t@@V?$allocator@U_ccd_vec3_t@@@std@@@std@@QEBA_KXZ 00000001800469b0 f i collisioncodegen_api.obj
 0001:000459f0       ?copy@?$_Char_traits@DH@std@@SAPEADQEADQEBD_K@Z 00000001800469f0 f i collisioncodegen_api.obj
 0001:00045a30       ?deallocate@?$allocator@D@std@@QEAAXQEAD_K@Z 0000000180046a30 f i collisioncodegen_api.obj
 0001:00045a60       ?getHeight@CollisionGeometry@shared_robotics@@QEBANXZ 0000000180046a60 f i collisioncodegen_api.obj
 0001:00045a70       ?getNumVertices@CollisionGeometry@shared_robotics@@QEBA_KXZ 0000000180046a70 f i collisioncodegen_api.obj
 0001:00045a80       ?getRadius@CollisionGeometry@shared_robotics@@QEBANXZ 0000000180046a80 f i collisioncodegen_api.obj
 0001:00045a90       ?getType@CollisionGeometry@shared_robotics@@QEBA?AV?$basic_string@DU?$char_traits@D@std@@V?$allocator@D@2@@std@@XZ 0000000180046a90 f i collisioncodegen_api.obj
 0001:00045bc0       ?getVertices@CollisionGeometry@shared_robotics@@QEBAAEBV?$vector@U_ccd_vec3_t@@V?$allocator@U_ccd_vec3_t@@@std@@@std@@XZ 0000000180046bc0 f i collisioncodegen_api.obj
 0001:00045bd0       ?getX@CollisionGeometry@shared_robotics@@QEBANXZ 0000000180046bd0 f i collisioncodegen_api.obj
 0001:00045be0       ?getY@CollisionGeometry@shared_robotics@@QEBANXZ 0000000180046be0 f i collisioncodegen_api.obj
 0001:00045bf0       ?getZ@CollisionGeometry@shared_robotics@@QEBANXZ 0000000180046bf0 f i collisioncodegen_api.obj
 0001:00045c00       ?initializePositionAndOrientation@CollisionGeometry@shared_robotics@@AEAAXXZ 0000000180046c00 f i collisioncodegen_api.obj
 0001:00045c90       ?length@?$basic_string@DU?$char_traits@D@std@@V?$allocator@D@2@@std@@QEBA_KXZ 0000000180046c90 f i collisioncodegen_api.obj
 0001:00045ca0       ?max_size@?$_Default_allocator_traits@V?$allocator@D@std@@@std@@SA_KAEBV?$allocator@D@2@@Z 0000000180046ca0 f i collisioncodegen_api.obj
 0001:00045cb0       ?max_size@?$_Default_allocator_traits@V?$allocator@U_ccd_vec3_t@@@std@@@std@@SA_KAEBV?$allocator@U_ccd_vec3_t@@@2@@Z 0000000180046cb0 f i collisioncodegen_api.obj
 0001:00045cc0       ?max_size@?$_Default_allocator_traits@V?$allocator@U_idx_vec3_t@shared_robotics@@@std@@@std@@SA_KAEBV?$allocator@U_idx_vec3_t@shared_robotics@@@2@@Z 0000000180046cc0 f i collisioncodegen_api.obj
 0001:00045cd0       ?max_size@?$basic_string@DU?$char_traits@D@std@@V?$allocator@D@2@@std@@QEBA_KXZ 0000000180046cd0 f i collisioncodegen_api.obj
 0001:00045d40       ?max_size@?$vector@U_ccd_vec3_t@@V?$allocator@U_ccd_vec3_t@@@std@@@std@@QEBA_KXZ 0000000180046d40 f i collisioncodegen_api.obj
 0001:00045d90       ?max_size@?$vector@U_idx_vec3_t@shared_robotics@@V?$allocator@U_idx_vec3_t@shared_robotics@@@std@@@std@@QEBA_KXZ 0000000180046d90 f i collisioncodegen_api.obj
 0001:00045de0       ?move@?$_Char_traits@DH@std@@SAPEADQEADQEBD_K@Z 0000000180046de0 f i collisioncodegen_api.obj
 0001:00045e20       ?push_back@?$vector@U_ccd_vec3_t@@V?$allocator@U_ccd_vec3_t@@@std@@@std@@QEAAXAEBU_ccd_vec3_t@@@Z 0000000180046e20 f i collisioncodegen_api.obj
 0001:00045e50       ?select_on_container_copy_construction@?$_Default_allocator_traits@V?$allocator@U_ccd_vec3_t@@@std@@@std@@SA?AV?$allocator@U_ccd_vec3_t@@@2@AEBV32@@Z 0000000180046e50 f i collisioncodegen_api.obj
 0001:00045e60       ?select_on_container_copy_construction@?$_Default_allocator_traits@V?$allocator@U_idx_vec3_t@shared_robotics@@@std@@@std@@SA?AV?$allocator@U_idx_vec3_t@shared_robotics@@@2@AEBV32@@Z 0000000180046e60 f i collisioncodegen_api.obj
 0001:00045e70       ?select_on_container_copy_construction@?$_Default_allocator_traits@V?$allocator@V?$vector@_KV?$allocator@_K@std@@@std@@@std@@@std@@SA?AV?$allocator@V?$vector@_KV?$allocator@_K@std@@@std@@@2@AEBV32@@Z 0000000180046e70 f i collisioncodegen_api.obj
 0001:00045e80       ?select_on_container_copy_construction@?$_Default_allocator_traits@V?$allocator@_K@std@@@std@@SA?AV?$allocator@_K@2@AEBV32@@Z 0000000180046e80 f i collisioncodegen_api.obj
 0001:00045e90       ?setEnumType@CollisionGeometry@shared_robotics@@QEAAXW4Type@12@@Z 0000000180046e90 f i collisioncodegen_api.obj
 0001:00045eb0       ?size@?$vector@U_ccd_vec3_t@@V?$allocator@U_ccd_vec3_t@@@std@@@std@@QEBA_KXZ 0000000180046eb0 f i collisioncodegen_api.obj
 0001:00046620       ?ccdDistance@shared_robotics@@YANPEBX0PEBU_ccd_t@@PEAU_ccd_vec3_t@@2@Z 0000000180047620 f   collisioncodegen_ccdExtensions.obj
 0001:00046900       ?distanceToOrigin@shared_robotics@@YANPEAU_ccd_simplex_t@@AEAPEAU_ccd_vec3_t@@@Z 0000000180047900 f   collisioncodegen_ccdExtensions.obj
 0001:00046f20       ?extractWitnessPoints@shared_robotics@@YAXPEBU_ccd_simplex_t@@PEBU_ccd_vec3_t@@PEAU3@2@Z 0000000180047f20 f   collisioncodegen_ccdExtensions.obj
 0001:00046fe0       ?interpolateBetweenTwoSupportPoints@shared_robotics@@YAXAEAPEBU_ccd_simplex_t@@AEAPEBU_ccd_vec3_t@@AEAPEAU3@2@Z 0000000180047fe0 f   collisioncodegen_ccdExtensions.obj
 0001:000472c0       ?interpolateAmongThreeSupportPoints@shared_robotics@@YAXAEAPEBU_ccd_simplex_t@@AEAPEBU_ccd_vec3_t@@AEAPEAU3@2@Z 00000001800482c0 f   collisioncodegen_ccdExtensions.obj
 0001:000478f0       ?barycentricCoordinates@@YAXPEBU_ccd_vec3_t@@000PEAU1@@Z 00000001800488f0 f   collisioncodegen_ccdExtensions.obj
 0001:00047ac0       ?epsilon@?$numeric_limits@N@std@@SANXZ 0000000180048ac0 f i collisioncodegen_ccdExtensions.obj
 0001:00047bd0       intersect                  0000000180048bd0 f   collisioncodegen_checkCollision.obj
 0001:00047f20       updatePose                 0000000180048f20 f   collisioncodegen_checkCollision.obj
 0001:00048036       mxSetCell_800              0000000180049036 f   libmx:libmx.dll
 0001:0004803c       mxSetFieldByNumber_800     000000018004903c f   libmx:libmx.dll
 0001:00048042       mxCreateString_800         0000000180049042 f   libmx:libmx.dll
 0001:00048048       mxCreateCellMatrix_800     0000000180049048 f   libmx:libmx.dll
 0001:0004804e       mxCreateStructMatrix_800   000000018004904e f   libmx:libmx.dll
 0001:00048054       mxGetNaN_800               0000000180049054 f   libmx:libmx.dll
 0001:0004805a       mxCalloc_800               000000018004905a f   libmx:libmx.dll
 0001:00048060       mxGetM_800                 0000000180049060 f   libmx:libmx.dll
 0001:00048066       mxGetClassID_800           0000000180049066 f   libmx:libmx.dll
 0001:0004806c       mxGetData_800              000000018004906c f   libmx:libmx.dll
 0001:00048072       mxIsNumeric_800            0000000180049072 f   libmx:libmx.dll
 0001:00048078       mxIsChar_800               0000000180049078 f   libmx:libmx.dll
 0001:0004807e       mxIsComplex_800            000000018004907e f   libmx:libmx.dll
 0001:00048084       mxGetN_800                 0000000180049084 f   libmx:libmx.dll
 0001:0004808a       mxGetPr_800                000000018004908a f   libmx:libmx.dll
 0001:00048090       mxSetField_800             0000000180049090 f   libmx:libmx.dll
 0001:00048096       mxCreateNumericMatrix_800  0000000180049096 f   libmx:libmx.dll
 0001:0004809c       mxCreateDoubleMatrix_800   000000018004909c f   libmx:libmx.dll
 0001:000480a2       mxCreateDoubleScalar_800   00000001800490a2 f   libmx:libmx.dll
 0001:000480a8       mxGetString_800            00000001800490a8 f   libmx:libmx.dll
 0001:000480ae       mexWarnMsgTxt_800          00000001800490ae f   libmex:libmex.dll
 0001:000480b4       mexPrintf_800              00000001800490b4 f   libmex:libmex.dll
 0001:000480ba       mexCallMATLAB_800          00000001800490ba f   libmex:libmex.dll
 0001:000480c0       mexUnlock_800              00000001800490c0 f   libmex:libmex.dll
 0001:000480c6       mexIsLocked_800            00000001800490c6 f   libmex:libmex.dll
 0001:000480cc       muDoubleScalarAbs          00000001800490cc f   libmwmathutil:libmwmathutil.dll
 0001:000480d2       muDoubleScalarFloor        00000001800490d2 f   libmwmathutil:libmwmathutil.dll
 0001:000480d8       muDoubleScalarCos          00000001800490d8 f   libmwmathutil:libmwmathutil.dll
 0001:000480de       muDoubleScalarMax          00000001800490de f   libmwmathutil:libmwmathutil.dll
 0001:000480e4       muDoubleScalarSin          00000001800490e4 f   libmwmathutil:libmwmathutil.dll
 0001:000480ea       muDoubleScalarSqrt         00000001800490ea f   libmwmathutil:libmwmathutil.dll
 0001:000480f0       muDoubleScalarIsNaN        00000001800490f0 f   libmwmathutil:libmwmathutil.dll
 0001:000480f6       muDoubleScalarIsInf        00000001800490f6 f   libmwmathutil:libmwmathutil.dll
 0001:000480fc       emlrtLicenseCheckR2022a    00000001800490fc f   libemlrt:libemlrt.dll
 0001:00048102       emlrtAssign                0000000180049102 f   libemlrt:libemlrt.dll
 0001:00048108       emlrtDynamicBoundsCheckR2012b 0000000180049108 f   libemlrt:libemlrt.dll
 0001:0004810e       emlrtCreateDoubleScalar    000000018004910e f   libemlrt:libemlrt.dll
 0001:00048114       emlrtCreateCharArray       0000000180049114 f   libemlrt:libemlrt.dll
 0001:0004811a       emlrtIntegerCheckR2012b    000000018004911a f   libemlrt:libemlrt.dll
 0001:00048120       emlrtNonNegativeCheckR2012b 0000000180049120 f   libemlrt:libemlrt.dll
 0001:00048126       emlrtForLoopVectorCheckR2021a 0000000180049126 f   libemlrt:libemlrt.dll
 0001:0004812c       emlrtCallMATLABR2012b      000000018004912c f   libemlrt:libemlrt.dll
 0001:00048132       emlrtMallocMex             0000000180049132 f   libemlrt:libemlrt.dll
 0001:00048138       emlrtCallocMex             0000000180049138 f   libemlrt:libemlrt.dll
 0001:0004813e       emlrtFreeMex               000000018004913e f   libemlrt:libemlrt.dll
 0001:00048144       emlrtInitCharArrayR2013a   0000000180049144 f   libemlrt:libemlrt.dll
 0001:0004814a       emlrtSubAssignSizeCheckR2012b 000000018004914a f   libemlrt:libemlrt.dll
 0001:00048150       emlrtSubAssignSizeCheck1dR2017a 0000000180049150 f   libemlrt:libemlrt.dll
 0001:00048156       cgxertGetInputPortSignal   0000000180049156 f   libmwcgxert:libmwcgxert.dll
 0001:0004815c       cgxertGetOutputPortSignal  000000018004915c f   libmwcgxert:libmwcgxert.dll
 0001:00048162       cgxertSetSimStateCompliance 0000000180049162 f   libmwcgxert:libmwcgxert.dll
 0001:00048168       cgxertGetRuntimeInstance   0000000180049168 f   libmwcgxert:libmwcgxert.dll
 0001:0004816e       cgxertSetRuntimeInstance   000000018004916e f   libmwcgxert:libmwcgxert.dll
 0001:00048174       cgxertGetEMLRTCtx          0000000180049174 f   libmwcgxert:libmwcgxert.dll
 0001:0004817a       cgxertSetGcb               000000018004917a f   libmwcgxert:libmwcgxert.dll
 0001:00048180       cgxertRestoreGcb           0000000180049180 f   libmwcgxert:libmwcgxert.dll
 0001:00048186       dgemm                      0000000180049186 f   libmwblas:libmwblas.dll
 0001:0004818c       __raise_securityfailure    000000018004918c f   MSVCRT:gs_report.obj
 0001:000481c0       __report_gsfailure         00000001800491c0 f   MSVCRT:gs_report.obj
 0001:00048294       __report_rangecheckfailure 0000000180049294 f   MSVCRT:gs_report.obj
 0001:000482a8       __report_securityfailure   00000001800492a8 f   MSVCRT:gs_report.obj
 0001:00048344       __report_securityfailureEx 0000000180049344 f   MSVCRT:gs_report.obj
 0001:00048538       __GSHandlerCheck           0000000180049538 f   MSVCRT:gshandler.obj
 0001:00048558       __GSHandlerCheckCommon     0000000180049558 f   MSVCRT:gshandler.obj
 0001:000485d0       __security_check_cookie    00000001800495d0 f   MSVCRT:amdsecgs.obj
 0001:000485f0       ??2@YAPEAX_K@Z             00000001800495f0 f   MSVCRT:new_scalar.obj
 0001:0004862c       ??3@YAXPEAX_K@Z            000000018004962c f   MSVCRT:delete_scalar_size.obj
 0001:00048634       __GSHandlerCheck_EH4       0000000180049634 f   MSVCRT:gshandlereh4.obj
 0001:000486b4       ??1type_info@@UEAA@XZ      00000001800496b4 f   MSVCRT:std_type_info_static.obj
 0001:000486c0       ??_Etype_info@@UEAAPEAXI@Z 00000001800496c0 f i MSVCRT:std_type_info_static.obj
 0001:000486c0       ??_Gtype_info@@UEAAPEAXI@Z 00000001800496c0 f i MSVCRT:std_type_info_static.obj
 0001:00048a28       _CRT_INIT                  0000000180049a28 f   MSVCRT:dll_dllmain.obj
 0001:00048a30       _DllMainCRTStartup         0000000180049a30 f   MSVCRT:dll_dllmain.obj
 0001:00048a70       ??0bad_alloc@std@@QEAA@XZ  0000000180049a70 f i MSVCRT:throw_bad_alloc.obj
 0001:00048a90       ?__scrt_throw_std_bad_alloc@@YAXXZ 0000000180049a90 f   MSVCRT:throw_bad_alloc.obj
 0001:00048ab0       ?__scrt_throw_std_bad_array_new_length@@YAXXZ 0000000180049ab0 f   MSVCRT:throw_bad_alloc.obj
 0001:00048ad0       ??3@YAXPEAX@Z              0000000180049ad0 f   MSVCRT:delete_scalar.obj
 0001:00048b44       __security_init_cookie     0000000180049b44 f   MSVCRT:gs_support.obj
 0001:00048bf0       DllMain                    0000000180049bf0 f   MSVCRT:dll_dllmain_stub.obj
 0001:00048c14       ?__scrt_initialize_type_info@@YAXXZ 0000000180049c14 f   MSVCRT:tncleanup.obj
 0001:00048c24       ?__scrt_uninitialize_type_info@@YAXXZ 0000000180049c24 f   MSVCRT:tncleanup.obj
 0001:00048c30       __local_stdio_scanf_options 0000000180049c30 f i MSVCRT:default_local_stdio_options.obj
 0001:00048c38       __scrt_initialize_default_local_stdio_options 0000000180049c38 f   MSVCRT:default_local_stdio_options.obj
 0001:00048c54       ?configure_argv@__scrt_narrow_argv_policy@@SAHXZ 0000000180049c54 f i MSVCRT:utility.obj
 0001:00048cb4       ?initialize_environment@__scrt_narrow_environment_policy@@SAHXZ 0000000180049cb4 f i MSVCRT:utility.obj
 0001:00048cec       NtCurrentTeb               0000000180049cec f i MSVCRT:utility.obj
 0001:00048cf8       __scrt_acquire_startup_lock 0000000180049cf8 f   MSVCRT:utility.obj
 0001:00048d34       __scrt_dllmain_after_initialize_c 0000000180049d34 f   MSVCRT:utility.obj
 0001:00048d68       __scrt_dllmain_before_initialize_c 0000000180049d68 f   MSVCRT:utility.obj
 0001:00048d80       __scrt_dllmain_crt_thread_attach 0000000180049d80 f   MSVCRT:utility.obj
 0001:00048da8       __scrt_dllmain_crt_thread_detach 0000000180049da8 f   MSVCRT:utility.obj
 0001:00048dc0       __scrt_dllmain_exception_filter 0000000180049dc0 f   MSVCRT:utility.obj
 0001:00048e20       __scrt_dllmain_uninitialize_c 0000000180049e20 f   MSVCRT:utility.obj
 0001:00048e50       __scrt_dllmain_uninitialize_critical 0000000180049e50 f   MSVCRT:utility.obj
 0001:00048e64       __scrt_initialize_crt      0000000180049e64 f   MSVCRT:utility.obj
 0001:00048eb0       __scrt_initialize_onexit_tables 0000000180049eb0 f   MSVCRT:utility.obj
 0001:00048f3c       __scrt_is_nonwritable_in_current_image 0000000180049f3c f   MSVCRT:utility.obj
 0001:00048fd4       __scrt_release_startup_lock 0000000180049fd4 f   MSVCRT:utility.obj
 0001:00048ff8       __scrt_uninitialize_crt    0000000180049ff8 f   MSVCRT:utility.obj
 0001:00049024       _onexit                    000000018004a024 f   MSVCRT:utility.obj
 0001:00049060       at_quick_exit              000000018004a060 f   MSVCRT:utility.obj
 0001:00049080       atexit                     000000018004a080 f   MSVCRT:utility.obj
 0001:00049098       __scrt_get_dyn_tls_init_callback 000000018004a098 f   MSVCRT:dyn_tls_init.obj
 0001:000490a0       __crt_debugger_hook        000000018004a0a0 f   MSVCRT:utility_desktop.obj
 0001:000490a8       __scrt_fastfail            000000018004a0a8 f   MSVCRT:utility_desktop.obj
 0001:000491f4       __scrt_get_show_window_mode 000000018004a1f4 f   MSVCRT:utility_desktop.obj
 0001:00049230       __scrt_initialize_mta      000000018004a230 f   MSVCRT:utility_desktop.obj
 0001:00049238       __scrt_initialize_winrt    000000018004a238 f   MSVCRT:utility_desktop.obj
 0001:0004923c       __scrt_is_managed_app      000000018004a23c f   MSVCRT:utility_desktop.obj
 0001:00049290       __scrt_set_unhandled_exception_filter 000000018004a290 f   MSVCRT:utility_desktop.obj
 0001:000492a0       __scrt_exe_initialize_mta  000000018004a2a0 f   MSVCRT:utility_desktop.obj
 0001:000492a0       __scrt_stub_for_initialize_mta 000000018004a2a0 f   MSVCRT:utility_desktop.obj
 0001:000492a4       __scrt_unhandled_exception_filter 000000018004a2a4 f   MSVCRT:utility_desktop.obj
 0001:00049300       _RTC_Initialize            000000018004a300 f   MSVCRT:initsect.obj
 0001:0004933c       _RTC_Terminate             000000018004a33c f   MSVCRT:initsect.obj
 0001:00049378       _guard_check_icall_nop     000000018004a378 f i MSVCRT:guard_support.obj
 0001:0004937c       ReadNoFence64              000000018004a37c f i MSVCRT:guard_support.obj
 0001:00049380       ReadPointerNoFence         000000018004a380 f i MSVCRT:guard_support.obj
 0001:00049384       __castguard_check_failure_debugbreak 000000018004a384 f i MSVCRT:guard_support.obj
 0001:000493a0       __castguard_check_failure_fastfail 000000018004a3a0 f i MSVCRT:guard_support.obj
 0001:000493c4       __castguard_check_failure_nop 000000018004a3c4 f i MSVCRT:guard_support.obj
 0001:000493c8       __castguard_check_failure_os_handled 000000018004a3c8 f i MSVCRT:guard_support.obj
 0001:00049444       __castguard_slow_path_check_debugbreak 000000018004a444 f i MSVCRT:guard_support.obj
 0001:00049478       __castguard_slow_path_check_fastfail 000000018004a478 f i MSVCRT:guard_support.obj
 0001:000494b4       __castguard_slow_path_check_nop 000000018004a4b4 f i MSVCRT:guard_support.obj
 0001:000494b8       __castguard_slow_path_check_os_handled 000000018004a4b8 f i MSVCRT:guard_support.obj
 0001:00049528       _guard_icall_checks_enforced 000000018004a528 f i MSVCRT:guard_support.obj
 0001:00049540       _guard_rf_checks_enforced  000000018004a540 f i MSVCRT:guard_support.obj
 0001:00049544       __isa_available_init       000000018004a544 f   MSVCRT:cpu_disp.obj
 0001:000496f0       _get_startup_argv_mode     000000018004a6f0 f   MSVCRT:argv_mode.obj
 0001:000496f8       __scrt_is_ucrt_dll_in_use  000000018004a6f8 f   MSVCRT:ucrt_detection.obj
 0001:00049710       ?_Xlength_error@std@@YAXPEBD@Z 000000018004a710 f   msvcprt:MSVCP140.dll
 0001:00049716       ?uncaught_exception@std@@YA_NXZ 000000018004a716 f   msvcprt:MSVCP140.dll
 0001:0004971c       ?good@ios_base@std@@QEBA_NXZ 000000018004a71c f   msvcprt:MSVCP140.dll
 0001:00049722       ?flags@ios_base@std@@QEBAHXZ 000000018004a722 f   msvcprt:MSVCP140.dll
 0001:00049728       ?width@ios_base@std@@QEBA_JXZ 000000018004a728 f   msvcprt:MSVCP140.dll
 0001:0004972e       ?width@ios_base@std@@QEAA_J_J@Z 000000018004a72e f   msvcprt:MSVCP140.dll
 0001:00049734       ?sputc@?$basic_streambuf@DU?$char_traits@D@std@@@std@@QEAAHD@Z 000000018004a734 f   msvcprt:MSVCP140.dll
 0001:0004973a       ?sputn@?$basic_streambuf@DU?$char_traits@D@std@@@std@@QEAA_JPEBD_J@Z 000000018004a73a f   msvcprt:MSVCP140.dll
 0001:00049740       ?setstate@?$basic_ios@DU?$char_traits@D@std@@@std@@QEAAXH_N@Z 000000018004a740 f   msvcprt:MSVCP140.dll
 0001:00049746       ?tie@?$basic_ios@DU?$char_traits@D@std@@@std@@QEBAPEAV?$basic_ostream@DU?$char_traits@D@std@@@2@XZ 000000018004a746 f   msvcprt:MSVCP140.dll
 0001:0004974c       ?rdbuf@?$basic_ios@DU?$char_traits@D@std@@@std@@QEBAPEAV?$basic_streambuf@DU?$char_traits@D@std@@@2@XZ 000000018004a74c f   msvcprt:MSVCP140.dll
 0001:00049752       ?fill@?$basic_ios@DU?$char_traits@D@std@@@std@@QEBADXZ 000000018004a752 f   msvcprt:MSVCP140.dll
 0001:00049758       ?widen@?$basic_ios@DU?$char_traits@D@std@@@std@@QEBADD@Z 000000018004a758 f   msvcprt:MSVCP140.dll
 0001:0004975e       ?_Osfx@?$basic_ostream@DU?$char_traits@D@std@@@std@@QEAAXXZ 000000018004a75e f   msvcprt:MSVCP140.dll
 0001:00049764       ??6?$basic_ostream@DU?$char_traits@D@std@@@std@@QEAAAEAV01@P6AAEAV01@AEAV01@@Z@Z 000000018004a764 f   msvcprt:MSVCP140.dll
 0001:0004976a       ?put@?$basic_ostream@DU?$char_traits@D@std@@@std@@QEAAAEAV12@D@Z 000000018004a76a f   msvcprt:MSVCP140.dll
 0001:00049770       ?flush@?$basic_ostream@DU?$char_traits@D@std@@@std@@QEAAAEAV12@XZ 000000018004a770 f   msvcprt:MSVCP140.dll
 0001:00049776       RtlCaptureContext          000000018004a776 f   kernel32:KERNEL32.dll
 0001:0004977c       RtlLookupFunctionEntry     000000018004a77c f   kernel32:KERNEL32.dll
 0001:00049782       RtlVirtualUnwind           000000018004a782 f   kernel32:KERNEL32.dll
 0001:00049788       UnhandledExceptionFilter   000000018004a788 f   kernel32:KERNEL32.dll
 0001:0004978e       SetUnhandledExceptionFilter 000000018004a78e f   kernel32:KERNEL32.dll
 0001:00049794       GetCurrentProcess          000000018004a794 f   kernel32:KERNEL32.dll
 0001:0004979a       TerminateProcess           000000018004a79a f   kernel32:KERNEL32.dll
 0001:000497a0       IsProcessorFeaturePresent  000000018004a7a0 f   kernel32:KERNEL32.dll
 0001:000497a6       QueryPerformanceCounter    000000018004a7a6 f   kernel32:KERNEL32.dll
 0001:000497ac       GetCurrentProcessId        000000018004a7ac f   kernel32:KERNEL32.dll
 0001:000497b2       GetCurrentThreadId         000000018004a7b2 f   kernel32:KERNEL32.dll
 0001:000497b8       GetSystemTimeAsFileTime    000000018004a7b8 f   kernel32:KERNEL32.dll
 0001:000497be       DisableThreadLibraryCalls  000000018004a7be f   kernel32:KERNEL32.dll
 0001:000497c4       InitializeSListHead        000000018004a7c4 f   kernel32:KERNEL32.dll
 0001:000497ca       IsDebuggerPresent          000000018004a7ca f   kernel32:KERNEL32.dll
 0001:000497d0       GetStartupInfoW            000000018004a7d0 f   kernel32:KERNEL32.dll
 0001:000497d6       GetModuleHandleW           000000018004a7d6 f   kernel32:KERNEL32.dll
 0001:000497dc       memcpy                     000000018004a7dc f   vcruntime:VCRUNTIME140.dll
 0001:000497e2       memmove                    000000018004a7e2 f   vcruntime:VCRUNTIME140.dll
 0001:000497e8       memset                     000000018004a7e8 f   vcruntime:VCRUNTIME140.dll
 0001:000497ee       __std_exception_copy       000000018004a7ee f   vcruntime:VCRUNTIME140.dll
 0001:000497f4       __std_exception_destroy    000000018004a7f4 f   vcruntime:VCRUNTIME140.dll
 0001:000497fa       _CxxThrowException         000000018004a7fa f   vcruntime:VCRUNTIME140.dll
 0001:00049800       __CxxFrameHandler4         000000018004a800 f   vcruntime:VCRUNTIME140_1.dll
 0001:00049806       __C_specific_handler       000000018004a806 f   vcruntime:VCRUNTIME140.dll
 0001:0004980c       __std_type_info_destroy_list 000000018004a80c f   vcruntime:VCRUNTIME140.dll
 0001:00049812       __current_exception        000000018004a812 f   vcruntime:VCRUNTIME140.dll
 0001:00049818       __current_exception_context 000000018004a818 f   vcruntime:VCRUNTIME140.dll
 0001:0004981e       calloc                     000000018004a81e f   ucrt:api-ms-win-crt-heap-l1-1-0.dll
 0001:00049824       free                       000000018004a824 f   ucrt:api-ms-win-crt-heap-l1-1-0.dll
 0001:0004982a       strcmp                     000000018004a82a f   ucrt:api-ms-win-crt-string-l1-1-0.dll
 0001:00049830       strlen                     000000018004a830 f   ucrt:api-ms-win-crt-string-l1-1-0.dll
 0001:00049836       __stdio_common_vsprintf    000000018004a836 f   ucrt:api-ms-win-crt-stdio-l1-1-0.dll
 0001:0004983c       malloc                     000000018004a83c f   ucrt:api-ms-win-crt-heap-l1-1-0.dll
 0001:00049842       fabs                       000000018004a842 f   ucrt:api-ms-win-crt-math-l1-1-0.dll
 0001:00049848       sqrt                       000000018004a848 f   ucrt:api-ms-win-crt-math-l1-1-0.dll
 0001:0004984e       realloc                    000000018004a84e f   ucrt:api-ms-win-crt-heap-l1-1-0.dll
 0001:00049854       qsort                      000000018004a854 f   ucrt:api-ms-win-crt-utility-l1-1-0.dll
 0001:0004985a       fmin                       000000018004a85a f   ucrt:api-ms-win-crt-math-l1-1-0.dll
 0001:00049860       fclose                     000000018004a860 f   ucrt:api-ms-win-crt-stdio-l1-1-0.dll
 0001:00049866       fopen                      000000018004a866 f   ucrt:api-ms-win-crt-stdio-l1-1-0.dll
 0001:0004986c       __stdio_common_vfprintf    000000018004a86c f   ucrt:api-ms-win-crt-stdio-l1-1-0.dll
 0001:00049872       _invalid_parameter_noinfo_noreturn 000000018004a872 f   ucrt:api-ms-win-crt-runtime-l1-1-0.dll
 0001:00049878       strcpy                     000000018004a878 f   ucrt:api-ms-win-crt-string-l1-1-0.dll
 0001:0004987e       _callnewh                  000000018004a87e f   ucrt:api-ms-win-crt-heap-l1-1-0.dll
 0001:00049884       _initterm                  000000018004a884 f   ucrt:api-ms-win-crt-runtime-l1-1-0.dll
 0001:0004988a       _initterm_e                000000018004a88a f   ucrt:api-ms-win-crt-runtime-l1-1-0.dll
 0001:00049890       _seh_filter_dll            000000018004a890 f   ucrt:api-ms-win-crt-runtime-l1-1-0.dll
 0001:00049896       _configure_narrow_argv     000000018004a896 f   ucrt:api-ms-win-crt-runtime-l1-1-0.dll
 0001:0004989c       _initialize_narrow_environment 000000018004a89c f   ucrt:api-ms-win-crt-runtime-l1-1-0.dll
 0001:000498a2       _initialize_onexit_table   000000018004a8a2 f   ucrt:api-ms-win-crt-runtime-l1-1-0.dll
 0001:000498a8       _register_onexit_function  000000018004a8a8 f   ucrt:api-ms-win-crt-runtime-l1-1-0.dll
 0001:000498ae       _execute_onexit_table      000000018004a8ae f   ucrt:api-ms-win-crt-runtime-l1-1-0.dll
 0001:000498b4       _crt_atexit                000000018004a8b4 f   ucrt:api-ms-win-crt-runtime-l1-1-0.dll
 0001:000498ba       _crt_at_quick_exit         000000018004a8ba f   ucrt:api-ms-win-crt-runtime-l1-1-0.dll
 0001:000498c0       _cexit                     000000018004a8c0 f   ucrt:api-ms-win-crt-runtime-l1-1-0.dll
 0001:000498c6       terminate                  000000018004a8c6 f   ucrt:api-ms-win-crt-runtime-l1-1-0.dll
 0001:000498cc       __scrt_stub_for_acrt_initialize 000000018004a8cc f   MSVCRT:ucrt_stubs.obj
 0001:000498cc       __acrt_initialize          000000018004a8cc f   MSVCRT:ucrt_stubs.obj
 0001:000498cc       __vcrt_initialize          000000018004a8cc f   MSVCRT:ucrt_stubs.obj
 0001:000498d0       __scrt_stub_for_acrt_thread_attach 000000018004a8d0 f   MSVCRT:ucrt_stubs.obj
 0001:000498d0       __acrt_thread_attach       000000018004a8d0 f   MSVCRT:ucrt_stubs.obj
 0001:000498d0       __vcrt_thread_attach       000000018004a8d0 f   MSVCRT:ucrt_stubs.obj
 0001:000498d4       __vcrt_thread_detach       000000018004a8d4 f   MSVCRT:ucrt_stubs.obj
 0001:000498d4       __scrt_stub_for_acrt_thread_detach 000000018004a8d4 f   MSVCRT:ucrt_stubs.obj
 0001:000498d4       __acrt_thread_detach       000000018004a8d4 f   MSVCRT:ucrt_stubs.obj
 0001:000498d8       __acrt_uninitialize        000000018004a8d8 f   MSVCRT:ucrt_stubs.obj
 0001:000498d8       __scrt_stub_for_acrt_uninitialize 000000018004a8d8 f   MSVCRT:ucrt_stubs.obj
 0001:000498d8       __vcrt_uninitialize        000000018004a8d8 f   MSVCRT:ucrt_stubs.obj
 0001:000498dc       __acrt_uninitialize_critical 000000018004a8dc f   MSVCRT:ucrt_stubs.obj
 0001:000498dc       __scrt_stub_for_acrt_uninitialize_critical 000000018004a8dc f   MSVCRT:ucrt_stubs.obj
 0001:000498dc       __vcrt_uninitialize_critical 000000018004a8dc f   MSVCRT:ucrt_stubs.obj
 0001:000498e0       __scrt_stub_for_is_c_termination_complete 000000018004a8e0 f   MSVCRT:ucrt_stubs.obj
 0001:000498e0       _is_c_termination_complete 000000018004a8e0 f   MSVCRT:ucrt_stubs.obj
 0001:00049900       _guard_dispatch_icall_nop  000000018004a900 f   MSVCRT:guard_dispatch.obj
 0001:00049920       _guard_xfg_dispatch_icall_nop 000000018004a920 f   MSVCRT:guard_xfg_dispatch.obj
 0002:00000000       __imp_RtlCaptureContext    000000018004c000     kernel32:KERNEL32.dll
 0002:00000008       __imp_GetStartupInfoW      000000018004c008     kernel32:KERNEL32.dll
 0002:00000010       __imp_IsDebuggerPresent    000000018004c010     kernel32:KERNEL32.dll
 0002:00000018       __imp_InitializeSListHead  000000018004c018     kernel32:KERNEL32.dll
 0002:00000020       __imp_DisableThreadLibraryCalls 000000018004c020     kernel32:KERNEL32.dll
 0002:00000028       __imp_GetSystemTimeAsFileTime 000000018004c028     kernel32:KERNEL32.dll
 0002:00000030       __imp_GetCurrentThreadId   000000018004c030     kernel32:KERNEL32.dll
 0002:00000038       __imp_GetCurrentProcessId  000000018004c038     kernel32:KERNEL32.dll
 0002:00000040       __imp_QueryPerformanceCounter 000000018004c040     kernel32:KERNEL32.dll
 0002:00000048       __imp_IsProcessorFeaturePresent 000000018004c048     kernel32:KERNEL32.dll
 0002:00000050       __imp_TerminateProcess     000000018004c050     kernel32:KERNEL32.dll
 0002:00000058       __imp_GetCurrentProcess    000000018004c058     kernel32:KERNEL32.dll
 0002:00000060       __imp_SetUnhandledExceptionFilter 000000018004c060     kernel32:KERNEL32.dll
 0002:00000068       __imp_UnhandledExceptionFilter 000000018004c068     kernel32:KERNEL32.dll
 0002:00000070       __imp_RtlVirtualUnwind     000000018004c070     kernel32:KERNEL32.dll
 0002:00000078       __imp_RtlLookupFunctionEntry 000000018004c078     kernel32:KERNEL32.dll
 0002:00000080       __imp_GetModuleHandleW     000000018004c080     kernel32:KERNEL32.dll
 0002:00000088       \177KERNEL32_NULL_THUNK_DATA 000000018004c088     kernel32:KERNEL32.dll
 0002:00000090       __imp_?flush@?$basic_ostream@DU?$char_traits@D@std@@@std@@QEAAAEAV12@XZ 000000018004c090     msvcprt:MSVCP140.dll
 0002:00000098       __imp_?put@?$basic_ostream@DU?$char_traits@D@std@@@std@@QEAAAEAV12@D@Z 000000018004c098     msvcprt:MSVCP140.dll
 0002:000000a0       __imp_??6?$basic_ostream@DU?$char_traits@D@std@@@std@@QEAAAEAV01@P6AAEAV01@AEAV01@@Z@Z 000000018004c0a0     msvcprt:MSVCP140.dll
 0002:000000a8       __imp_?_Osfx@?$basic_ostream@DU?$char_traits@D@std@@@std@@QEAAXXZ 000000018004c0a8     msvcprt:MSVCP140.dll
 0002:000000b0       __imp_?widen@?$basic_ios@DU?$char_traits@D@std@@@std@@QEBADD@Z 000000018004c0b0     msvcprt:MSVCP140.dll
 0002:000000b8       __imp_?_Xlength_error@std@@YAXPEBD@Z 000000018004c0b8     msvcprt:MSVCP140.dll
 0002:000000c0       __imp_?uncaught_exception@std@@YA_NXZ 000000018004c0c0     msvcprt:MSVCP140.dll
 0002:000000c8       __imp_?good@ios_base@std@@QEBA_NXZ 000000018004c0c8     msvcprt:MSVCP140.dll
 0002:000000d0       __imp_?flags@ios_base@std@@QEBAHXZ 000000018004c0d0     msvcprt:MSVCP140.dll
 0002:000000d8       __imp_?width@ios_base@std@@QEBA_JXZ 000000018004c0d8     msvcprt:MSVCP140.dll
 0002:000000e0       __imp_?width@ios_base@std@@QEAA_J_J@Z 000000018004c0e0     msvcprt:MSVCP140.dll
 0002:000000e8       __imp_?sputc@?$basic_streambuf@DU?$char_traits@D@std@@@std@@QEAAHD@Z 000000018004c0e8     msvcprt:MSVCP140.dll
 0002:000000f0       __imp_?sputn@?$basic_streambuf@DU?$char_traits@D@std@@@std@@QEAA_JPEBD_J@Z 000000018004c0f0     msvcprt:MSVCP140.dll
 0002:000000f8       __imp_?setstate@?$basic_ios@DU?$char_traits@D@std@@@std@@QEAAXH_N@Z 000000018004c0f8     msvcprt:MSVCP140.dll
 0002:00000100       __imp_?tie@?$basic_ios@DU?$char_traits@D@std@@@std@@QEBAPEAV?$basic_ostream@DU?$char_traits@D@std@@@2@XZ 000000018004c100     msvcprt:MSVCP140.dll
 0002:00000108       __imp_?cout@std@@3V?$basic_ostream@DU?$char_traits@D@std@@@1@A 000000018004c108     msvcprt:MSVCP140.dll
 0002:00000110       __imp_?fill@?$basic_ios@DU?$char_traits@D@std@@@std@@QEBADXZ 000000018004c110     msvcprt:MSVCP140.dll
 0002:00000118       __imp_?rdbuf@?$basic_ios@DU?$char_traits@D@std@@@std@@QEBAPEAV?$basic_streambuf@DU?$char_traits@D@std@@@2@XZ 000000018004c118     msvcprt:MSVCP140.dll
 0002:00000120       \177MSVCP140_NULL_THUNK_DATA 000000018004c120     msvcprt:MSVCP140.dll
 0002:00000128       __imp___std_exception_copy 000000018004c128     vcruntime:VCRUNTIME140.dll
 0002:00000130       __imp___std_exception_destroy 000000018004c130     vcruntime:VCRUNTIME140.dll
 0002:00000138       __imp__CxxThrowException   000000018004c138     vcruntime:VCRUNTIME140.dll
 0002:00000140       __imp_memset               000000018004c140     vcruntime:VCRUNTIME140.dll
 0002:00000148       __imp_memcpy               000000018004c148     vcruntime:VCRUNTIME140.dll
 0002:00000150       __imp___C_specific_handler 000000018004c150     vcruntime:VCRUNTIME140.dll
 0002:00000158       __imp___std_type_info_destroy_list 000000018004c158     vcruntime:VCRUNTIME140.dll
 0002:00000160       __imp___current_exception  000000018004c160     vcruntime:VCRUNTIME140.dll
 0002:00000168       __imp___current_exception_context 000000018004c168     vcruntime:VCRUNTIME140.dll
 0002:00000170       __imp_memmove              000000018004c170     vcruntime:VCRUNTIME140.dll
 0002:00000178       \177VCRUNTIME140_NULL_THUNK_DATA 000000018004c178     vcruntime:VCRUNTIME140.dll
 0002:00000180       __imp___CxxFrameHandler4   000000018004c180     vcruntime:VCRUNTIME140_1.dll
 0002:00000188       \177VCRUNTIME140_1_NULL_THUNK_DATA 000000018004c188     vcruntime:VCRUNTIME140_1.dll
 0002:00000190       __imp_malloc               000000018004c190     ucrt:api-ms-win-crt-heap-l1-1-0.dll
 0002:00000198       __imp__callnewh            000000018004c198     ucrt:api-ms-win-crt-heap-l1-1-0.dll
 0002:000001a0       __imp_realloc              000000018004c1a0     ucrt:api-ms-win-crt-heap-l1-1-0.dll
 0002:000001a8       __imp_free                 000000018004c1a8     ucrt:api-ms-win-crt-heap-l1-1-0.dll
 0002:000001b0       __imp_calloc               000000018004c1b0     ucrt:api-ms-win-crt-heap-l1-1-0.dll
 0002:000001b8       \177api-ms-win-crt-heap-l1-1-0_NULL_THUNK_DATA 000000018004c1b8     ucrt:api-ms-win-crt-heap-l1-1-0.dll
 0002:000001c0       __imp_sqrt                 000000018004c1c0     ucrt:api-ms-win-crt-math-l1-1-0.dll
 0002:000001c8       __imp_fabs                 000000018004c1c8     ucrt:api-ms-win-crt-math-l1-1-0.dll
 0002:000001d0       __imp_fmin                 000000018004c1d0     ucrt:api-ms-win-crt-math-l1-1-0.dll
 0002:000001d8       \177api-ms-win-crt-math-l1-1-0_NULL_THUNK_DATA 000000018004c1d8     ucrt:api-ms-win-crt-math-l1-1-0.dll
 0002:000001e0       __imp__configure_narrow_argv 000000018004c1e0     ucrt:api-ms-win-crt-runtime-l1-1-0.dll
 0002:000001e8       __imp__initterm            000000018004c1e8     ucrt:api-ms-win-crt-runtime-l1-1-0.dll
 0002:000001f0       __imp__initterm_e          000000018004c1f0     ucrt:api-ms-win-crt-runtime-l1-1-0.dll
 0002:000001f8       __imp__initialize_narrow_environment 000000018004c1f8     ucrt:api-ms-win-crt-runtime-l1-1-0.dll
 0002:00000200       __imp__initialize_onexit_table 000000018004c200     ucrt:api-ms-win-crt-runtime-l1-1-0.dll
 0002:00000208       __imp__register_onexit_function 000000018004c208     ucrt:api-ms-win-crt-runtime-l1-1-0.dll
 0002:00000210       __imp__execute_onexit_table 000000018004c210     ucrt:api-ms-win-crt-runtime-l1-1-0.dll
 0002:00000218       __imp__crt_atexit          000000018004c218     ucrt:api-ms-win-crt-runtime-l1-1-0.dll
 0002:00000220       __imp__crt_at_quick_exit   000000018004c220     ucrt:api-ms-win-crt-runtime-l1-1-0.dll
 0002:00000228       __imp__cexit               000000018004c228     ucrt:api-ms-win-crt-runtime-l1-1-0.dll
 0002:00000230       __imp_terminate            000000018004c230     ucrt:api-ms-win-crt-runtime-l1-1-0.dll
 0002:00000238       __imp__invalid_parameter_noinfo_noreturn 000000018004c238     ucrt:api-ms-win-crt-runtime-l1-1-0.dll
 0002:00000240       __imp__seh_filter_dll      000000018004c240     ucrt:api-ms-win-crt-runtime-l1-1-0.dll
 0002:00000248       \177api-ms-win-crt-runtime-l1-1-0_NULL_THUNK_DATA 000000018004c248     ucrt:api-ms-win-crt-runtime-l1-1-0.dll
 0002:00000250       __imp___stdio_common_vfprintf 000000018004c250     ucrt:api-ms-win-crt-stdio-l1-1-0.dll
 0002:00000258       __imp_fclose               000000018004c258     ucrt:api-ms-win-crt-stdio-l1-1-0.dll
 0002:00000260       __imp_fopen                000000018004c260     ucrt:api-ms-win-crt-stdio-l1-1-0.dll
 0002:00000268       __imp___stdio_common_vsprintf 000000018004c268     ucrt:api-ms-win-crt-stdio-l1-1-0.dll
 0002:00000270       \177api-ms-win-crt-stdio-l1-1-0_NULL_THUNK_DATA 000000018004c270     ucrt:api-ms-win-crt-stdio-l1-1-0.dll
 0002:00000278       __imp_strcpy               000000018004c278     ucrt:api-ms-win-crt-string-l1-1-0.dll
 0002:00000280       __imp_strlen               000000018004c280     ucrt:api-ms-win-crt-string-l1-1-0.dll
 0002:00000288       __imp_strcmp               000000018004c288     ucrt:api-ms-win-crt-string-l1-1-0.dll
 0002:00000290       \177api-ms-win-crt-string-l1-1-0_NULL_THUNK_DATA 000000018004c290     ucrt:api-ms-win-crt-string-l1-1-0.dll
 0002:00000298       __imp_qsort                000000018004c298     ucrt:api-ms-win-crt-utility-l1-1-0.dll
 0002:000002a0       \177api-ms-win-crt-utility-l1-1-0_NULL_THUNK_DATA 000000018004c2a0     ucrt:api-ms-win-crt-utility-l1-1-0.dll
 0002:000002a8       __imp_emlrtLicenseCheckR2022a 000000018004c2a8     libemlrt:libemlrt.dll
 0002:000002b0       __imp_emlrtSubAssignSizeCheck1dR2017a 000000018004c2b0     libemlrt:libemlrt.dll
 0002:000002b8       __imp_emlrtSubAssignSizeCheckR2012b 000000018004c2b8     libemlrt:libemlrt.dll
 0002:000002c0       __imp_emlrtInitCharArrayR2013a 000000018004c2c0     libemlrt:libemlrt.dll
 0002:000002c8       __imp_emlrtFreeMex         000000018004c2c8     libemlrt:libemlrt.dll
 0002:000002d0       __imp_emlrtCallocMex       000000018004c2d0     libemlrt:libemlrt.dll
 0002:000002d8       __imp_emlrtAssign          000000018004c2d8     libemlrt:libemlrt.dll
 0002:000002e0       __imp_emlrtCallMATLABR2012b 000000018004c2e0     libemlrt:libemlrt.dll
 0002:000002e8       __imp_emlrtForLoopVectorCheckR2021a 000000018004c2e8     libemlrt:libemlrt.dll
 0002:000002f0       __imp_emlrtNonNegativeCheckR2012b 000000018004c2f0     libemlrt:libemlrt.dll
 0002:000002f8       __imp_emlrtIntegerCheckR2012b 000000018004c2f8     libemlrt:libemlrt.dll
 0002:00000300       __imp_emlrtCreateCharArray 000000018004c300     libemlrt:libemlrt.dll
 0002:00000308       __imp_emlrtCreateDoubleScalar 000000018004c308     libemlrt:libemlrt.dll
 0002:00000310       __imp_emlrtDynamicBoundsCheckR2012b 000000018004c310     libemlrt:libemlrt.dll
 0002:00000318       __imp_emlrtMallocMex       000000018004c318     libemlrt:libemlrt.dll
 0002:00000320       \177libemlrt_NULL_THUNK_DATA 000000018004c320     libemlrt:libemlrt.dll
 0002:00000328       __imp_mexUnlock_800        000000018004c328     libmex:libmex.dll
 0002:00000330       __imp_mexWarnMsgTxt_800    000000018004c330     libmex:libmex.dll
 0002:00000338       __imp_mexIsLocked_800      000000018004c338     libmex:libmex.dll
 0002:00000340       __imp_mexPrintf_800        000000018004c340     libmex:libmex.dll
 0002:00000348       __imp_mexCallMATLAB_800    000000018004c348     libmex:libmex.dll
 0002:00000350       \177libmex_NULL_THUNK_DATA 000000018004c350     libmex:libmex.dll
 0002:00000358       __imp_dgemm                000000018004c358     libmwblas:libmwblas.dll
 0002:00000360       \177libmwblas_NULL_THUNK_DATA 000000018004c360     libmwblas:libmwblas.dll
 0002:00000368       __imp_cgxertGetEMLRTCtx    000000018004c368     libmwcgxert:libmwcgxert.dll
 0002:00000370       __imp_cgxertSetSimStateCompliance 000000018004c370     libmwcgxert:libmwcgxert.dll
 0002:00000378       __imp_cgxertSetRuntimeInstance 000000018004c378     libmwcgxert:libmwcgxert.dll
 0002:00000380       __imp_cgxertGetOutputPortSignal 000000018004c380     libmwcgxert:libmwcgxert.dll
 0002:00000388       __imp_cgxertSetGcb         000000018004c388     libmwcgxert:libmwcgxert.dll
 0002:00000390       __imp_cgxertRestoreGcb     000000018004c390     libmwcgxert:libmwcgxert.dll
 0002:00000398       __imp_cgxertGetInputPortSignal 000000018004c398     libmwcgxert:libmwcgxert.dll
 0002:000003a0       __imp_cgxertGetRuntimeInstance 000000018004c3a0     libmwcgxert:libmwcgxert.dll
 0002:000003a8       \177libmwcgxert_NULL_THUNK_DATA 000000018004c3a8     libmwcgxert:libmwcgxert.dll
 0002:000003b0       __imp_muDoubleScalarIsNaN  000000018004c3b0     libmwmathutil:libmwmathutil.dll
 0002:000003b8       __imp_muDoubleScalarSqrt   000000018004c3b8     libmwmathutil:libmwmathutil.dll
 0002:000003c0       __imp_muDoubleScalarSin    000000018004c3c0     libmwmathutil:libmwmathutil.dll
 0002:000003c8       __imp_muDoubleScalarAbs    000000018004c3c8     libmwmathutil:libmwmathutil.dll
 0002:000003d0       __imp_muDoubleScalarMax    000000018004c3d0     libmwmathutil:libmwmathutil.dll
 0002:000003d8       __imp_muDoubleScalarCos    000000018004c3d8     libmwmathutil:libmwmathutil.dll
 0002:000003e0       __imp_muDoubleScalarFloor  000000018004c3e0     libmwmathutil:libmwmathutil.dll
 0002:000003e8       __imp_muDoubleScalarIsInf  000000018004c3e8     libmwmathutil:libmwmathutil.dll
 0002:000003f0       \177libmwmathutil_NULL_THUNK_DATA 000000018004c3f0     libmwmathutil:libmwmathutil.dll
 0002:000003f8       __imp_mxCreateNumericMatrix_800 000000018004c3f8     libmx:libmx.dll
 0002:00000400       __imp_mxCreateDoubleScalar_800 000000018004c400     libmx:libmx.dll
 0002:00000408       __imp_mxSetField_800       000000018004c408     libmx:libmx.dll
 0002:00000410       __imp_mxGetPr_800          000000018004c410     libmx:libmx.dll
 0002:00000418       __imp_mxGetN_800           000000018004c418     libmx:libmx.dll
 0002:00000420       __imp_mxIsComplex_800      000000018004c420     libmx:libmx.dll
 0002:00000428       __imp_mxIsChar_800         000000018004c428     libmx:libmx.dll
 0002:00000430       __imp_mxIsNumeric_800      000000018004c430     libmx:libmx.dll
 0002:00000438       __imp_mxGetData_800        000000018004c438     libmx:libmx.dll
 0002:00000440       __imp_mxGetClassID_800     000000018004c440     libmx:libmx.dll
 0002:00000448       __imp_mxGetM_800           000000018004c448     libmx:libmx.dll
 0002:00000450       __imp_mxCalloc_800         000000018004c450     libmx:libmx.dll
 0002:00000458       __imp_mxGetNaN_800         000000018004c458     libmx:libmx.dll
 0002:00000460       __imp_mxCreateStructMatrix_800 000000018004c460     libmx:libmx.dll
 0002:00000468       __imp_mxCreateCellMatrix_800 000000018004c468     libmx:libmx.dll
 0002:00000470       __imp_mxCreateString_800   000000018004c470     libmx:libmx.dll
 0002:00000478       __imp_mxGetString_800      000000018004c478     libmx:libmx.dll
 0002:00000480       __imp_mxCreateDoubleMatrix_800 000000018004c480     libmx:libmx.dll
 0002:00000488       __imp_mxSetFieldByNumber_800 000000018004c488     libmx:libmx.dll
 0002:00000490       __imp_mxSetCell_800        000000018004c490     libmx:libmx.dll
 0002:00000498       \177libmx_NULL_THUNK_DATA  000000018004c498     libmx:libmx.dll
 0002:000004a0       __guard_check_icall_fptr   000000018004c4a0     MSVCRT:guard_support.obj
 0002:000004a8       __guard_xfg_check_icall_fptr 000000018004c4a8     MSVCRT:guard_support.obj
 0002:000004b0       __guard_dispatch_icall_fptr 000000018004c4b0     MSVCRT:guard_support.obj
 0002:000004b8       __guard_xfg_dispatch_icall_fptr 000000018004c4b8     MSVCRT:guard_support.obj
 0002:000004c0       __guard_xfg_table_dispatch_icall_fptr 000000018004c4c0     MSVCRT:guard_support.obj
 0002:000004c8       __castguard_check_failure_os_handled_fptr 000000018004c4c8     MSVCRT:guard_support.obj
 0002:000004d0       __guard_memcpy_fptr        000000018004c4d0     vcruntime:softmemtag.obj
 0002:000004d8       __xc_a                     000000018004c4d8     MSVCRT:initializers.obj
 0002:000004e0       __xc_z                     000000018004c4e0     MSVCRT:initializers.obj
 0002:000004e8       __xi_a                     000000018004c4e8     MSVCRT:initializers.obj
 0002:000004f0       __xi_z                     000000018004c4f0     MSVCRT:initializers.obj
 0002:000004f8       __xp_a                     000000018004c4f8     MSVCRT:initializers.obj
 0002:00000500       __xp_z                     000000018004c500     MSVCRT:initializers.obj
 0002:00000508       __xt_a                     000000018004c508     MSVCRT:initializers.obj
 0002:00000510       __xt_z                     000000018004c510     MSVCRT:initializers.obj
 0002:000005f0       __real@0000000000000000    000000018004c5f0     m_FAU8KyrDQYUp9atreb3T4G.obj
 0002:000005f8       __real@3cc0000000000000    000000018004c5f8     m_FAU8KyrDQYUp9atreb3T4G.obj
 0002:00000600       __real@3fe0000000000000    000000018004c600     m_FAU8KyrDQYUp9atreb3T4G.obj
 0002:00000608       __real@3ff0000000000000    000000018004c608     m_FAU8KyrDQYUp9atreb3T4G.obj
 0002:00000610       __real@4000000000000000    000000018004c610     m_FAU8KyrDQYUp9atreb3T4G.obj
 0002:00000618       __real@4008000000000000    000000018004c618     m_FAU8KyrDQYUp9atreb3T4G.obj
 0002:00000620       __real@4010000000000000    000000018004c620     m_FAU8KyrDQYUp9atreb3T4G.obj
 0002:00000628       __real@4014000000000000    000000018004c628     m_FAU8KyrDQYUp9atreb3T4G.obj
 0002:00000630       __real@4018000000000000    000000018004c630     m_FAU8KyrDQYUp9atreb3T4G.obj
 0002:00000638       __real@401c000000000000    000000018004c638     m_FAU8KyrDQYUp9atreb3T4G.obj
 0002:00000640       __real@4020000000000000    000000018004c640     m_FAU8KyrDQYUp9atreb3T4G.obj
 0002:00000648       __real@41dfffffffc00000    000000018004c648     m_FAU8KyrDQYUp9atreb3T4G.obj
 0002:00000650       __real@bff0000000000000    000000018004c650     m_FAU8KyrDQYUp9atreb3T4G.obj
 0002:00000660       __xmm@80000000000000008000000000000000 000000018004c660     m_FAU8KyrDQYUp9atreb3T4G.obj
 0002:00000670       __xmm@bff0000000000000bff0000000000000 000000018004c670     m_FAU8KyrDQYUp9atreb3T4G.obj
 0002:00000780       DYNAMIC_DIMENSION_DEF      000000018004c780     CTM_PID_withoutG_cgxe_registry.obj
 0002:00000798       __real@41602cbca0000000    000000018004c798     CTM_PID_withoutG_cgxe_registry.obj
 0002:000007a0       __real@41b417485a000000    000000018004c7a0     CTM_PID_withoutG_cgxe_registry.obj
 0002:000007a8       __real@41c27673b8000000    000000018004c7a8     CTM_PID_withoutG_cgxe_registry.obj
 0002:000007b0       __real@41c96eef2c000000    000000018004c7b0     CTM_PID_withoutG_cgxe_registry.obj
 0002:000007b8       __real@41caad43e2000000    000000018004c7b8     CTM_PID_withoutG_cgxe_registry.obj
 0002:000007c0       __real@41cf5a4bad800000    000000018004c7c0     CTM_PID_withoutG_cgxe_registry.obj
 0002:000007c8       __real@41dbb9bcd3400000    000000018004c7c8     CTM_PID_withoutG_cgxe_registry.obj
 0002:000007d0       __real@41dc67f553c00000    000000018004c7d0     CTM_PID_withoutG_cgxe_registry.obj
 0002:000007d8       __real@41e07a3c0e400000    000000018004c7d8     CTM_PID_withoutG_cgxe_registry.obj
 0002:000007e0       __real@41e13401bfc00000    000000018004c7e0     CTM_PID_withoutG_cgxe_registry.obj
 0002:000007e8       __real@41e2069ed9a00000    000000018004c7e8     CTM_PID_withoutG_cgxe_registry.obj
 0002:000007f0       __real@41e2af1246000000    000000018004c7f0     CTM_PID_withoutG_cgxe_registry.obj
 0002:000007f8       __real@41e5b0b712600000    000000018004c7f8     CTM_PID_withoutG_cgxe_registry.obj
 0002:00000800       __real@41e9d483a9200000    000000018004c800     CTM_PID_withoutG_cgxe_registry.obj
 0002:00000808       __real@41ec798c83000000    000000018004c808     CTM_PID_withoutG_cgxe_registry.obj
 0002:00000810       __real@41ecacb1d1e00000    000000018004c810     CTM_PID_withoutG_cgxe_registry.obj
 0002:00000818       __real@41ef9f5f9e600000    000000018004c818     CTM_PID_withoutG_cgxe_registry.obj
 0002:00000820       __real@3cb0000000000000    000000018004c820     ccd_ccd.obj
 0002:00000828       __real@3ce4000000000000    000000018004c828     ccd_mpr.obj
 0002:00000830       __real@7fefffffffffffff    000000018004c830     ccd_polytope.obj
 0002:00000868       ??_7exception@std@@6B@     000000018004c868     collisioncodegen_CollisionGeometry.obj
 0002:00000878       ??_C@_0BC@EOODALEL@Unknown?5exception@ 000000018004c878     collisioncodegen_CollisionGeometry.obj
 0002:00000898       ??_7bad_alloc@std@@6B@     000000018004c898     collisioncodegen_CollisionGeometry.obj
 0002:000008b0       ??_7bad_array_new_length@std@@6B@ 000000018004c8b0     collisioncodegen_CollisionGeometry.obj
 0002:000008c0       ??_C@_0BF@KINCDENJ@bad?5array?5new?5length@ 000000018004c8c0     collisioncodegen_CollisionGeometry.obj
 0002:000008e0       ??_7CollisionGeometry@shared_robotics@@6B@ 000000018004c8e0     collisioncodegen_CollisionGeometry.obj
 0002:000008e8       ??_C@_0BA@FOIKENOD@vector?5too?5long@ 000000018004c8e8     collisioncodegen_CollisionGeometry.obj
 0002:000008f8       __real@3cd4000000000000    000000018004c8f8     collisioncodegen_CollisionGeometry.obj
 0002:00000908       ??_C@_0BA@JFNIOLAK@string?5too?5long@ 000000018004c908     collisioncodegen_api.obj
 0002:00000918       ??_C@_03ELMLMPLG@Box@      000000018004c918     collisioncodegen_api.obj
 0002:0000091c       ??_C@_06JBMJMGAL@Sphere@   000000018004c91c     collisioncodegen_api.obj
 0002:00000928       ??_C@_08OPEIJNOM@Cylinder@ 000000018004c928     collisioncodegen_api.obj
 0002:00000938       ??_C@_0P@FPLKDNIJ@ConvexMeshFull@ 000000018004c938     collisioncodegen_api.obj
 0002:00000948       ??_C@_07KAPIMIBP@Capsule@  000000018004c948     collisioncodegen_api.obj
 0002:00000950       ??_C@_0L@GMFHOMKA@ConvexMesh@ 000000018004c950     collisioncodegen_api.obj
 0002:00000960       __real@3eb0c6f7a0b5ed8d    000000018004c960     collisioncodegen_checkCollision.obj
 0002:00000968       __real@3f1a36e2eb1c432d    000000018004c968     collisioncodegen_checkCollision.obj
 0002:00000988       ??_7type_info@@6B@         000000018004c988     MSVCRT:std_type_info_static.obj
 0002:00000990       _pDefaultRawDllMain        000000018004c990     MSVCRT:dll_dllmain.obj
 0002:00000990       _pRawDllMain               000000018004c990     MSVCRT:dll_dllmain.obj
 0002:00000998       ??_C@_0P@GHFPNOJB@bad?5allocation@ 000000018004c998     MSVCRT:throw_bad_alloc.obj
 0002:000009b0       __xmm@ffffffffffffffffffffffffffffffff 000000018004c9b0     MSVCRT:utility.obj
 0002:000009c0       _load_config_used          000000018004c9c0     MSVCRT:loadcfg.obj
 0002:00000b80       __CastGuardVftablesStart   000000018004cb80     MSVCRT:guard_support.obj
 0002:00000c00       __CastGuardVftablesEnd     000000018004cc00     MSVCRT:guard_support.obj
 0002:00000c80       ??_R4exception@std@@6B@    000000018004cc80     collisioncodegen_CollisionGeometry.obj
 0002:00000ca8       ??_R3exception@std@@8      000000018004cca8     collisioncodegen_CollisionGeometry.obj
 0002:00000cc0       ??_R2exception@std@@8      000000018004ccc0     collisioncodegen_CollisionGeometry.obj
 0002:00000cd0       ??_R1A@?0A@EA@exception@std@@8 000000018004ccd0     collisioncodegen_CollisionGeometry.obj
 0002:00000cf8       ??_R4bad_alloc@std@@6B@    000000018004ccf8     collisioncodegen_CollisionGeometry.obj
 0002:00000d20       ??_R3bad_alloc@std@@8      000000018004cd20     collisioncodegen_CollisionGeometry.obj
 0002:00000d38       ??_R2bad_alloc@std@@8      000000018004cd38     collisioncodegen_CollisionGeometry.obj
 0002:00000d50       ??_R1A@?0A@EA@bad_alloc@std@@8 000000018004cd50     collisioncodegen_CollisionGeometry.obj
 0002:00000d78       ??_R4bad_array_new_length@std@@6B@ 000000018004cd78     collisioncodegen_CollisionGeometry.obj
 0002:00000da0       ??_R3bad_array_new_length@std@@8 000000018004cda0     collisioncodegen_CollisionGeometry.obj
 0002:00000db8       ??_R2bad_array_new_length@std@@8 000000018004cdb8     collisioncodegen_CollisionGeometry.obj
 0002:00000dd8       ??_R1A@?0A@EA@bad_array_new_length@std@@8 000000018004cdd8     collisioncodegen_CollisionGeometry.obj
 0002:00000e00       ??_R4CollisionGeometry@shared_robotics@@6B@ 000000018004ce00     collisioncodegen_CollisionGeometry.obj
 0002:00000e28       ??_R3CollisionGeometry@shared_robotics@@8 000000018004ce28     collisioncodegen_CollisionGeometry.obj
 0002:00000e40       ??_R2CollisionGeometry@shared_robotics@@8 000000018004ce40     collisioncodegen_CollisionGeometry.obj
 0002:00000e50       ??_R1A@?0A@EA@CollisionGeometry@shared_robotics@@8 000000018004ce50     collisioncodegen_CollisionGeometry.obj
 0002:00000e78       ??_R4type_info@@6B@        000000018004ce78     MSVCRT:std_type_info_static.obj
 0002:00000ea0       ??_R3type_info@@8          000000018004cea0     MSVCRT:std_type_info_static.obj
 0002:00000eb8       ??_R2type_info@@8          000000018004ceb8     MSVCRT:std_type_info_static.obj
 0002:00000ec8       ??_R1A@?0A@EA@type_info@@8 000000018004cec8     MSVCRT:std_type_info_static.obj
 0002:00000eec       __volatile_metadata        000000018004ceec     <linker-defined>
 0002:000015a0       __rtc_iaa                  000000018004d5a0     MSVCRT:initsect.obj
 0002:000015a8       __rtc_izz                  000000018004d5a8     MSVCRT:initsect.obj
 0002:000015b0       __rtc_taa                  000000018004d5b0     MSVCRT:initsect.obj
 0002:000015b8       __rtc_tzz                  000000018004d5b8     MSVCRT:initsect.obj
 0002:00003968       _TI3?AVbad_array_new_length@std@@ 000000018004f968     collisioncodegen_CollisionGeometry.obj
 0002:00003988       _CTA3?AVbad_array_new_length@std@@ 000000018004f988     collisioncodegen_CollisionGeometry.obj
 0002:000039a8       _CT??_R0?AVbad_array_new_length@std@@@8??0bad_array_new_length@std@@QEAA@AEBV01@@Z24 000000018004f9a8     collisioncodegen_CollisionGeometry.obj
 0002:000039d0       _CT??_R0?AVbad_alloc@std@@@8??0bad_alloc@std@@QEAA@AEBV01@@Z24 000000018004f9d0     collisioncodegen_CollisionGeometry.obj
 0002:000039f8       _CT??_R0?AVexception@std@@@8??0exception@std@@QEAA@AEBV01@@Z24 000000018004f9f8     collisioncodegen_CollisionGeometry.obj
 0002:00003a20       _TI2?AVbad_alloc@std@@     000000018004fa20     MSVCRT:throw_bad_alloc.obj
 0002:00003a40       _CTA2?AVbad_alloc@std@@    000000018004fa40     MSVCRT:throw_bad_alloc.obj
 0002:00003d24       __IMPORT_DESCRIPTOR_libmx  000000018004fd24     libmx:libmx.dll
 0002:00003d38       __IMPORT_DESCRIPTOR_libmex 000000018004fd38     libmex:libmex.dll
 0002:00003d4c       __IMPORT_DESCRIPTOR_libmwmathutil 000000018004fd4c     libmwmathutil:libmwmathutil.dll
 0002:00003d60       __IMPORT_DESCRIPTOR_libemlrt 000000018004fd60     libemlrt:libemlrt.dll
 0002:00003d74       __IMPORT_DESCRIPTOR_libmwcgxert 000000018004fd74     libmwcgxert:libmwcgxert.dll
 0002:00003d88       __IMPORT_DESCRIPTOR_libmwblas 000000018004fd88     libmwblas:libmwblas.dll
 0002:00003d9c       __IMPORT_DESCRIPTOR_MSVCP140 000000018004fd9c     msvcprt:MSVCP140.dll
 0002:00003db0       __IMPORT_DESCRIPTOR_KERNEL32 000000018004fdb0     kernel32:KERNEL32.dll
 0002:00003dc4       __IMPORT_DESCRIPTOR_VCRUNTIME140 000000018004fdc4     vcruntime:VCRUNTIME140.dll
 0002:00003dd8       __IMPORT_DESCRIPTOR_VCRUNTIME140_1 000000018004fdd8     vcruntime:VCRUNTIME140_1.dll
 0002:00003dec       __IMPORT_DESCRIPTOR_api-ms-win-crt-heap-l1-1-0 000000018004fdec     ucrt:api-ms-win-crt-heap-l1-1-0.dll
 0002:00003e00       __IMPORT_DESCRIPTOR_api-ms-win-crt-string-l1-1-0 000000018004fe00     ucrt:api-ms-win-crt-string-l1-1-0.dll
 0002:00003e14       __IMPORT_DESCRIPTOR_api-ms-win-crt-stdio-l1-1-0 000000018004fe14     ucrt:api-ms-win-crt-stdio-l1-1-0.dll
 0002:00003e28       __IMPORT_DESCRIPTOR_api-ms-win-crt-math-l1-1-0 000000018004fe28     ucrt:api-ms-win-crt-math-l1-1-0.dll
 0002:00003e3c       __IMPORT_DESCRIPTOR_api-ms-win-crt-utility-l1-1-0 000000018004fe3c     ucrt:api-ms-win-crt-utility-l1-1-0.dll
 0002:00003e50       __IMPORT_DESCRIPTOR_api-ms-win-crt-runtime-l1-1-0 000000018004fe50     ucrt:api-ms-win-crt-runtime-l1-1-0.dll
 0002:00003e64       __NULL_IMPORT_DESCRIPTOR   000000018004fe64     libmx:libmx.dll
 0003:0000ea30       DYNAMIC_DIMENSION          0000000180060a30     CTM_PID_withoutG_cgxe_registry.obj
 0003:00010d00       ccd_vec3_origin            0000000180062d00     ccd_vec3.obj
 0003:00010d08       ccd_points_on_sphere       0000000180062d08     ccd_vec3.obj
 0003:00010d10       ccd_points_on_sphere_len   0000000180062d10     ccd_vec3.obj
 0003:00011110       __security_cookie          0000000180063110     MSVCRT:gs_cookie.obj
 0003:00011118       __security_cookie_complement 0000000180063118     MSVCRT:gs_cookie.obj
 0003:00011120       _fltused                   0000000180063120     MSVCRT:fltused.obj
 0003:00011124       __scrt_native_dllmain_reason 0000000180063124     MSVCRT:utility.obj
 0003:00011128       __isa_available            0000000180063128     MSVCRT:cpu_disp.obj
 0003:0001112c       __isa_enabled              000000018006312c     MSVCRT:cpu_disp.obj
 0003:00011130       __memset_fast_string_threshold 0000000180063130     MSVCRT:cpu_disp.obj
 0003:00011138       __memset_nt_threshold      0000000180063138     MSVCRT:cpu_disp.obj
 0003:00011140       __scrt_ucrt_dll_is_in_use  0000000180063140     MSVCRT:ucrt_stubs.obj
 0003:00011148       ??_R0?AVbad_array_new_length@std@@@8 0000000180063148     collisioncodegen_CollisionGeometry.obj
 0003:00011178       ??_R0?AVbad_alloc@std@@@8  0000000180063178     collisioncodegen_CollisionGeometry.obj
 0003:000111a0       ??_R0?AVexception@std@@@8  00000001800631a0     collisioncodegen_CollisionGeometry.obj
 0003:000111c8       ??_R0?AVCollisionGeometry@shared_robotics@@@8 00000001800631c8     collisioncodegen_CollisionGeometry.obj
 0003:00011200       ??_R0?AVtype_info@@@8      0000000180063200     MSVCRT:std_type_info_static.obj
 0003:00011840       ?__type_info_root_node@@3U__type_info_node@@A 0000000180063840     MSVCRT:tncleanup.obj
 0003:00011850       ?_OptionsStorage@?1??__local_stdio_printf_options@@9@4_KA 0000000180063850     MSVCRT:default_local_stdio_options.obj
 0003:00011858       ?_OptionsStorage@?1??__local_stdio_scanf_options@@9@4_KA 0000000180063858     MSVCRT:default_local_stdio_options.obj
 0003:00011860       __scrt_current_native_startup_state 0000000180063860     MSVCRT:utility.obj
 0003:00011868       __scrt_native_startup_lock 0000000180063868     MSVCRT:utility.obj
 0003:000118a8       __scrt_debugger_hook_flag  00000001800638a8     MSVCRT:utility_desktop.obj
 0003:000118ac       __favor                    00000001800638ac     MSVCRT:cpu_disp.obj
 0003:000118b0       ?_OptionsStorage@?1??__local_stdio_printf_options@@9@9 00000001800638b0     <common>
 0003:000118b8       __dyn_tls_init_callback    00000001800638b8     <common>

 entry point at        0001:00048a30

 Static symbols

 0000:00000000       .debug$S                   0000000180000000     CTM_PID_withoutG_cgxe.exp
 0000:00000000       _volmd                     0000000180000000     CTM_PID_withoutG_cgxe_registry.obj
 0000:00000000       _volmd                     0000000180000000     ccd_ccd.obj
 0000:00000000       _volmd                     0000000180000000     ccd_mpr.obj
 0000:00000000       _volmd                     0000000180000000     ccd_vec3.obj
 0000:00000000       _volmd                     0000000180000000     collisioncodegen_CollisionGeometry.obj
 0000:00000000       _volmd                     0000000180000000     collisioncodegen_CollisionGeometry.obj
 0000:00000000       _volmd                     0000000180000000     collisioncodegen_CollisionGeometry.obj
 0000:00000000       _volmd                     0000000180000000     collisioncodegen_CollisionGeometry.obj
 0000:00000000       _volmd                     0000000180000000     collisioncodegen_CollisionGeometry.obj
 0000:00000000       _volmd                     0000000180000000     collisioncodegen_CollisionGeometry.obj
 0002:fffb4000       $cppxdata$??$_Deallocate@$0BA@$0A@@std@@YAXPEAX_K@Z 0000000180000000     collisioncodegen_api.obj
 0002:fffb4000       $cppxdata$??$_Destroy_range@V?$allocator@V?$vector@_KV?$allocator@_K@std@@@std@@@std@@@std@@YAXPEAV?$vector@_KV?$allocator@_K@std@@@0@QEAV10@AEAV?$allocator@V?$vector@_KV?$allocator@_K@std@@@std@@@0@@Z 0000000180000000     collisioncodegen_api.obj
 0002:fffb4000       $cppxdata$??0exception@std@@QEAA@AEBV01@@Z 0000000180000000     collisioncodegen_api.obj
 0002:fffb4000       $cppxdata$??1exception@std@@UEAA@XZ 0000000180000000     collisioncodegen_api.obj
 0002:fffb4000       $cppxdata$?_Tidy@?$vector@U_ccd_vec3_t@@V?$allocator@U_ccd_vec3_t@@@std@@@std@@AEAAXXZ 0000000180000000     collisioncodegen_api.obj
 0002:fffb4000       $cppxdata$?_Tidy@?$vector@U_idx_vec3_t@shared_robotics@@V?$allocator@U_idx_vec3_t@shared_robotics@@@std@@@std@@AEAAXXZ 0000000180000000     collisioncodegen_api.obj
 0002:fffb4000       $cppxdata$?_Tidy@?$vector@V?$vector@_KV?$allocator@_K@std@@@std@@V?$allocator@V?$vector@_KV?$allocator@_K@std@@@std@@@2@@std@@AEAAXXZ 0000000180000000     collisioncodegen_api.obj
 0002:fffb4000       $cppxdata$?_Tidy@?$vector@_KV?$allocator@_K@std@@@std@@AEAAXXZ 0000000180000000     collisioncodegen_api.obj
 0002:fffb4000       $cppxdata$?length@?$_Narrow_char_traits@DH@std@@SA_KQEBD@Z 0000000180000000     collisioncodegen_api.obj
 0002:fffb4000       $ip2state$??$_Deallocate@$0BA@$0A@@std@@YAXPEAX_K@Z 0000000180000000     collisioncodegen_api.obj
 0002:fffb4000       $ip2state$??$_Destroy_range@V?$allocator@V?$vector@_KV?$allocator@_K@std@@@std@@@std@@@std@@YAXPEAV?$vector@_KV?$allocator@_K@std@@@0@QEAV10@AEAV?$allocator@V?$vector@_KV?$allocator@_K@std@@@std@@@0@@Z 0000000180000000     collisioncodegen_api.obj
 0002:fffb4000       $ip2state$??0exception@std@@QEAA@AEBV01@@Z 0000000180000000     collisioncodegen_api.obj
 0002:fffb4000       $ip2state$??1exception@std@@UEAA@XZ 0000000180000000     collisioncodegen_api.obj
 0002:fffb4000       $ip2state$?_Tidy@?$vector@U_ccd_vec3_t@@V?$allocator@U_ccd_vec3_t@@@std@@@std@@AEAAXXZ 0000000180000000     collisioncodegen_api.obj
 0002:fffb4000       $ip2state$?_Tidy@?$vector@U_idx_vec3_t@shared_robotics@@V?$allocator@U_idx_vec3_t@shared_robotics@@@std@@@std@@AEAAXXZ 0000000180000000     collisioncodegen_api.obj
 0002:fffb4000       $ip2state$?_Tidy@?$vector@V?$vector@_KV?$allocator@_K@std@@@std@@V?$allocator@V?$vector@_KV?$allocator@_K@std@@@std@@@2@@std@@AEAAXXZ 0000000180000000     collisioncodegen_api.obj
 0002:fffb4000       $ip2state$?_Tidy@?$vector@_KV?$allocator@_K@std@@@std@@AEAAXXZ 0000000180000000     collisioncodegen_api.obj
 0002:fffb4000       $ip2state$?length@?$_Narrow_char_traits@DH@std@@SA_KQEBD@Z 0000000180000000     collisioncodegen_api.obj
 0002:fffb4000       $unwind$??$_Allocate@$0BA@U_Default_allocate_traits@std@@$0A@@std@@YAPEAX_K@Z 0000000180000000     collisioncodegen_api.obj
 0002:fffb4000       $unwind$??$_Allocate_manually_vector_aligned@U_Default_allocate_traits@std@@@std@@YAPEAX_K@Z 0000000180000000     collisioncodegen_api.obj
 0002:fffb4000       $unwind$??$_Copy_memmove@PEA_KPEA_K@std@@YAPEA_KPEA_K00@Z 0000000180000000     collisioncodegen_api.obj
 0002:fffb4000       $unwind$??$_Deallocate@$0BA@$0A@@std@@YAXPEAX_K@Z 0000000180000000     collisioncodegen_api.obj
 0002:fffb4000       $unwind$??$_Destroy_range@V?$allocator@V?$vector@_KV?$allocator@_K@std@@@std@@@std@@@std@@YAXPEAV?$vector@_KV?$allocator@_K@std@@@0@QEAV10@AEAV?$allocator@V?$vector@_KV?$allocator@_K@std@@@std@@@0@@Z 0000000180000000     collisioncodegen_api.obj
 0002:fffb4000       $unwind$??$_Get_size_of_n@$07@std@@YA_K_K@Z 0000000180000000     collisioncodegen_api.obj
 0002:fffb4000       $unwind$??$_Get_size_of_n@$0BI@@std@@YA_K_K@Z 0000000180000000     collisioncodegen_api.obj
 0002:fffb4000       $unwind$??$destroy@V?$vector@_KV?$allocator@_K@std@@@std@@@?$_Default_allocator_traits@V?$allocator@V?$vector@_KV?$allocator@_K@std@@@std@@@std@@@std@@SAXAEAV?$allocator@V?$vector@_KV?$allocator@_K@std@@@std@@@1@QEAV?$vector@_KV?$allocator@_K@std@@@1@@Z 0000000180000000     collisioncodegen_api.obj
 0002:fffb4000       $unwind$??$min@_K@std@@YAAEB_KAEB_K0@Z 0000000180000000     collisioncodegen_api.obj
 0002:fffb4000       $unwind$??0bad_alloc@std@@AEAA@QEBD@Z 0000000180000000     collisioncodegen_api.obj
 0002:fffb4000       $unwind$??0bad_alloc@std@@QEAA@AEBV01@@Z 0000000180000000     collisioncodegen_api.obj
 0002:fffb4000       $unwind$??0bad_array_new_length@std@@QEAA@AEBV01@@Z 0000000180000000     collisioncodegen_api.obj
 0002:fffb4000       $unwind$??0bad_array_new_length@std@@QEAA@XZ 0000000180000000     collisioncodegen_api.obj
 0002:fffb4000       $unwind$??0exception@std@@QEAA@AEBV01@@Z 0000000180000000     collisioncodegen_api.obj
 0002:fffb4000       $unwind$??0exception@std@@QEAA@QEBDH@Z 0000000180000000     collisioncodegen_api.obj
 0002:fffb4000       $unwind$??1?$_Uninitialized_backout_al@V?$allocator@V?$vector@_KV?$allocator@_K@std@@@std@@@std@@@std@@QEAA@XZ 0000000180000000     collisioncodegen_api.obj
 0002:fffb4000       $unwind$??1?$_Uninitialized_backout_al@V?$allocator@_K@std@@@std@@QEAA@XZ 0000000180000000     collisioncodegen_api.obj
 0002:fffb4000       $unwind$??1?$vector@U_ccd_vec3_t@@V?$allocator@U_ccd_vec3_t@@@std@@@std@@QEAA@XZ 0000000180000000     collisioncodegen_api.obj
 0002:fffb4000       $unwind$??1?$vector@U_idx_vec3_t@shared_robotics@@V?$allocator@U_idx_vec3_t@shared_robotics@@@std@@@std@@QEAA@XZ 0000000180000000     collisioncodegen_api.obj
 0002:fffb4000       $unwind$??1?$vector@V?$vector@_KV?$allocator@_K@std@@@std@@V?$allocator@V?$vector@_KV?$allocator@_K@std@@@std@@@2@@std@@QEAA@XZ 0000000180000000     collisioncodegen_api.obj
 0002:fffb4000       $unwind$??1?$vector@_KV?$allocator@_K@std@@@std@@QEAA@XZ 0000000180000000     collisioncodegen_api.obj
 0002:fffb4000       $unwind$??1bad_alloc@std@@UEAA@XZ 0000000180000000     collisioncodegen_api.obj
 0002:fffb4000       $unwind$??1bad_array_new_length@std@@UEAA@XZ 0000000180000000     collisioncodegen_api.obj
 0002:fffb4000       $unwind$??1exception@std@@UEAA@XZ 0000000180000000     collisioncodegen_api.obj
 0002:fffb4000       $unwind$??_G?$vector@_KV?$allocator@_K@std@@@std@@QEAAPEAXI@Z 0000000180000000     collisioncodegen_api.obj
 0002:fffb4000       $unwind$??_GCollisionGeometry@shared_robotics@@UEAAPEAXI@Z 0000000180000000     collisioncodegen_api.obj
 0002:fffb4000       $unwind$??_Gbad_alloc@std@@UEAAPEAXI@Z 0000000180000000     collisioncodegen_api.obj
 0002:fffb4000       $unwind$??_Gbad_array_new_length@std@@UEAAPEAXI@Z 0000000180000000     collisioncodegen_api.obj
 0002:fffb4000       $unwind$??_Gexception@std@@UEAAPEAXI@Z 0000000180000000     collisioncodegen_api.obj
 0002:fffb4000       $unwind$?_Adjust_manually_vector_aligned@std@@YAXAEAPEAXAEA_K@Z 0000000180000000     collisioncodegen_api.obj
 0002:fffb4000       $unwind$?_Allocate@_Default_allocate_traits@std@@SAPEAX_K@Z 0000000180000000     collisioncodegen_api.obj
 0002:fffb4000       $unwind$?_Getal@?$vector@U_ccd_vec3_t@@V?$allocator@U_ccd_vec3_t@@@std@@@std@@AEAAAEAV?$allocator@U_ccd_vec3_t@@@2@XZ 0000000180000000     collisioncodegen_api.obj
 0002:fffb4000       $unwind$?_Getal@?$vector@U_idx_vec3_t@shared_robotics@@V?$allocator@U_idx_vec3_t@shared_robotics@@@std@@@std@@AEAAAEAV?$allocator@U_idx_vec3_t@shared_robotics@@@2@XZ 0000000180000000     collisioncodegen_api.obj
 0002:fffb4000       $unwind$?_Getal@?$vector@V?$vector@_KV?$allocator@_K@std@@@std@@V?$allocator@V?$vector@_KV?$allocator@_K@std@@@std@@@2@@std@@AEAAAEAV?$allocator@V?$vector@_KV?$allocator@_K@std@@@std@@@2@XZ 0000000180000000     collisioncodegen_api.obj
 0002:fffb4000       $unwind$?_Getal@?$vector@V?$vector@_KV?$allocator@_K@std@@@std@@V?$allocator@V?$vector@_KV?$allocator@_K@std@@@std@@@2@@std@@AEBAAEBV?$allocator@V?$vector@_KV?$allocator@_K@std@@@std@@@2@XZ 0000000180000000     collisioncodegen_api.obj
 0002:fffb4000       $unwind$?_Getal@?$vector@_KV?$allocator@_K@std@@@std@@AEAAAEAV?$allocator@_K@2@XZ 0000000180000000     collisioncodegen_api.obj
 0002:fffb4000       $unwind$?_Getal@?$vector@_KV?$allocator@_K@std@@@std@@AEBAAEBV?$allocator@_K@2@XZ 0000000180000000     collisioncodegen_api.obj
 0002:fffb4000       $unwind$?_Throw_bad_array_new_length@std@@YAXXZ 0000000180000000     collisioncodegen_api.obj
 0002:fffb4000       $unwind$?_Tidy@?$vector@U_ccd_vec3_t@@V?$allocator@U_ccd_vec3_t@@@std@@@std@@AEAAXXZ 0000000180000000     collisioncodegen_api.obj
 0002:fffb4000       $unwind$?_Tidy@?$vector@U_idx_vec3_t@shared_robotics@@V?$allocator@U_idx_vec3_t@shared_robotics@@@std@@@std@@AEAAXXZ 0000000180000000     collisioncodegen_api.obj
 0002:fffb4000       $unwind$?_Tidy@?$vector@V?$vector@_KV?$allocator@_K@std@@@std@@V?$allocator@V?$vector@_KV?$allocator@_K@std@@@std@@@2@@std@@AEAAXXZ 0000000180000000     collisioncodegen_api.obj
 0002:fffb4000       $unwind$?_Tidy@?$vector@_KV?$allocator@_K@std@@@std@@AEAAXXZ 0000000180000000     collisioncodegen_api.obj
 0002:fffb4000       $unwind$?_Xlength@?$vector@V?$vector@_KV?$allocator@_K@std@@@std@@V?$allocator@V?$vector@_KV?$allocator@_K@std@@@std@@@2@@std@@CAXXZ 0000000180000000     collisioncodegen_api.obj
 0002:fffb4000       $unwind$?_Xlength@?$vector@_KV?$allocator@_K@std@@@std@@CAXXZ 0000000180000000     collisioncodegen_api.obj
 0002:fffb4000       $unwind$?allocate@?$allocator@V?$vector@_KV?$allocator@_K@std@@@std@@@std@@QEAAPEAV?$vector@_KV?$allocator@_K@std@@@2@_K@Z 0000000180000000     collisioncodegen_api.obj
 0002:fffb4000       $unwind$?allocate@?$allocator@_K@std@@QEAAPEA_K_K@Z 0000000180000000     collisioncodegen_api.obj
 0002:fffb4000       $unwind$?deallocate@?$allocator@U_ccd_vec3_t@@@std@@QEAAXQEAU_ccd_vec3_t@@_K@Z 0000000180000000     collisioncodegen_api.obj
 0002:fffb4000       $unwind$?deallocate@?$allocator@U_idx_vec3_t@shared_robotics@@@std@@QEAAXQEAU_idx_vec3_t@shared_robotics@@_K@Z 0000000180000000     collisioncodegen_api.obj
 0002:fffb4000       $unwind$?deallocate@?$allocator@V?$vector@_KV?$allocator@_K@std@@@std@@@std@@QEAAXQEAV?$vector@_KV?$allocator@_K@std@@@2@_K@Z 0000000180000000     collisioncodegen_api.obj
 0002:fffb4000       $unwind$?deallocate@?$allocator@_K@std@@QEAAXQEA_K_K@Z 0000000180000000     collisioncodegen_api.obj
 0002:fffb4000       $unwind$?length@?$_Narrow_char_traits@DH@std@@SA_KQEBD@Z 0000000180000000     collisioncodegen_api.obj
 0002:fffb4000       $unwind$?max_size@?$vector@V?$vector@_KV?$allocator@_K@std@@@std@@V?$allocator@V?$vector@_KV?$allocator@_K@std@@@std@@@2@@std@@QEBA_KXZ 0000000180000000     collisioncodegen_api.obj
 0002:fffb4000       $unwind$?max_size@?$vector@_KV?$allocator@_K@std@@@std@@QEBA_KXZ 0000000180000000     collisioncodegen_api.obj
 0002:fffb4000       $unwind$?what@exception@std@@UEBAPEBDXZ 0000000180000000     collisioncodegen_api.obj
 0000:00000000       _volmd                     0000000180000000     collisioncodegen_api.obj
 0000:00000000       _volmd                     0000000180000000     collisioncodegen_api.obj
 0000:00000000       _volmd                     0000000180000000     collisioncodegen_api.obj
 0000:00000000       _volmd                     0000000180000000     collisioncodegen_ccdExtensions.obj
 0000:00000000       _volmd                     0000000180000000     collisioncodegen_checkCollision.obj
 0000:00000000       _volmd                     0000000180000000     m_FAU8KyrDQYUp9atreb3T4G.obj
 0000:00000000       _volmd                     0000000180000000     m_xSE9GNLJOSGMLwcrwI4qWD.obj
 0000:00000000       .debug$S                   0000000180000000     libmwblas:libmwblas.dll
 0000:00000000       .debug$S                   0000000180000000     ucrt:api-ms-win-crt-heap-l1-1-0.dll
 0000:00000000       .debug$S                   0000000180000000     ucrt:api-ms-win-crt-heap-l1-1-0.dll
 0000:00000000       .debug$S                   0000000180000000     ucrt:api-ms-win-crt-heap-l1-1-0.dll
 0000:00000000       .debug$S                   0000000180000000     ucrt:api-ms-win-crt-heap-l1-1-0.dll
 0000:00000000       .debug$S                   0000000180000000     ucrt:api-ms-win-crt-heap-l1-1-0.dll
 0000:00000000       .debug$S                   0000000180000000     ucrt:api-ms-win-crt-math-l1-1-0.dll
 0000:00000000       .debug$S                   0000000180000000     ucrt:api-ms-win-crt-math-l1-1-0.dll
 0000:00000000       .debug$S                   0000000180000000     ucrt:api-ms-win-crt-math-l1-1-0.dll
 0000:00000000       .debug$S                   0000000180000000     ucrt:api-ms-win-crt-runtime-l1-1-0.dll
 0000:00000000       .debug$S                   0000000180000000     ucrt:api-ms-win-crt-runtime-l1-1-0.dll
 0000:00000000       .debug$S                   0000000180000000     ucrt:api-ms-win-crt-runtime-l1-1-0.dll
 0000:00000000       .debug$S                   0000000180000000     ucrt:api-ms-win-crt-runtime-l1-1-0.dll
 0000:00000000       .debug$S                   0000000180000000     ucrt:api-ms-win-crt-runtime-l1-1-0.dll
 0000:00000000       .debug$S                   0000000180000000     ucrt:api-ms-win-crt-runtime-l1-1-0.dll
 0000:00000000       .debug$S                   0000000180000000     ucrt:api-ms-win-crt-runtime-l1-1-0.dll
 0000:00000000       .debug$S                   0000000180000000     ucrt:api-ms-win-crt-runtime-l1-1-0.dll
 0000:00000000       .debug$S                   0000000180000000     ucrt:api-ms-win-crt-runtime-l1-1-0.dll
 0000:00000000       .debug$S                   0000000180000000     ucrt:api-ms-win-crt-runtime-l1-1-0.dll
 0000:00000000       .debug$S                   0000000180000000     ucrt:api-ms-win-crt-runtime-l1-1-0.dll
 0000:00000000       .debug$S                   0000000180000000     ucrt:api-ms-win-crt-runtime-l1-1-0.dll
 0000:00000000       .debug$S                   0000000180000000     ucrt:api-ms-win-crt-runtime-l1-1-0.dll
 0000:00000000       .debug$S                   0000000180000000     ucrt:api-ms-win-crt-stdio-l1-1-0.dll
 0000:00000000       .debug$S                   0000000180000000     ucrt:api-ms-win-crt-stdio-l1-1-0.dll
 0000:00000000       .debug$S                   0000000180000000     ucrt:api-ms-win-crt-stdio-l1-1-0.dll
 0000:00000000       .debug$S                   0000000180000000     ucrt:api-ms-win-crt-stdio-l1-1-0.dll
 0000:00000000       .debug$S                   0000000180000000     ucrt:api-ms-win-crt-string-l1-1-0.dll
 0000:00000000       .debug$S                   0000000180000000     ucrt:api-ms-win-crt-string-l1-1-0.dll
 0000:00000000       .debug$S                   0000000180000000     ucrt:api-ms-win-crt-string-l1-1-0.dll
 0000:00000000       .debug$S                   0000000180000000     ucrt:api-ms-win-crt-utility-l1-1-0.dll
 0000:00000000       .debug$S                   0000000180000000     kernel32:KERNEL32.dll
 0000:00000000       .debug$S                   0000000180000000     kernel32:KERNEL32.dll
 0000:00000000       .debug$S                   0000000180000000     kernel32:KERNEL32.dll
 0000:00000000       .debug$S                   0000000180000000     kernel32:KERNEL32.dll
 0000:00000000       .debug$S                   0000000180000000     kernel32:KERNEL32.dll
 0000:00000000       .debug$S                   0000000180000000     kernel32:KERNEL32.dll
 0000:00000000       .debug$S                   0000000180000000     kernel32:KERNEL32.dll
 0000:00000000       .debug$S                   0000000180000000     kernel32:KERNEL32.dll
 0000:00000000       .debug$S                   0000000180000000     kernel32:KERNEL32.dll
 0000:00000000       .debug$S                   0000000180000000     kernel32:KERNEL32.dll
 0000:00000000       .debug$S                   0000000180000000     kernel32:KERNEL32.dll
 0000:00000000       .debug$S                   0000000180000000     kernel32:KERNEL32.dll
 0000:00000000       .debug$S                   0000000180000000     kernel32:KERNEL32.dll
 0000:00000000       .debug$S                   0000000180000000     kernel32:KERNEL32.dll
 0000:00000000       .debug$S                   0000000180000000     kernel32:KERNEL32.dll
 0000:00000000       .debug$S                   0000000180000000     kernel32:KERNEL32.dll
 0000:00000000       .debug$S                   0000000180000000     kernel32:KERNEL32.dll
 0000:00000000       .debug$S                   0000000180000000     libemlrt:libemlrt.dll
 0000:00000000       .debug$S                   0000000180000000     libemlrt:libemlrt.dll
 0000:00000000       .debug$S                   0000000180000000     libemlrt:libemlrt.dll
 0000:00000000       .debug$S                   0000000180000000     libemlrt:libemlrt.dll
 0000:00000000       .debug$S                   0000000180000000     libemlrt:libemlrt.dll
 0000:00000000       .debug$S                   0000000180000000     libemlrt:libemlrt.dll
 0000:00000000       .debug$S                   0000000180000000     libemlrt:libemlrt.dll
 0000:00000000       .debug$S                   0000000180000000     libemlrt:libemlrt.dll
 0000:00000000       .debug$S                   0000000180000000     libemlrt:libemlrt.dll
 0000:00000000       .debug$S                   0000000180000000     libemlrt:libemlrt.dll
 0000:00000000       .debug$S                   0000000180000000     libemlrt:libemlrt.dll
 0000:00000000       .debug$S                   0000000180000000     libemlrt:libemlrt.dll
 0000:00000000       .debug$S                   0000000180000000     libemlrt:libemlrt.dll
 0000:00000000       .debug$S                   0000000180000000     libemlrt:libemlrt.dll
 0000:00000000       .debug$S                   0000000180000000     libemlrt:libemlrt.dll
 0000:00000000       .debug$S                   0000000180000000     libmex:libmex.dll
 0000:00000000       .debug$S                   0000000180000000     libmex:libmex.dll
 0000:00000000       .debug$S                   0000000180000000     libmex:libmex.dll
 0000:00000000       .debug$S                   0000000180000000     libmex:libmex.dll
 0000:00000000       .debug$S                   0000000180000000     libmex:libmex.dll
 0000:00000000       .debug$S                   0000000180000000     libmwcgxert:libmwcgxert.dll
 0000:00000000       .debug$S                   0000000180000000     libmwcgxert:libmwcgxert.dll
 0000:00000000       .debug$S                   0000000180000000     libmwcgxert:libmwcgxert.dll
 0000:00000000       .debug$S                   0000000180000000     libmwcgxert:libmwcgxert.dll
 0000:00000000       .debug$S                   0000000180000000     libmwcgxert:libmwcgxert.dll
 0000:00000000       .debug$S                   0000000180000000     libmwcgxert:libmwcgxert.dll
 0000:00000000       .debug$S                   0000000180000000     libmwcgxert:libmwcgxert.dll
 0000:00000000       .debug$S                   0000000180000000     libmwcgxert:libmwcgxert.dll
 0000:00000000       .debug$S                   0000000180000000     libmwmathutil:libmwmathutil.dll
 0000:00000000       .debug$S                   0000000180000000     libmwmathutil:libmwmathutil.dll
 0000:00000000       .debug$S                   0000000180000000     libmwmathutil:libmwmathutil.dll
 0000:00000000       .debug$S                   0000000180000000     libmwmathutil:libmwmathutil.dll
 0000:00000000       .debug$S                   0000000180000000     libmwmathutil:libmwmathutil.dll
 0000:00000000       .debug$S                   0000000180000000     libmwmathutil:libmwmathutil.dll
 0000:00000000       .debug$S                   0000000180000000     libmwmathutil:libmwmathutil.dll
 0000:00000000       .debug$S                   0000000180000000     libmwmathutil:libmwmathutil.dll
 0000:00000000       .debug$S                   0000000180000000     libmx:libmx.dll
 0000:00000000       .debug$S                   0000000180000000     libmx:libmx.dll
 0000:00000000       .debug$S                   0000000180000000     libmx:libmx.dll
 0000:00000000       .debug$S                   0000000180000000     libmx:libmx.dll
 0000:00000000       .debug$S                   0000000180000000     libmx:libmx.dll
 0000:00000000       .debug$S                   0000000180000000     libmx:libmx.dll
 0000:00000000       .debug$S                   0000000180000000     libmx:libmx.dll
 0000:00000000       .debug$S                   0000000180000000     libmx:libmx.dll
 0000:00000000       .debug$S                   0000000180000000     libmx:libmx.dll
 0000:00000000       .debug$S                   0000000180000000     libmx:libmx.dll
 0000:00000000       .debug$S                   0000000180000000     libmx:libmx.dll
 0000:00000000       .debug$S                   0000000180000000     libmx:libmx.dll
 0000:00000000       .debug$S                   0000000180000000     libmx:libmx.dll
 0000:00000000       .debug$S                   0000000180000000     libmx:libmx.dll
 0000:00000000       .debug$S                   0000000180000000     libmx:libmx.dll
 0000:00000000       .debug$S                   0000000180000000     libmx:libmx.dll
 0000:00000000       .debug$S                   0000000180000000     libmx:libmx.dll
 0000:00000000       .debug$S                   0000000180000000     libmx:libmx.dll
 0000:00000000       .debug$S                   0000000180000000     libmx:libmx.dll
 0000:00000000       .debug$S                   0000000180000000     libmx:libmx.dll
 0000:00000000       _volmd                     0000000180000000     MSVCRT:cpu_disp.obj
 0002:fffb4000       __guard_ehcont_?dllmain_dispatch@@YAHQEAUHINSTANCE__@@KQEAX@Z 0000000180000000     MSVCRT:dll_dllmain.obj
 0002:fffb4000       __guard_fids_?dllmain_dispatch@@YAHQEAUHINSTANCE__@@KQEAX@Z 0000000180000000     MSVCRT:dll_dllmain.obj
 0000:00000000       _volmd                     0000000180000000     MSVCRT:gs_report.obj
 0000:00000000       _volmd                     0000000180000000     MSVCRT:gs_report.obj
 0000:00000000       _volmd                     0000000180000000     MSVCRT:gs_report.obj
 0002:fffb4000       __guard_fids__             0000000180000000     MSVCRT:guard_support.obj
 0002:fffb4000       __guard_fids__             0000000180000000     MSVCRT:guard_support.obj
 0002:fffb4000       __guard_fids__guard_icall_checks_enforced 0000000180000000     MSVCRT:guard_support.obj
 0000:00000000       _volmd                     0000000180000000     MSVCRT:guard_support.obj
 0000:00000000       _volmd                     0000000180000000     MSVCRT:guard_support.obj
 0000:00000000       _volmd                     0000000180000000     MSVCRT:guard_support.obj
 0000:00000000       _volmd                     0000000180000000     MSVCRT:guard_support.obj
 0000:00000000       _volmd                     0000000180000000     MSVCRT:guard_support.obj
 0000:00000000       _volmd                     0000000180000000     MSVCRT:guard_support.obj
 0002:fffb4000       __guard_fids__             0000000180000000     MSVCRT:std_type_info_static.obj
 0002:fffb4000       $unwind$??0bad_alloc@std@@QEAA@AEBV01@@Z 0000000180000000     MSVCRT:throw_bad_alloc.obj
 0002:fffb4000       $unwind$??0bad_array_new_length@std@@QEAA@AEBV01@@Z 0000000180000000     MSVCRT:throw_bad_alloc.obj
 0002:fffb4000       $unwind$??0exception@std@@QEAA@AEBV01@@Z 0000000180000000     MSVCRT:throw_bad_alloc.obj
 0002:fffb4000       $unwind$??_Gbad_alloc@std@@UEAAPEAXI@Z 0000000180000000     MSVCRT:throw_bad_alloc.obj
 0002:fffb4000       $unwind$??_Gbad_array_new_length@std@@UEAAPEAXI@Z 0000000180000000     MSVCRT:throw_bad_alloc.obj
 0002:fffb4000       $unwind$??_Gexception@std@@UEAAPEAXI@Z 0000000180000000     MSVCRT:throw_bad_alloc.obj
 0002:fffb4000       __guard_fids__             0000000180000000     MSVCRT:throw_bad_alloc.obj
 0002:fffb4000       __guard_fids__             0000000180000000     MSVCRT:throw_bad_alloc.obj
 0002:fffb4000       __guard_fids__             0000000180000000     MSVCRT:throw_bad_alloc.obj
 0002:fffb4000       __guard_ehcont___scrt_is_nonwritable_in_current_image 0000000180000000     MSVCRT:utility.obj
 0000:00000000       _volmd                     0000000180000000     MSVCRT:utility.obj
 0000:00000000       _volmd                     0000000180000000     MSVCRT:utility.obj
 0000:00000000       _volmd                     0000000180000000     MSVCRT:utility.obj
 0002:fffb4000       __guard_fids___scrt_set_unhandled_exception_filter 0000000180000000     MSVCRT:utility_desktop.obj
 0000:00000000       _volmd                     0000000180000000     MSVCRT:utility_desktop.obj
 0000:00000000       .debug$S                   0000000180000000     msvcprt:MSVCP140.dll
 0000:00000000       .debug$S                   0000000180000000     msvcprt:MSVCP140.dll
 0000:00000000       .debug$S                   0000000180000000     msvcprt:MSVCP140.dll
 0000:00000000       .debug$S                   0000000180000000     msvcprt:MSVCP140.dll
 0000:00000000       .debug$S                   0000000180000000     msvcprt:MSVCP140.dll
 0000:00000000       .debug$S                   0000000180000000     msvcprt:MSVCP140.dll
 0000:00000000       .debug$S                   0000000180000000     msvcprt:MSVCP140.dll
 0000:00000000       .debug$S                   0000000180000000     msvcprt:MSVCP140.dll
 0000:00000000       .debug$S                   0000000180000000     msvcprt:MSVCP140.dll
 0000:00000000       .debug$S                   0000000180000000     msvcprt:MSVCP140.dll
 0000:00000000       .debug$S                   0000000180000000     msvcprt:MSVCP140.dll
 0000:00000000       .debug$S                   0000000180000000     msvcprt:MSVCP140.dll
 0000:00000000       .debug$S                   0000000180000000     msvcprt:MSVCP140.dll
 0000:00000000       .debug$S                   0000000180000000     msvcprt:MSVCP140.dll
 0000:00000000       .debug$S                   0000000180000000     msvcprt:MSVCP140.dll
 0000:00000000       .debug$S                   0000000180000000     msvcprt:MSVCP140.dll
 0000:00000000       .debug$S                   0000000180000000     msvcprt:MSVCP140.dll
 0000:00000000       .debug$S                   0000000180000000     msvcprt:MSVCP140.dll
 0000:00000000       .debug$S                   0000000180000000     vcruntime:VCRUNTIME140.dll
 0000:00000000       .debug$S                   0000000180000000     vcruntime:VCRUNTIME140.dll
 0000:00000000       .debug$S                   0000000180000000     vcruntime:VCRUNTIME140.dll
 0000:00000000       .debug$S                   0000000180000000     vcruntime:VCRUNTIME140.dll
 0000:00000000       .debug$S                   0000000180000000     vcruntime:VCRUNTIME140.dll
 0000:00000000       .debug$S                   0000000180000000     vcruntime:VCRUNTIME140.dll
 0000:00000000       .debug$S                   0000000180000000     vcruntime:VCRUNTIME140.dll
 0000:00000000       .debug$S                   0000000180000000     vcruntime:VCRUNTIME140.dll
 0000:00000000       .debug$S                   0000000180000000     vcruntime:VCRUNTIME140.dll
 0000:00000000       .debug$S                   0000000180000000     vcruntime:VCRUNTIME140.dll
 0000:00000000       .debug$S                   0000000180000000     vcruntime:VCRUNTIME140_1.dll
 0002:fffb4000       __guard_fids__             0000000180000000     vcruntime:softmemtag.obj
 0000:00000010       _volmd                     0000000180000010     CTM_PID_withoutG_cgxe_registry.obj
 0000:00000010       _volmd                     0000000180000010     ccd_ccd.obj
 0000:00000010       _volmd                     0000000180000010     ccd_mpr.obj
 0000:00000010       _volmd                     0000000180000010     ccd_vec3.obj
 0000:00000010       _volmd                     0000000180000010     collisioncodegen_ccdExtensions.obj
 0000:00000010       _volmd                     0000000180000010     m_FAU8KyrDQYUp9atreb3T4G.obj
 0000:00000010       _volmd                     0000000180000010     m_xSE9GNLJOSGMLwcrwI4qWD.obj
 0000:00000020       _volmd                     0000000180000020     CTM_PID_withoutG_cgxe_registry.obj
 0000:00000020       _volmd                     0000000180000020     ccd_ccd.obj
 0000:00000020       _volmd                     0000000180000020     ccd_mpr.obj
 0000:00000020       _volmd                     0000000180000020     ccd_vec3.obj
 0000:00000020       _volmd                     0000000180000020     collisioncodegen_ccdExtensions.obj
 0000:00000020       _volmd                     0000000180000020     m_FAU8KyrDQYUp9atreb3T4G.obj
 0000:00000020       _volmd                     0000000180000020     m_xSE9GNLJOSGMLwcrwI4qWD.obj
 0000:00000030       _volmd                     0000000180000030     CTM_PID_withoutG_cgxe_registry.obj
 0000:00000030       _volmd                     0000000180000030     ccd_ccd.obj
 0000:00000030       _volmd                     0000000180000030     ccd_mpr.obj
 0000:00000030       _volmd                     0000000180000030     collisioncodegen_ccdExtensions.obj
 0000:00000030       _volmd                     0000000180000030     m_FAU8KyrDQYUp9atreb3T4G.obj
 0000:00000030       _volmd                     0000000180000030     m_xSE9GNLJOSGMLwcrwI4qWD.obj
 0000:00000040       _volmd                     0000000180000040     CTM_PID_withoutG_cgxe_registry.obj
 0000:00000040       _volmd                     0000000180000040     ccd_ccd.obj
 0000:00000040       _volmd                     0000000180000040     ccd_mpr.obj
 0000:00000040       _volmd                     0000000180000040     collisioncodegen_ccdExtensions.obj
 0000:00000040       _volmd                     0000000180000040     m_FAU8KyrDQYUp9atreb3T4G.obj
 0000:00000040       _volmd                     0000000180000040     m_xSE9GNLJOSGMLwcrwI4qWD.obj
 0000:00000050       _volmd                     0000000180000050     CTM_PID_withoutG_cgxe_registry.obj
 0000:00000050       _volmd                     0000000180000050     ccd_ccd.obj
 0000:00000050       _volmd                     0000000180000050     ccd_mpr.obj
 0000:00000050       _volmd                     0000000180000050     m_FAU8KyrDQYUp9atreb3T4G.obj
 0000:00000050       _volmd                     0000000180000050     m_xSE9GNLJOSGMLwcrwI4qWD.obj
 0000:00000060       _volmd                     0000000180000060     CTM_PID_withoutG_cgxe_registry.obj
 0000:00000060       _volmd                     0000000180000060     ccd_ccd.obj
 0000:00000060       _volmd                     0000000180000060     ccd_mpr.obj
 0000:00000060       _volmd                     0000000180000060     m_FAU8KyrDQYUp9atreb3T4G.obj
 0000:00000060       _volmd                     0000000180000060     m_xSE9GNLJOSGMLwcrwI4qWD.obj
 0000:00000070       _volmd                     0000000180000070     CTM_PID_withoutG_cgxe_registry.obj
 0000:00000070       _volmd                     0000000180000070     ccd_ccd.obj
 0000:00000070       _volmd                     0000000180000070     ccd_mpr.obj
 0000:00000070       _volmd                     0000000180000070     m_FAU8KyrDQYUp9atreb3T4G.obj
 0000:00000070       _volmd                     0000000180000070     m_xSE9GNLJOSGMLwcrwI4qWD.obj
 0000:00000080       _volmd                     0000000180000080     CTM_PID_withoutG_cgxe_registry.obj
 0000:00000080       _volmd                     0000000180000080     ccd_ccd.obj
 0000:00000080       _volmd                     0000000180000080     ccd_mpr.obj
 0000:00000080       _volmd                     0000000180000080     m_FAU8KyrDQYUp9atreb3T4G.obj
 0000:00000080       _volmd                     0000000180000080     m_xSE9GNLJOSGMLwcrwI4qWD.obj
 0000:00000090       _volmd                     0000000180000090     CTM_PID_withoutG_cgxe_registry.obj
 0000:00000090       _volmd                     0000000180000090     ccd_ccd.obj
 0000:00000090       _volmd                     0000000180000090     m_FAU8KyrDQYUp9atreb3T4G.obj
 0000:00000090       _volmd                     0000000180000090     m_xSE9GNLJOSGMLwcrwI4qWD.obj
 0000:000000a0       _volmd                     00000001800000a0     CTM_PID_withoutG_cgxe_registry.obj
 0000:000000a0       _volmd                     00000001800000a0     ccd_ccd.obj
 0000:000000a0       _volmd                     00000001800000a0     m_FAU8KyrDQYUp9atreb3T4G.obj
 0000:000000a0       _volmd                     00000001800000a0     m_xSE9GNLJOSGMLwcrwI4qWD.obj
 0000:000000b0       _volmd                     00000001800000b0     CTM_PID_withoutG_cgxe_registry.obj
 0000:000000b0       _volmd                     00000001800000b0     ccd_ccd.obj
 0000:000000b0       _volmd                     00000001800000b0     m_FAU8KyrDQYUp9atreb3T4G.obj
 0000:000000b0       _volmd                     00000001800000b0     m_xSE9GNLJOSGMLwcrwI4qWD.obj
 0000:000000c0       _volmd                     00000001800000c0     CTM_PID_withoutG_cgxe_registry.obj
 0000:000000c0       _volmd                     00000001800000c0     m_FAU8KyrDQYUp9atreb3T4G.obj
 0000:000000c0       _volmd                     00000001800000c0     m_xSE9GNLJOSGMLwcrwI4qWD.obj
 0000:000000d0       _volmd                     00000001800000d0     CTM_PID_withoutG_cgxe_registry.obj
 0000:000000d0       _volmd                     00000001800000d0     m_FAU8KyrDQYUp9atreb3T4G.obj
 0000:000000d0       _volmd                     00000001800000d0     m_xSE9GNLJOSGMLwcrwI4qWD.obj
 0000:000000e0       _volmd                     00000001800000e0     CTM_PID_withoutG_cgxe_registry.obj
 0000:000000e0       _volmd                     00000001800000e0     m_FAU8KyrDQYUp9atreb3T4G.obj
 0000:000000e0       _volmd                     00000001800000e0     m_xSE9GNLJOSGMLwcrwI4qWD.obj
 0000:000000f0       _volmd                     00000001800000f0     m_FAU8KyrDQYUp9atreb3T4G.obj
 0000:000000f0       _volmd                     00000001800000f0     m_xSE9GNLJOSGMLwcrwI4qWD.obj
 0000:00000100       _volmd                     0000000180000100     m_FAU8KyrDQYUp9atreb3T4G.obj
 0000:00000100       _volmd                     0000000180000100     m_xSE9GNLJOSGMLwcrwI4qWD.obj
 0000:00000110       _volmd                     0000000180000110     m_FAU8KyrDQYUp9atreb3T4G.obj
 0000:00000110       _volmd                     0000000180000110     m_xSE9GNLJOSGMLwcrwI4qWD.obj
 0000:00000120       _volmd                     0000000180000120     m_FAU8KyrDQYUp9atreb3T4G.obj
 0000:00000120       _volmd                     0000000180000120     m_xSE9GNLJOSGMLwcrwI4qWD.obj
 0000:00000130       _volmd                     0000000180000130     m_FAU8KyrDQYUp9atreb3T4G.obj
 0000:00000130       _volmd                     0000000180000130     m_xSE9GNLJOSGMLwcrwI4qWD.obj
 0000:00000140       _volmd                     0000000180000140     m_FAU8KyrDQYUp9atreb3T4G.obj
 0000:00000140       _volmd                     0000000180000140     m_xSE9GNLJOSGMLwcrwI4qWD.obj
 0000:00000150       _volmd                     0000000180000150     m_FAU8KyrDQYUp9atreb3T4G.obj
 0000:00000150       _volmd                     0000000180000150     m_xSE9GNLJOSGMLwcrwI4qWD.obj
 0000:00000160       _volmd                     0000000180000160     m_FAU8KyrDQYUp9atreb3T4G.obj
 0000:00000160       _volmd                     0000000180000160     m_xSE9GNLJOSGMLwcrwI4qWD.obj
 0000:00000170       _volmd                     0000000180000170     m_FAU8KyrDQYUp9atreb3T4G.obj
 0000:00000170       _volmd                     0000000180000170     m_xSE9GNLJOSGMLwcrwI4qWD.obj
 0000:00000180       _volmd                     0000000180000180     m_FAU8KyrDQYUp9atreb3T4G.obj
 0000:00000180       _volmd                     0000000180000180     m_xSE9GNLJOSGMLwcrwI4qWD.obj
 0000:00000190       _volmd                     0000000180000190     m_FAU8KyrDQYUp9atreb3T4G.obj
 0000:00000190       _volmd                     0000000180000190     m_xSE9GNLJOSGMLwcrwI4qWD.obj
 0000:000001a0       _volmd                     00000001800001a0     m_xSE9GNLJOSGMLwcrwI4qWD.obj
 0000:000001b0       _volmd                     00000001800001b0     m_xSE9GNLJOSGMLwcrwI4qWD.obj
 0000:000001c0       _volmd                     00000001800001c0     m_xSE9GNLJOSGMLwcrwI4qWD.obj
 0001:00000190       cgxe_mdl_start             0000000180001190 f   m_FAU8KyrDQYUp9atreb3T4G.obj
 0001:00000240       cgxe_mdl_initialize        0000000180001240 f   m_FAU8KyrDQYUp9atreb3T4G.obj
 0001:000002e0       cgxe_mdl_outputs           00000001800012e0 f   m_FAU8KyrDQYUp9atreb3T4G.obj
 0001:000003e0       cgxe_mdl_update            00000001800013e0 f   m_FAU8KyrDQYUp9atreb3T4G.obj
 0001:000003f0       cgxe_mdl_enable            00000001800013f0 f   m_FAU8KyrDQYUp9atreb3T4G.obj
 0001:00000400       cgxe_mdl_disable           0000000180001400 f   m_FAU8KyrDQYUp9atreb3T4G.obj
 0001:00000410       cgxe_mdl_terminate         0000000180001410 f   m_FAU8KyrDQYUp9atreb3T4G.obj
 0001:00000490       mw__internal__system__init__fcn 0000000180001490 f   m_FAU8KyrDQYUp9atreb3T4G.obj
 0001:00000550       mw__internal__system__terminate__fcn 0000000180001550 f   m_FAU8KyrDQYUp9atreb3T4G.obj
 0001:000006d0       mw__internal__call__setup  00000001800016d0 f   m_FAU8KyrDQYUp9atreb3T4G.obj
 0001:000007c0       SystemCore_setup           00000001800017c0 f   m_FAU8KyrDQYUp9atreb3T4G.obj
 0001:00000a90       MassMatrixBlock_setupImpl  0000000180001a90 f   m_FAU8KyrDQYUp9atreb3T4G.obj
 0001:00000fd0       RigidBodyTree_defaultInitializeBodiesCellArray 0000000180001fd0 f   m_FAU8KyrDQYUp9atreb3T4G.obj
 0001:00003a30       b_strcmp                   0000000180004a30 f   m_FAU8KyrDQYUp9atreb3T4G.obj
 0001:00003ae0       c_strcmp                   0000000180004ae0 f   m_FAU8KyrDQYUp9atreb3T4G.obj
 0001:00003b90       CollisionSet_CollisionSet  0000000180004b90 f   m_FAU8KyrDQYUp9atreb3T4G.obj
 0001:00003e80       RigidBody_RigidBody        0000000180004e80 f   m_FAU8KyrDQYUp9atreb3T4G.obj
 0001:00004560       b_RigidBody_RigidBody      0000000180005560 f   m_FAU8KyrDQYUp9atreb3T4G.obj
 0001:00004c40       c_RigidBody_RigidBody      0000000180005c40 f   m_FAU8KyrDQYUp9atreb3T4G.obj
 0001:00005320       d_RigidBody_RigidBody      0000000180006320 f   m_FAU8KyrDQYUp9atreb3T4G.obj
 0001:00005ae0       e_RigidBody_RigidBody      0000000180006ae0 f   m_FAU8KyrDQYUp9atreb3T4G.obj
 0001:000062b0       f_RigidBody_RigidBody      00000001800072b0 f   m_FAU8KyrDQYUp9atreb3T4G.obj
 0001:00006aa0       g_RigidBody_RigidBody      0000000180007aa0 f   m_FAU8KyrDQYUp9atreb3T4G.obj
 0001:00007290       h_RigidBody_RigidBody      0000000180008290 f   m_FAU8KyrDQYUp9atreb3T4G.obj
 0001:00007a60       i_RigidBody_RigidBody      0000000180008a60 f   m_FAU8KyrDQYUp9atreb3T4G.obj
 0001:00008230       j_RigidBody_RigidBody      0000000180009230 f   m_FAU8KyrDQYUp9atreb3T4G.obj
 0001:00008a00       k_RigidBody_RigidBody      0000000180009a00 f   m_FAU8KyrDQYUp9atreb3T4G.obj
 0001:000091d0       l_RigidBody_RigidBody      000000018000a1d0 f   m_FAU8KyrDQYUp9atreb3T4G.obj
 0001:00009820       mw__internal__call__reset  000000018000a820 f   m_FAU8KyrDQYUp9atreb3T4G.obj
 0001:00009b80       mw__internal__call__step   000000018000ab80 f   m_FAU8KyrDQYUp9atreb3T4G.obj
 0001:0000a080       RigidBodyTreeDynamics_massMatrix 000000018000b080 f   m_FAU8KyrDQYUp9atreb3T4G.obj
 0001:0000da40       RigidBody_get_Joint        000000018000ea40 f   m_FAU8KyrDQYUp9atreb3T4G.obj
 0001:0000dd20       rigidBodyJoint_transformBodyToParent 000000018000ed20 f   m_FAU8KyrDQYUp9atreb3T4G.obj
 0001:0000e8b0       d_strcmp                   000000018000f8b0 f   m_FAU8KyrDQYUp9atreb3T4G.obj
 0001:0000e960       normalizeRows              000000018000f960 f   m_FAU8KyrDQYUp9atreb3T4G.obj
 0001:0000ede0       sumColumnB                 000000018000fde0 f   m_FAU8KyrDQYUp9atreb3T4G.obj
 0001:0000ee50       cat                        000000018000fe50 f   m_FAU8KyrDQYUp9atreb3T4G.obj
 0001:0000ef50       permute                    000000018000ff50 f   m_FAU8KyrDQYUp9atreb3T4G.obj
 0001:0000efe0       b_rigidBodyJoint_transformBodyToParent 000000018000ffe0 f   m_FAU8KyrDQYUp9atreb3T4G.obj
 0001:000105e0       tforminv                   00000001800115e0 f   m_FAU8KyrDQYUp9atreb3T4G.obj
 0001:00010840       tformToSpatialXform        0000000180011840 f   m_FAU8KyrDQYUp9atreb3T4G.obj
 0001:00010bf0       mtimes                     0000000180011bf0 f   m_FAU8KyrDQYUp9atreb3T4G.obj
 0001:00010e40       b_mtimes                   0000000180011e40 f   m_FAU8KyrDQYUp9atreb3T4G.obj
 0001:000111d0       c_mtimes                   00000001800121d0 f   m_FAU8KyrDQYUp9atreb3T4G.obj
 0001:00011420       eml_find                   0000000180012420 f   m_FAU8KyrDQYUp9atreb3T4G.obj
 0001:00011500       indexShapeCheck            0000000180012500 f   m_FAU8KyrDQYUp9atreb3T4G.obj
 0001:00011520       eml_float_colon            0000000180012520 f   m_FAU8KyrDQYUp9atreb3T4G.obj
 0001:00011ac0       handle_matlabCodegenDestructor 0000000180012ac0 f   m_FAU8KyrDQYUp9atreb3T4G.obj
 0001:00011ce0       message                    0000000180012ce0 f   m_FAU8KyrDQYUp9atreb3T4G.obj
 0001:00011d80       getString                  0000000180012d80 f   m_FAU8KyrDQYUp9atreb3T4G.obj
 0001:00011df0       error                      0000000180012df0 f   m_FAU8KyrDQYUp9atreb3T4G.obj
 0001:00011e80       b_message                  0000000180012e80 f   m_FAU8KyrDQYUp9atreb3T4G.obj
 0001:00011ef0       c_message                  0000000180012ef0 f   m_FAU8KyrDQYUp9atreb3T4G.obj
 0001:00011fc0       binary_expand_op           0000000180012fc0 f   m_FAU8KyrDQYUp9atreb3T4G.obj
 0001:00012280       emxInitStruct_robotics_slmanip_ 0000000180013280 f   m_FAU8KyrDQYUp9atreb3T4G.obj
 0001:000122b0       emxInitStruct_robotics_manip_in 00000001800132b0 f   m_FAU8KyrDQYUp9atreb3T4G.obj
 0001:000122f0       b_emxInitStruct_robotics_manip_in 00000001800132f0 f   m_FAU8KyrDQYUp9atreb3T4G.obj
 0001:00012340       emxInit_char_T             0000000180013340 f   m_FAU8KyrDQYUp9atreb3T4G.obj
 0001:00012400       emxInitStruct_rigidBodyJoint 0000000180013400 f   m_FAU8KyrDQYUp9atreb3T4G.obj
 0001:00012440       emxInit_real_T             0000000180013440 f   m_FAU8KyrDQYUp9atreb3T4G.obj
 0001:00012500       c_emxInitStruct_robotics_manip_in 0000000180013500 f   m_FAU8KyrDQYUp9atreb3T4G.obj
 0001:00012530       emxInit_robotics_manip_internal 0000000180013530 f   m_FAU8KyrDQYUp9atreb3T4G.obj
 0001:000125f0       emxInitMatrix_robotics_manip_in 00000001800135f0 f   m_FAU8KyrDQYUp9atreb3T4G.obj
 0001:00012640       emxFree_char_T             0000000180013640 f   m_FAU8KyrDQYUp9atreb3T4G.obj
 0001:000126c0       emxFreeStruct_robotics_manip_in 00000001800136c0 f   m_FAU8KyrDQYUp9atreb3T4G.obj
 0001:00012710       emxFreeStruct_rigidBodyJoint 0000000180013710 f   m_FAU8KyrDQYUp9atreb3T4G.obj
 0001:00012750       emxFree_real_T             0000000180013750 f   m_FAU8KyrDQYUp9atreb3T4G.obj
 0001:000127d0       emxFree_robotics_manip_internal 00000001800137d0 f   m_FAU8KyrDQYUp9atreb3T4G.obj
 0001:00012850       b_emxFreeStruct_robotics_manip_in 0000000180013850 f   m_FAU8KyrDQYUp9atreb3T4G.obj
 0001:00012880       c_emxFreeStruct_robotics_manip_in 0000000180013880 f   m_FAU8KyrDQYUp9atreb3T4G.obj
 0001:000128c0       emxFreeMatrix_robotics_manip_in 00000001800138c0 f   m_FAU8KyrDQYUp9atreb3T4G.obj
 0001:00012910       emxFreeStruct_robotics_slmanip_ 0000000180013910 f   m_FAU8KyrDQYUp9atreb3T4G.obj
 0001:00012940       emxEnsureCapacity_char_T   0000000180013940 f   m_FAU8KyrDQYUp9atreb3T4G.obj
 0001:00012a80       emxEnsureCapacity_real_T   0000000180013a80 f   m_FAU8KyrDQYUp9atreb3T4G.obj
 0001:00012bc0       emxEnsureCapacity_robotics_mani 0000000180013bc0 f   m_FAU8KyrDQYUp9atreb3T4G.obj
 0001:00012d00       emxEnsureCapacity_cell_wrap 0000000180013d00 f   m_FAU8KyrDQYUp9atreb3T4G.obj
 0001:00012e50       emxInit_cell_wrap          0000000180013e50 f   m_FAU8KyrDQYUp9atreb3T4G.obj
 0001:00012f10       emxFree_cell_wrap          0000000180013f10 f   m_FAU8KyrDQYUp9atreb3T4G.obj
 0001:00012f90       div_nzp_s32                0000000180013f90 f   m_FAU8KyrDQYUp9atreb3T4G.obj
 0001:00013040       init_simulink_io_address   0000000180014040 f   m_FAU8KyrDQYUp9atreb3T4G.obj
 0001:000130b0       mdlOutputs_FAU8KyrDQYUp9atreb3T4G 00000001800140b0 f   m_FAU8KyrDQYUp9atreb3T4G.obj
 0001:000130f0       mdlInitialize_FAU8KyrDQYUp9atreb3T4G 00000001800140f0 f   m_FAU8KyrDQYUp9atreb3T4G.obj
 0001:00013120       mdlUpdate_FAU8KyrDQYUp9atreb3T4G 0000000180014120 f   m_FAU8KyrDQYUp9atreb3T4G.obj
 0001:00013160       mdlTerminate_FAU8KyrDQYUp9atreb3T4G 0000000180014160 f   m_FAU8KyrDQYUp9atreb3T4G.obj
 0001:000131a0       mdlEnable_FAU8KyrDQYUp9atreb3T4G 00000001800141a0 f   m_FAU8KyrDQYUp9atreb3T4G.obj
 0001:000131d0       mdlDisable_FAU8KyrDQYUp9atreb3T4G 00000001800141d0 f   m_FAU8KyrDQYUp9atreb3T4G.obj
 0001:00013200       mdlStart_FAU8KyrDQYUp9atreb3T4G 0000000180014200 f   m_FAU8KyrDQYUp9atreb3T4G.obj
 0001:00013300       mdlProcessParameters_FAU8KyrDQYUp9atreb3T4G 0000000180014300 f   m_FAU8KyrDQYUp9atreb3T4G.obj
 0001:00013770       cgxe_mdl_start             0000000180014770 f   m_xSE9GNLJOSGMLwcrwI4qWD.obj
 0001:00013820       cgxe_mdl_initialize        0000000180014820 f   m_xSE9GNLJOSGMLwcrwI4qWD.obj
 0001:000138c0       cgxe_mdl_outputs           00000001800148c0 f   m_xSE9GNLJOSGMLwcrwI4qWD.obj
 0001:00013970       cgxe_mdl_update            0000000180014970 f   m_xSE9GNLJOSGMLwcrwI4qWD.obj
 0001:00013980       cgxe_mdl_enable            0000000180014980 f   m_xSE9GNLJOSGMLwcrwI4qWD.obj
 0001:00013990       cgxe_mdl_disable           0000000180014990 f   m_xSE9GNLJOSGMLwcrwI4qWD.obj
 0001:000139a0       cgxe_mdl_terminate         00000001800149a0 f   m_xSE9GNLJOSGMLwcrwI4qWD.obj
 0001:00013a20       mw__internal__system__init__fcn 0000000180014a20 f   m_xSE9GNLJOSGMLwcrwI4qWD.obj
 0001:00013ae0       mw__internal__system__terminate__fcn 0000000180014ae0 f   m_xSE9GNLJOSGMLwcrwI4qWD.obj
 0001:00013c60       mw__internal__call__setup  0000000180014c60 f   m_xSE9GNLJOSGMLwcrwI4qWD.obj
 0001:00013d50       SystemCore_setup           0000000180014d50 f   m_xSE9GNLJOSGMLwcrwI4qWD.obj
 0001:00014020       VelocityProductTorqueBlock_setupImpl 0000000180015020 f   m_xSE9GNLJOSGMLwcrwI4qWD.obj
 0001:00014560       RigidBodyTree_defaultInitializeBodiesCellArray 0000000180015560 f   m_xSE9GNLJOSGMLwcrwI4qWD.obj
 0001:00016fc0       b_strcmp                   0000000180017fc0 f   m_xSE9GNLJOSGMLwcrwI4qWD.obj
 0001:00017070       c_strcmp                   0000000180018070 f   m_xSE9GNLJOSGMLwcrwI4qWD.obj
 0001:00017120       CollisionSet_CollisionSet  0000000180018120 f   m_xSE9GNLJOSGMLwcrwI4qWD.obj
 0001:00017410       RigidBody_RigidBody        0000000180018410 f   m_xSE9GNLJOSGMLwcrwI4qWD.obj
 0001:00017af0       b_RigidBody_RigidBody      0000000180018af0 f   m_xSE9GNLJOSGMLwcrwI4qWD.obj
 0001:000181d0       c_RigidBody_RigidBody      00000001800191d0 f   m_xSE9GNLJOSGMLwcrwI4qWD.obj
 0001:000188b0       d_RigidBody_RigidBody      00000001800198b0 f   m_xSE9GNLJOSGMLwcrwI4qWD.obj
 0001:00019070       e_RigidBody_RigidBody      000000018001a070 f   m_xSE9GNLJOSGMLwcrwI4qWD.obj
 0001:00019840       f_RigidBody_RigidBody      000000018001a840 f   m_xSE9GNLJOSGMLwcrwI4qWD.obj
 0001:0001a030       g_RigidBody_RigidBody      000000018001b030 f   m_xSE9GNLJOSGMLwcrwI4qWD.obj
 0001:0001a820       h_RigidBody_RigidBody      000000018001b820 f   m_xSE9GNLJOSGMLwcrwI4qWD.obj
 0001:0001aff0       i_RigidBody_RigidBody      000000018001bff0 f   m_xSE9GNLJOSGMLwcrwI4qWD.obj
 0001:0001b7c0       j_RigidBody_RigidBody      000000018001c7c0 f   m_xSE9GNLJOSGMLwcrwI4qWD.obj
 0001:0001bf90       k_RigidBody_RigidBody      000000018001cf90 f   m_xSE9GNLJOSGMLwcrwI4qWD.obj
 0001:0001c760       RigidBodyTree_set_Gravity  000000018001d760 f   m_xSE9GNLJOSGMLwcrwI4qWD.obj
 0001:0001c7b0       l_RigidBody_RigidBody      000000018001d7b0 f   m_xSE9GNLJOSGMLwcrwI4qWD.obj
 0001:0001ce00       mw__internal__call__reset  000000018001de00 f   m_xSE9GNLJOSGMLwcrwI4qWD.obj
 0001:0001d160       mw__internal__call__step   000000018001e160 f   m_xSE9GNLJOSGMLwcrwI4qWD.obj
 0001:0001d700       RigidBodyTreeDynamics_inverseDynamics 000000018001e700 f   m_xSE9GNLJOSGMLwcrwI4qWD.obj
 0001:00020840       RigidBody_get_Joint        0000000180021840 f   m_xSE9GNLJOSGMLwcrwI4qWD.obj
 0001:00020b20       rigidBodyJoint_transformBodyToParent 0000000180021b20 f   m_xSE9GNLJOSGMLwcrwI4qWD.obj
 0001:000216b0       d_strcmp                   00000001800226b0 f   m_xSE9GNLJOSGMLwcrwI4qWD.obj
 0001:00021760       normalizeRows              0000000180022760 f   m_xSE9GNLJOSGMLwcrwI4qWD.obj
 0001:00021be0       sumColumnB                 0000000180022be0 f   m_xSE9GNLJOSGMLwcrwI4qWD.obj
 0001:00021c50       cat                        0000000180022c50 f   m_xSE9GNLJOSGMLwcrwI4qWD.obj
 0001:00021d50       permute                    0000000180022d50 f   m_xSE9GNLJOSGMLwcrwI4qWD.obj
 0001:00021de0       b_rigidBodyJoint_transformBodyToParent 0000000180022de0 f   m_xSE9GNLJOSGMLwcrwI4qWD.obj
 0001:000233e0       tforminv                   00000001800243e0 f   m_xSE9GNLJOSGMLwcrwI4qWD.obj
 0001:00023640       tformToSpatialXform        0000000180024640 f   m_xSE9GNLJOSGMLwcrwI4qWD.obj
 0001:000239f0       mtimes                     00000001800249f0 f   m_xSE9GNLJOSGMLwcrwI4qWD.obj
 0001:00023c40       dynamic_size_checks        0000000180024c40 f   m_xSE9GNLJOSGMLwcrwI4qWD.obj
 0001:00024000       b_mtimes                   0000000180025000 f   m_xSE9GNLJOSGMLwcrwI4qWD.obj
 0001:000241d0       b_dynamic_size_checks      00000001800251d0 f   m_xSE9GNLJOSGMLwcrwI4qWD.obj
 0001:00024590       c_mtimes                   0000000180025590 f   m_xSE9GNLJOSGMLwcrwI4qWD.obj
 0001:00024770       crossMotion                0000000180025770 f   m_xSE9GNLJOSGMLwcrwI4qWD.obj
 0001:00024b60       crossForce                 0000000180025b60 f   m_xSE9GNLJOSGMLwcrwI4qWD.obj
 0001:00024f50       d_mtimes                   0000000180025f50 f   m_xSE9GNLJOSGMLwcrwI4qWD.obj
 0001:00025160       b_RigidBodyTreeDynamics_inverseDynamics 0000000180026160 f   m_xSE9GNLJOSGMLwcrwI4qWD.obj
 0001:00028250       handle_matlabCodegenDestructor 0000000180029250 f   m_xSE9GNLJOSGMLwcrwI4qWD.obj
 0001:00028470       message                    0000000180029470 f   m_xSE9GNLJOSGMLwcrwI4qWD.obj
 0001:00028510       getString                  0000000180029510 f   m_xSE9GNLJOSGMLwcrwI4qWD.obj
 0001:00028580       error                      0000000180029580 f   m_xSE9GNLJOSGMLwcrwI4qWD.obj
 0001:00028610       b_message                  0000000180029610 f   m_xSE9GNLJOSGMLwcrwI4qWD.obj
 0001:00028680       c_message                  0000000180029680 f   m_xSE9GNLJOSGMLwcrwI4qWD.obj
 0001:00028750       emxInitStruct_robotics_slmanip_ 0000000180029750 f   m_xSE9GNLJOSGMLwcrwI4qWD.obj
 0001:00028780       emxInitStruct_robotics_manip_in 0000000180029780 f   m_xSE9GNLJOSGMLwcrwI4qWD.obj
 0001:000287c0       b_emxInitStruct_robotics_manip_in 00000001800297c0 f   m_xSE9GNLJOSGMLwcrwI4qWD.obj
 0001:00028810       emxInit_char_T             0000000180029810 f   m_xSE9GNLJOSGMLwcrwI4qWD.obj
 0001:000288d0       emxInitStruct_rigidBodyJoint 00000001800298d0 f   m_xSE9GNLJOSGMLwcrwI4qWD.obj
 0001:00028910       emxInit_real_T             0000000180029910 f   m_xSE9GNLJOSGMLwcrwI4qWD.obj
 0001:000289d0       c_emxInitStruct_robotics_manip_in 00000001800299d0 f   m_xSE9GNLJOSGMLwcrwI4qWD.obj
 0001:00028a00       emxInit_robotics_manip_internal 0000000180029a00 f   m_xSE9GNLJOSGMLwcrwI4qWD.obj
 0001:00028ac0       emxInitMatrix_robotics_manip_in 0000000180029ac0 f   m_xSE9GNLJOSGMLwcrwI4qWD.obj
 0001:00028b10       emxFree_char_T             0000000180029b10 f   m_xSE9GNLJOSGMLwcrwI4qWD.obj
 0001:00028b90       emxFreeStruct_robotics_manip_in 0000000180029b90 f   m_xSE9GNLJOSGMLwcrwI4qWD.obj
 0001:00028be0       emxFreeStruct_rigidBodyJoint 0000000180029be0 f   m_xSE9GNLJOSGMLwcrwI4qWD.obj
 0001:00028c20       emxFree_real_T             0000000180029c20 f   m_xSE9GNLJOSGMLwcrwI4qWD.obj
 0001:00028ca0       emxFree_robotics_manip_internal 0000000180029ca0 f   m_xSE9GNLJOSGMLwcrwI4qWD.obj
 0001:00028d20       b_emxFreeStruct_robotics_manip_in 0000000180029d20 f   m_xSE9GNLJOSGMLwcrwI4qWD.obj
 0001:00028d50       c_emxFreeStruct_robotics_manip_in 0000000180029d50 f   m_xSE9GNLJOSGMLwcrwI4qWD.obj
 0001:00028d90       emxFreeMatrix_robotics_manip_in 0000000180029d90 f   m_xSE9GNLJOSGMLwcrwI4qWD.obj
 0001:00028de0       emxFreeStruct_robotics_slmanip_ 0000000180029de0 f   m_xSE9GNLJOSGMLwcrwI4qWD.obj
 0001:00028e10       emxEnsureCapacity_char_T   0000000180029e10 f   m_xSE9GNLJOSGMLwcrwI4qWD.obj
 0001:00028f50       emxEnsureCapacity_real_T   0000000180029f50 f   m_xSE9GNLJOSGMLwcrwI4qWD.obj
 0001:00029090       emxEnsureCapacity_robotics_mani 000000018002a090 f   m_xSE9GNLJOSGMLwcrwI4qWD.obj
 0001:000291d0       emxEnsureCapacity_cell_wrap 000000018002a1d0 f   m_xSE9GNLJOSGMLwcrwI4qWD.obj
 0001:00029320       emxInit_cell_wrap          000000018002a320 f   m_xSE9GNLJOSGMLwcrwI4qWD.obj
 0001:000293e0       emxInit_real_T1            000000018002a3e0 f   m_xSE9GNLJOSGMLwcrwI4qWD.obj
 0001:000294a0       emxFree_cell_wrap          000000018002a4a0 f   m_xSE9GNLJOSGMLwcrwI4qWD.obj
 0001:00029520       emxEnsureCapacity_real_T1  000000018002a520 f   m_xSE9GNLJOSGMLwcrwI4qWD.obj
 0001:00029660       init_simulink_io_address   000000018002a660 f   m_xSE9GNLJOSGMLwcrwI4qWD.obj
 0001:000296f0       mdlOutputs_xSE9GNLJOSGMLwcrwI4qWD 000000018002a6f0 f   m_xSE9GNLJOSGMLwcrwI4qWD.obj
 0001:00029730       mdlInitialize_xSE9GNLJOSGMLwcrwI4qWD 000000018002a730 f   m_xSE9GNLJOSGMLwcrwI4qWD.obj
 0001:00029760       mdlUpdate_xSE9GNLJOSGMLwcrwI4qWD 000000018002a760 f   m_xSE9GNLJOSGMLwcrwI4qWD.obj
 0001:000297a0       mdlTerminate_xSE9GNLJOSGMLwcrwI4qWD 000000018002a7a0 f   m_xSE9GNLJOSGMLwcrwI4qWD.obj
 0001:000297e0       mdlEnable_xSE9GNLJOSGMLwcrwI4qWD 000000018002a7e0 f   m_xSE9GNLJOSGMLwcrwI4qWD.obj
 0001:00029810       mdlDisable_xSE9GNLJOSGMLwcrwI4qWD 000000018002a810 f   m_xSE9GNLJOSGMLwcrwI4qWD.obj
 0001:00029840       mdlStart_xSE9GNLJOSGMLwcrwI4qWD 000000018002a840 f   m_xSE9GNLJOSGMLwcrwI4qWD.obj
 0001:00029940       mdlProcessParameters_xSE9GNLJOSGMLwcrwI4qWD 000000018002a940 f   m_xSE9GNLJOSGMLwcrwI4qWD.obj
 0001:0002baec       $LN147                     000000018002caec     CTM_PID_withoutG_cgxe_registry.obj
 0001:0002c954       $LN22                      000000018002d954     CTM_PID_withoutG_cgxe_registry.obj
 0001:0002d054       $LN26                      000000018002e054     CTM_PID_withoutG_cgxe_registry.obj
 0001:0002d734       $LN24                      000000018002e734     CTM_PID_withoutG_cgxe_registry.obj
 0001:0002e46c       $LN30                      000000018002f46c     CTM_PID_withoutG_cgxe_registry.obj
 0001:00030e50       mdlStart                   0000000180031e50 f   CTM_PID_withoutG_cgxe_registry.obj
 0001:00030e90       mdlInitializeConditions    0000000180031e90 f   CTM_PID_withoutG_cgxe_registry.obj
 0001:00030eb0       mdlUpdate                  0000000180031eb0 f   CTM_PID_withoutG_cgxe_registry.obj
 0001:00030ee0       mdlOutputs                 0000000180031ee0 f   CTM_PID_withoutG_cgxe_registry.obj
 0001:00030f10       mdlTerminate               0000000180031f10 f   CTM_PID_withoutG_cgxe_registry.obj
 0001:00030f30       mdlInitializeSizes         0000000180031f30 f   CTM_PID_withoutG_cgxe_registry.obj
 0001:00030f40       mdlInitializeSampleTimes   0000000180031f40 f   CTM_PID_withoutG_cgxe_registry.obj
 0001:00030f50       cgxe_get_supported_modules 0000000180031f50 f   CTM_PID_withoutG_cgxe_registry.obj
 0001:000310b0       cgxe_process_get_checksums 00000001800320b0 f   CTM_PID_withoutG_cgxe_registry.obj
 0001:00031440       cgxe_mex_unlock_call       0000000180032440 f   CTM_PID_withoutG_cgxe_registry.obj
 0001:00031480       cgxe_unpack_simstruct      0000000180032480 f   CTM_PID_withoutG_cgxe_registry.obj
 0001:00031520       cgxe_get_sim_state         0000000180032520 f   CTM_PID_withoutG_cgxe_registry.obj
 0001:00031590       cgxe_set_sim_state         0000000180032590 f   CTM_PID_withoutG_cgxe_registry.obj
 0001:00031610       cgxe_get_BuildInfoUpdate   0000000180032610 f   CTM_PID_withoutG_cgxe_registry.obj
 0001:00031710       cgxe_get_fallback_info     0000000180032710 f   CTM_PID_withoutG_cgxe_registry.obj
 0001:00031810       ProcessMexSfunctionCmdLineCall 0000000180032810 f   CTM_PID_withoutG_cgxe_registry.obj
 0001:00031a40       mdlZeroCrossings           0000000180032a40 f   CTM_PID_withoutG_cgxe_registry.obj
 0001:00031a90       mdlGetTimeOfNextVarHit     0000000180032a90 f   CTM_PID_withoutG_cgxe_registry.obj
 0001:00031ae0       _RegNumInputPortsCB        0000000180032ae0 f   CTM_PID_withoutG_cgxe_registry.obj
 0001:00031b60       _RegNumOutputPortsCB       0000000180032b60 f   CTM_PID_withoutG_cgxe_registry.obj
 0001:00031be0       _CreateSimStruct           0000000180032be0 f   CTM_PID_withoutG_cgxe_registry.obj
 0001:00031e10       _ProcessMexSfunctionCmdLineCall 0000000180032e10 f   CTM_PID_withoutG_cgxe_registry.obj
 0001:000327a0       ReportIndexOutOfBoundsError 00000001800337a0 f   CTM_PID_withoutG_cgxe_registry.obj
 0001:00032aa0       ccdSign                    0000000180033aa0 f   ccd_ccd.obj
 0001:00032af0       ccdIsZero                  0000000180033af0 f   ccd_ccd.obj
 0001:00032b40       ccdEq                      0000000180033b40 f   ccd_ccd.obj
 0001:00032c30       ccdVec3X                   0000000180033c30 f   ccd_ccd.obj
 0001:00032c50       ccdVec3Y                   0000000180033c50 f   ccd_ccd.obj
 0001:00032c70       ccdVec3Z                   0000000180033c70 f   ccd_ccd.obj
 0001:00032c90       ccdVec3Eq                  0000000180033c90 f   ccd_ccd.obj
 0001:00032d40       ccdVec3Len2                0000000180033d40 f   ccd_ccd.obj
 0001:00032d70       ccdVec3Set                 0000000180033d70 f   ccd_ccd.obj
 0001:00032de0       ccdVec3Copy                0000000180033de0 f   ccd_ccd.obj
 0001:00032e10       ccdVec3Add                 0000000180033e10 f   ccd_ccd.obj
 0001:00032ed0       ccdVec3Sub2                0000000180033ed0 f   ccd_ccd.obj
 0001:00032fa0       ccdVec3Scale               0000000180033fa0 f   ccd_ccd.obj
 0001:00033040       ccdVec3Normalize           0000000180034040 f   ccd_ccd.obj
 0001:00033090       ccdVec3Dot                 0000000180034090 f   ccd_ccd.obj
 0001:00033150       ccdVec3Cross               0000000180034150 f   ccd_ccd.obj
 0001:000332a0       ccdSupportCopy             00000001800342a0 f   ccd_ccd.obj
 0001:000332d0       ccdSimplexInit             00000001800342d0 f   ccd_ccd.obj
 0001:000332f0       ccdSimplexSize             00000001800342f0 f   ccd_ccd.obj
 0001:00033310       ccdSimplexLast             0000000180034310 f   ccd_ccd.obj
 0001:00033340       ccdSimplexPoint            0000000180034340 f   ccd_ccd.obj
 0001:00033370       ccdSimplexAdd              0000000180034370 f   ccd_ccd.obj
 0001:000333d0       ccdSimplexSet              00000001800343d0 f   ccd_ccd.obj
 0001:00033410       ccdSimplexSetSize          0000000180034410 f   ccd_ccd.obj
 0001:00033940       ccdListDel                 0000000180034940 f   ccd_ccd.obj
 0001:00033990       ccdPtFaceVec3              0000000180034990 f   ccd_ccd.obj
 0001:00033af0       ccdPtFaceEdges             0000000180034af0 f   ccd_ccd.obj
 0001:00033b60       ccdPtEdgeVec3              0000000180034b60 f   ccd_ccd.obj
 0001:00033bc0       ccdPtEdgeVertices          0000000180034bc0 f   ccd_ccd.obj
 0001:00033c10       ccdPtEdgeFaces             0000000180034c10 f   ccd_ccd.obj
 0001:00033c60       ccdPtDelEdge               0000000180034c60 f   ccd_ccd.obj
 0001:00033d10       ccdPtDelFace               0000000180034d10 f   ccd_ccd.obj
 0001:00033e00       __ccdGJKEPA                0000000180034e00 f   ccd_ccd.obj
 0001:00034030       doSimplex                  0000000180035030 f   ccd_ccd.obj
 0001:000340a0       doSimplex2                 00000001800350a0 f   ccd_ccd.obj
 0001:00034210       doSimplex3                 0000000180035210 f   ccd_ccd.obj
 0001:00034650       doSimplex4                 0000000180035650 f   ccd_ccd.obj
 0001:00034b70       tripleCross                0000000180035b70 f   ccd_ccd.obj
 0001:00034be0       simplexToPolytope4         0000000180035be0 f   ccd_ccd.obj
 0001:00035160       simplexToPolytope3         0000000180036160 f   ccd_ccd.obj
 0001:00035980       simplexToPolytope2         0000000180036980 f   ccd_ccd.obj
 0001:00036400       expandPolytope             0000000180037400 f   ccd_ccd.obj
 0001:00036fe0       nextSupport                0000000180037fe0 f   ccd_ccd.obj
 0001:00037150       penEPAPosCmp               0000000180038150 f   ccd_ccd.obj
 0001:000371d0       penEPAPos                  00000001800381d0 f   ccd_ccd.obj
 0001:000373d0       ccdIsZero                  00000001800383d0 f   ccd_mpr.obj
 0001:00037420       ccdEq                      0000000180038420 f   ccd_mpr.obj
 0001:00037510       ccdVec3X                   0000000180038510 f   ccd_mpr.obj
 0001:00037530       ccdVec3Y                   0000000180038530 f   ccd_mpr.obj
 0001:00037550       ccdVec3Z                   0000000180038550 f   ccd_mpr.obj
 0001:00037570       ccdVec3Eq                  0000000180038570 f   ccd_mpr.obj
 0001:00037620       ccdVec3Len2                0000000180038620 f   ccd_mpr.obj
 0001:00037650       ccdVec3Set                 0000000180038650 f   ccd_mpr.obj
 0001:000376c0       ccdVec3Copy                00000001800386c0 f   ccd_mpr.obj
 0001:000376f0       ccdVec3Add                 00000001800386f0 f   ccd_mpr.obj
 0001:000377b0       ccdVec3Sub2                00000001800387b0 f   ccd_mpr.obj
 0001:00037880       ccdVec3Scale               0000000180038880 f   ccd_mpr.obj
 0001:00037920       ccdVec3Normalize           0000000180038920 f   ccd_mpr.obj
 0001:00037970       ccdVec3Dot                 0000000180038970 f   ccd_mpr.obj
 0001:00037a30       ccdVec3Cross               0000000180038a30 f   ccd_mpr.obj
 0001:00037b80       ccdSupportCopy             0000000180038b80 f   ccd_mpr.obj
 0001:00037bb0       ccdSimplexSize             0000000180038bb0 f   ccd_mpr.obj
 0001:00037bd0       ccdSimplexPoint            0000000180038bd0 f   ccd_mpr.obj
 0001:00037c00       ccdSimplexPointW           0000000180038c00 f   ccd_mpr.obj
 0001:00037c30       ccdSimplexSet              0000000180038c30 f   ccd_mpr.obj
 0001:00037c70       ccdSimplexSetSize          0000000180038c70 f   ccd_mpr.obj
 0001:00037ca0       ccdSimplexSwap             0000000180038ca0 f   ccd_mpr.obj
 0001:00037ff0       findOrigin                 0000000180038ff0 f   ccd_mpr.obj
 0001:00038080       discoverPortal             0000000180039080 f   ccd_mpr.obj
 0001:00038730       refinePortal               0000000180039730 f   ccd_mpr.obj
 0001:00038850       findPenetr                 0000000180039850 f   ccd_mpr.obj
 0001:00038a50       findPenetrTouch            0000000180039a50 f   ccd_mpr.obj
 0001:00038af0       findPenetrSegment          0000000180039af0 f   ccd_mpr.obj
 0001:00038bb0       findPos                    0000000180039bb0 f   ccd_mpr.obj
 0001:00039110       expandPortal               000000018003a110 f   ccd_mpr.obj
 0001:00039260       portalDir                  000000018003a260 f   ccd_mpr.obj
 0001:00039340       portalEncapsulesOrigin     000000018003a340 f   ccd_mpr.obj
 0001:000393b0       portalReachTolerance       000000018003a3b0 f   ccd_mpr.obj
 0001:00039510       portalCanEncapsuleOrigin   000000018003a510 f   ccd_mpr.obj
 0001:00039580       ccdEq                      000000018003a580 f   ccd_polytope.obj
 0001:00039670       ccdVec3X                   000000018003a670 f   ccd_polytope.obj
 0001:00039690       ccdVec3Y                   000000018003a690 f   ccd_polytope.obj
 0001:000396b0       ccdVec3Z                   000000018003a6b0 f   ccd_polytope.obj
 0001:000396d0       ccdVec3Len2                000000018003a6d0 f   ccd_polytope.obj
 0001:00039700       ccdVec3Copy                000000018003a700 f   ccd_polytope.obj
 0001:00039730       ccdVec3Dot                 000000018003a730 f   ccd_polytope.obj
 0001:000397f0       ccdSupportCopy             000000018003a7f0 f   ccd_polytope.obj
 0001:00039820       ccdListInit                000000018003a820 f   ccd_polytope.obj
 0001:00039850       ccdListEmpty               000000018003a850 f   ccd_polytope.obj
 0001:00039890       ccdListAppend              000000018003a890 f   ccd_polytope.obj
 0001:000398e0       ccdListDel                 000000018003a8e0 f   ccd_polytope.obj
 0001:0003a040       ccdPtDelVertex             000000018003b040 f   ccd_polytope.obj
 0001:0003a0c0       ccdPtDelEdge               000000018003b0c0 f   ccd_polytope.obj
 0001:0003a170       ccdPtDelFace               000000018003b170 f   ccd_polytope.obj
 0001:0003a8f0       _ccdPtNearestUpdate        000000018003b8f0 f   ccd_polytope.obj
 0001:0003a9c0       _ccdPtNearestRenew         000000018003b9c0 f   ccd_polytope.obj
 0001:0003ab80       ccdIsZero                  000000018003bb80 f   ccd_vec3.obj
 0001:0003abd0       ccdEq                      000000018003bbd0 f   ccd_vec3.obj
 0001:0003acc0       ccdVec3Len2                000000018003bcc0 f   ccd_vec3.obj
 0001:0003acf0       ccdVec3Dist2               000000018003bcf0 f   ccd_vec3.obj
 0001:0003ad50       ccdVec3Copy                000000018003bd50 f   ccd_vec3.obj
 0001:0003ad80       ccdVec3Add                 000000018003bd80 f   ccd_vec3.obj
 0001:0003ae40       ccdVec3Sub2                000000018003be40 f   ccd_vec3.obj
 0001:0003af10       ccdVec3Scale               000000018003bf10 f   ccd_vec3.obj
 0001:0003afb0       ccdVec3Dot                 000000018003bfb0 f   ccd_vec3.obj
 0001:0003b5b0       __ccdVec3PointSegmentDist2 000000018003c5b0 f   ccd_vec3.obj
 0001:0003b7c0       ccdVec3X                   000000018003c7c0 f   collisioncodegen_CollisionGeometry.obj
 0001:0003b7e0       ccdVec3Y                   000000018003c7e0 f   collisioncodegen_CollisionGeometry.obj
 0001:0003b800       ccdVec3Z                   000000018003c800 f   collisioncodegen_CollisionGeometry.obj
 0001:0003b820       ccdVec3Len2                000000018003c820 f   collisioncodegen_CollisionGeometry.obj
 0001:0003b850       ccdVec3Set                 000000018003c850 f   collisioncodegen_CollisionGeometry.obj
 0001:0003b8c0       ccdVec3Copy                000000018003c8c0 f   collisioncodegen_CollisionGeometry.obj
 0001:0003b8f0       ccdVec3Add                 000000018003c8f0 f   collisioncodegen_CollisionGeometry.obj
 0001:0003b9b0       ccdVec3Scale               000000018003c9b0 f   collisioncodegen_CollisionGeometry.obj
 0001:0003ba50       ccdVec3Dot                 000000018003ca50 f   collisioncodegen_CollisionGeometry.obj
 0001:0003bb10       ccdQuatLen2                000000018003cb10 f   collisioncodegen_CollisionGeometry.obj
 0001:0003bc00       ccdQuatCopy                000000018003cc00 f   collisioncodegen_CollisionGeometry.obj
 0001:0003bc30       ccdQuatInvert              000000018003cc30 f   collisioncodegen_CollisionGeometry.obj
 0001:0003bd50       ccdQuatInvert2             000000018003cd50 f   collisioncodegen_CollisionGeometry.obj
 0001:0003bd90       ccdQuatRotVec              000000018003cd90 f   collisioncodegen_CollisionGeometry.obj
 0001:0003cbb4       $LN25                      000000018003dbb4     collisioncodegen_CollisionGeometry.obj
 0001:00042580       ccdVec3Set                 0000000180043580 f   collisioncodegen_api.obj
 0001:00045ef0       ccdEq                      0000000180046ef0 f   collisioncodegen_ccdExtensions.obj
 0001:00045fe0       ccdVec3X                   0000000180046fe0 f   collisioncodegen_ccdExtensions.obj
 0001:00046000       ccdVec3Y                   0000000180047000 f   collisioncodegen_ccdExtensions.obj
 0001:00046020       ccdVec3Z                   0000000180047020 f   collisioncodegen_ccdExtensions.obj
 0001:00046040       ccdVec3Eq                  0000000180047040 f   collisioncodegen_ccdExtensions.obj
 0001:000460f0       ccdVec3Len2                00000001800470f0 f   collisioncodegen_ccdExtensions.obj
 0001:00046120       ccdVec3Set                 0000000180047120 f   collisioncodegen_ccdExtensions.obj
 0001:00046190       ccdVec3Copy                0000000180047190 f   collisioncodegen_ccdExtensions.obj
 0001:000461c0       ccdVec3Add                 00000001800471c0 f   collisioncodegen_ccdExtensions.obj
 0001:00046280       ccdVec3Sub2                0000000180047280 f   collisioncodegen_ccdExtensions.obj
 0001:00046350       ccdVec3Scale               0000000180047350 f   collisioncodegen_ccdExtensions.obj
 0001:000463f0       ccdVec3Dot                 00000001800473f0 f   collisioncodegen_ccdExtensions.obj
 0001:000464b0       ccdVec3Cross               00000001800474b0 f   collisioncodegen_ccdExtensions.obj
 0001:00046600       ccdSimplexSize             0000000180047600 f   collisioncodegen_ccdExtensions.obj
 0001:00047ad0       ccdVec3Set                 0000000180048ad0 f   collisioncodegen_checkCollision.obj
 0001:00047b40       ccdQuatSet                 0000000180048b40 f   collisioncodegen_checkCollision.obj
 0001:00048000       ?fSupport@@YAXPEBXPEBU_ccd_vec3_t@@PEAU1@@Z 0000000180049000 f   collisioncodegen_checkCollision.obj
 0001:00048454       capture_current_context    0000000180049454 f   MSVCRT:gs_report.obj
 0001:000484c4       capture_previous_context   00000001800494c4 f   MSVCRT:gs_report.obj
 0001:000485c0       $$000000                   00000001800495c0     MSVCRT:amdsecgs.obj
 0001:000486ec       ?dllmain_crt_dispatch@@YAHQEAUHINSTANCE__@@KQEAX@Z 00000001800496ec f   MSVCRT:dll_dllmain.obj
 0001:0004873c       ?dllmain_crt_process_attach@@YAHQEAUHINSTANCE__@@QEAX@Z 000000018004973c f   MSVCRT:dll_dllmain.obj
 0001:00048854       ?dllmain_crt_process_detach@@YAH_N@Z 0000000180049854 f   MSVCRT:dll_dllmain.obj
 0001:000488d8       ?dllmain_dispatch@@YAHQEAUHINSTANCE__@@KQEAX@Z 00000001800498d8 f   MSVCRT:dll_dllmain.obj
 0001:00048a0c       ?dllmain_raw@@YAHQEAUHINSTANCE__@@KQEAX@Z 0000000180049a0c f   MSVCRT:dll_dllmain.obj
 0001:00048ad8       __get_entropy              0000000180049ad8 f   MSVCRT:gs_support.obj
 0001:00048c68       ?find_pe_section@@YAPEAU_IMAGE_SECTION_HEADER@@QEAE_K@Z 0000000180049c68 f   MSVCRT:utility.obj
 0001:00048cbc       ?is_potentially_valid_image_base@@YA_NQEAX@Z 0000000180049cbc f   MSVCRT:utility.obj
 0001:00049404       __castguard_check_failure_os_handled_wrapper 000000018004a404 f   MSVCRT:guard_support.obj
 0001:00049424       __castguard_compat_check   000000018004a424 f   MSVCRT:guard_support.obj
 0001:0004950c       __castguard_slow_path_compat_check 000000018004a50c f   MSVCRT:guard_support.obj
 0001:000498f0       $$000000                   000000018004a8f0     MSVCRT:guard_dispatch.obj
 0001:00049910       $$000000                   000000018004a910     MSVCRT:guard_xfg_dispatch.obj
 0001:00049930       ?dtor$0@?0??support@CollisionGeometry@shared_robotics@@QEBAXPEBU_ccd_vec3_t@@PEAU3@@Z@4HA 000000018004a930 f   collisioncodegen_CollisionGeometry.obj
 0001:00049950       ?dtor$0@?0???$?6U?$char_traits@D@std@@@std@@YAAEAV?$basic_ostream@DU?$char_traits@D@std@@@0@AEAV10@PEBD@Z@4HA 000000018004a950 f   collisioncodegen_CollisionGeometry.obj
 0001:00049970       ?catch$1@?0???$?6U?$char_traits@D@std@@@std@@YAAEAV?$basic_ostream@DU?$char_traits@D@std@@@0@AEAV10@PEBD@Z@4HA 000000018004a970 f   collisioncodegen_CollisionGeometry.obj
 0001:0004997d       __catch$??$?6U?$char_traits@D@std@@@std@@YAAEAV?$basic_ostream@DU?$char_traits@D@std@@@0@AEAV10@PEBD@Z$0 000000018004a97d f   collisioncodegen_CollisionGeometry.obj
 0001:000499c0       ?catch$0@?0???$_Emplace_reallocate@AEB_K@?$vector@_KV?$allocator@_K@std@@@std@@QEAAPEA_KQEA_KAEB_K@Z@4HA 000000018004a9c0 f   collisioncodegen_CollisionGeometry.obj
 0001:000499cd       __catch$??$_Emplace_reallocate@AEB_K@?$vector@_KV?$allocator@_K@std@@@std@@QEAAPEA_KQEA_KAEB_K@Z$0 000000018004a9cd f   collisioncodegen_CollisionGeometry.obj
 0001:00049a10       ?catch$0@?0???$_Emplace_reallocate@N@?$vector@NV?$allocator@N@std@@@std@@QEAAPEANQEAN$$QEAN@Z@4HA 000000018004aa10 f   collisioncodegen_CollisionGeometry.obj
 0001:00049a1d       __catch$??$_Emplace_reallocate@N@?$vector@NV?$allocator@N@std@@@std@@QEAAPEANQEAN$$QEAN@Z$0 000000018004aa1d f   collisioncodegen_CollisionGeometry.obj
 0001:00049a60       ?catch$0@?0???$_Resize_reallocate@U_Value_init_tag@std@@@?$vector@V?$vector@_KV?$allocator@_K@std@@@std@@V?$allocator@V?$vector@_KV?$allocator@_K@std@@@std@@@2@@std@@AEAAX_KAEBU_Value_init_tag@1@@Z@4HA 000000018004aa60 f   collisioncodegen_CollisionGeometry.obj
 0001:00049a6d       __catch$??$_Resize_reallocate@U_Value_init_tag@std@@@?$vector@V?$vector@_KV?$allocator@_K@std@@@std@@V?$allocator@V?$vector@_KV?$allocator@_K@std@@@std@@@2@@std@@AEAAX_KAEBU_Value_init_tag@1@@Z$0 000000018004aa6d f   collisioncodegen_CollisionGeometry.obj
 0001:00049ab0       ?catch$0@?0???$_Resize_reallocate@U_Value_init_tag@std@@@?$vector@_KV?$allocator@_K@std@@@std@@AEAAX_KAEBU_Value_init_tag@1@@Z@4HA 000000018004aab0 f   collisioncodegen_CollisionGeometry.obj
 0001:00049abd       __catch$??$_Resize_reallocate@U_Value_init_tag@std@@@?$vector@_KV?$allocator@_K@std@@@std@@AEAAX_KAEBU_Value_init_tag@1@@Z$0 000000018004aabd f   collisioncodegen_CollisionGeometry.obj
 0001:00049b00       ?dtor$0@?0???$_Uninitialized_move@PEANV?$allocator@N@std@@@std@@YAPEANQEAN0PEANAEAV?$allocator@N@0@@Z@4HA 000000018004ab00 f   collisioncodegen_CollisionGeometry.obj
 0001:00049b20       ?dtor$0@?0???$_Uninitialized_move@PEAV?$vector@_KV?$allocator@_K@std@@@std@@V?$allocator@V?$vector@_KV?$allocator@_K@std@@@std@@@2@@std@@YAPEAV?$vector@_KV?$allocator@_K@std@@@0@QEAV10@0PEAV10@AEAV?$allocator@V?$vector@_KV?$allocator@_K@std@@@std@@@0@@Z@4HA 000000018004ab20 f   collisioncodegen_CollisionGeometry.obj
 0001:00049b40       ?dtor$0@?0???$_Uninitialized_move@PEA_KV?$allocator@_K@std@@@std@@YAPEA_KQEA_K0PEA_KAEAV?$allocator@_K@0@@Z@4HA 000000018004ab40 f   collisioncodegen_CollisionGeometry.obj
 0001:00049b60       ?dtor$0@?0???$_Uninitialized_value_construct_n@V?$allocator@V?$vector@_KV?$allocator@_K@std@@@std@@@std@@@std@@YAPEAV?$vector@_KV?$allocator@_K@std@@@0@PEAV10@_KAEAV?$allocator@V?$vector@_KV?$allocator@_K@std@@@std@@@0@@Z@4HA 000000018004ab60 f   collisioncodegen_CollisionGeometry.obj
 0001:00049b80       ?dtor$0@?0???$_Uninitialized_value_construct_n@V?$allocator@_K@std@@@std@@YAPEA_KPEA_K_KAEAV?$allocator@_K@0@@Z@4HA 000000018004ab80 f   collisioncodegen_CollisionGeometry.obj
 0001:00049ba0       ?dtor$0@?0???0sentry@?$basic_ostream@DU?$char_traits@D@std@@@std@@QEAA@AEAV12@@Z@4HA 000000018004aba0 f   collisioncodegen_CollisionGeometry.obj
 0001:00049bc0       collisioncodegen_makeBox$dtor$0 000000018004abc0 f   collisioncodegen_api.obj
 0001:00049bdd       collisioncodegen_makeSphere$dtor$0 000000018004abdd f   collisioncodegen_api.obj
 0001:00049bfa       collisioncodegen_makeCylinder$dtor$0 000000018004abfa f   collisioncodegen_api.obj
 0001:00049c17       collisioncodegen_makeCapsule$dtor$0 000000018004ac17 f   collisioncodegen_api.obj
 0001:00049c34       collisioncodegen_makeMesh$dtor$0 000000018004ac34 f   collisioncodegen_api.obj
 0001:00049c51       collisioncodegen_copyGeometry$dtor$0 000000018004ac51 f   collisioncodegen_api.obj
 0001:00049c6e       collisioncodegen_getType$dtor$0 000000018004ac6e f   collisioncodegen_api.obj
 0001:00049c90       ?dtor$0@?0???$_Construct_n@AEBQEAU_ccd_vec3_t@@AEBQEAU1@@?$vector@U_ccd_vec3_t@@V?$allocator@U_ccd_vec3_t@@@std@@@std@@AEAAX_KAEBQEAU_ccd_vec3_t@@1@Z@4HA 000000018004ac90 f   collisioncodegen_api.obj
 0001:00049cb0       ?dtor$0@?0???$_Construct_n@AEBQEAU_idx_vec3_t@shared_robotics@@AEBQEAU12@@?$vector@U_idx_vec3_t@shared_robotics@@V?$allocator@U_idx_vec3_t@shared_robotics@@@std@@@std@@AEAAX_KAEBQEAU_idx_vec3_t@shared_robotics@@1@Z@4HA 000000018004acb0 f   collisioncodegen_api.obj
 0001:00049cd0       ?dtor$0@?0???$_Construct_n@AEBQEAV?$vector@_KV?$allocator@_K@std@@@std@@AEBQEAV12@@?$vector@V?$vector@_KV?$allocator@_K@std@@@std@@V?$allocator@V?$vector@_KV?$allocator@_K@std@@@std@@@2@@std@@AEAAX_KAEBQEAV?$vector@_KV?$allocator@_K@std@@@1@1@Z@4HA 000000018004acd0 f   collisioncodegen_api.obj
 0001:00049cf0       ?dtor$0@?0???$_Construct_n@AEBQEA_KAEBQEA_K@?$vector@_KV?$allocator@_K@std@@@std@@AEAAX_KAEBQEA_K1@Z@4HA 000000018004acf0 f   collisioncodegen_api.obj
 0001:00049d10       ?catch$0@?0???$_Emplace_reallocate@AEBU_ccd_vec3_t@@@?$vector@U_ccd_vec3_t@@V?$allocator@U_ccd_vec3_t@@@std@@@std@@QEAAPEAU_ccd_vec3_t@@QEAU2@AEBU2@@Z@4HA 000000018004ad10 f   collisioncodegen_api.obj
 0001:00049d1d       __catch$??$_Emplace_reallocate@AEBU_ccd_vec3_t@@@?$vector@U_ccd_vec3_t@@V?$allocator@U_ccd_vec3_t@@@std@@@std@@QEAAPEAU_ccd_vec3_t@@QEAU2@AEBU2@@Z$0 000000018004ad1d f   collisioncodegen_api.obj
 0001:00049d60       ?dtor$0@?0???$_Uninitialized_copy@PEAU_ccd_vec3_t@@V?$allocator@U_ccd_vec3_t@@@std@@@std@@YAPEAU_ccd_vec3_t@@QEAU1@0PEAU1@AEAV?$allocator@U_ccd_vec3_t@@@0@@Z@4HA 000000018004ad60 f   collisioncodegen_api.obj
 0001:00049d80       ?dtor$0@?0???$_Uninitialized_copy@PEAU_idx_vec3_t@shared_robotics@@V?$allocator@U_idx_vec3_t@shared_robotics@@@std@@@std@@YAPEAU_idx_vec3_t@shared_robotics@@QEAU12@0PEAU12@AEAV?$allocator@U_idx_vec3_t@shared_robotics@@@0@@Z@4HA 000000018004ad80 f   collisioncodegen_api.obj
 0001:00049da0       ?dtor$0@?0???$_Uninitialized_copy@PEAV?$vector@_KV?$allocator@_K@std@@@std@@V?$allocator@V?$vector@_KV?$allocator@_K@std@@@std@@@2@@std@@YAPEAV?$vector@_KV?$allocator@_K@std@@@0@QEAV10@0PEAV10@AEAV?$allocator@V?$vector@_KV?$allocator@_K@std@@@std@@@0@@Z@4HA 000000018004ada0 f   collisioncodegen_api.obj
 0001:00049dc0       ?dtor$0@?0???$_Uninitialized_copy@PEA_KV?$allocator@_K@std@@@std@@YAPEA_KQEA_K0PEA_KAEAV?$allocator@_K@0@@Z@4HA 000000018004adc0 f   collisioncodegen_api.obj
 0001:00049de0       ?dtor$0@?0???$_Uninitialized_move@PEAU_ccd_vec3_t@@V?$allocator@U_ccd_vec3_t@@@std@@@std@@YAPEAU_ccd_vec3_t@@QEAU1@0PEAU1@AEAV?$allocator@U_ccd_vec3_t@@@0@@Z@4HA 000000018004ade0 f   collisioncodegen_api.obj
 0001:00049e00       ?dtor$0@?0???0?$basic_string@DU?$char_traits@D@std@@V?$allocator@D@2@@std@@QEAA@QEBD@Z@4HA 000000018004ae00 f   collisioncodegen_api.obj
 0001:00049e20       ?dtor$0@?0???0CollisionGeometry@shared_robotics@@QEAA@AEBV01@@Z@4HA 000000018004ae20 f   collisioncodegen_api.obj
 0001:00049e40       ?dtor$1@?0???0CollisionGeometry@shared_robotics@@QEAA@AEBV01@@Z@4HA 000000018004ae40 f   collisioncodegen_api.obj
 0001:00049e60       ?dtor$0@?0???0CollisionGeometry@shared_robotics@@QEAA@N@Z@4HA 000000018004ae60 f   collisioncodegen_api.obj
 0001:00049e80       ?dtor$1@?0???0CollisionGeometry@shared_robotics@@QEAA@N@Z@4HA 000000018004ae80 f   collisioncodegen_api.obj
 0001:00049ea0       ?dtor$2@?0???0CollisionGeometry@shared_robotics@@QEAA@N@Z@4HA 000000018004aea0 f   collisioncodegen_api.obj
 0001:00049ec0       ?dtor$0@?0???0CollisionGeometry@shared_robotics@@QEAA@NN@Z@4HA 000000018004aec0 f   collisioncodegen_api.obj
 0001:00049ee0       ?dtor$1@?0???0CollisionGeometry@shared_robotics@@QEAA@NN@Z@4HA 000000018004aee0 f   collisioncodegen_api.obj
 0001:00049f00       ?dtor$2@?0???0CollisionGeometry@shared_robotics@@QEAA@NN@Z@4HA 000000018004af00 f   collisioncodegen_api.obj
 0001:00049f20       ?dtor$0@?0???0CollisionGeometry@shared_robotics@@QEAA@NNN@Z@4HA 000000018004af20 f   collisioncodegen_api.obj
 0001:00049f40       ?dtor$1@?0???0CollisionGeometry@shared_robotics@@QEAA@NNN@Z@4HA 000000018004af40 f   collisioncodegen_api.obj
 0001:00049f60       ?dtor$2@?0???0CollisionGeometry@shared_robotics@@QEAA@NNN@Z@4HA 000000018004af60 f   collisioncodegen_api.obj
 0001:00049f80       ?dtor$0@?0???0CollisionGeometry@shared_robotics@@QEAA@PEANH_N@Z@4HA 000000018004af80 f   collisioncodegen_api.obj
 0001:00049fa0       ?dtor$1@?0???0CollisionGeometry@shared_robotics@@QEAA@PEANH_N@Z@4HA 000000018004afa0 f   collisioncodegen_api.obj
 0001:00049fc0       ?dtor$2@?0???0CollisionGeometry@shared_robotics@@QEAA@PEANH_N@Z@4HA 000000018004afc0 f   collisioncodegen_api.obj
 0001:00049fdc       ?fin$0@?0??dllmain_crt_process_attach@@YAHQEAUHINSTANCE__@@QEAX@Z@4HA 000000018004afdc f   MSVCRT:dll_dllmain.obj
 0001:00049ff3       ?fin$0@?0??dllmain_crt_process_detach@@YAH_N@Z@4HA 000000018004aff3 f   MSVCRT:dll_dllmain.obj
 0001:0004a00c       ?fin$1@?0??dllmain_crt_process_detach@@YAH_N@Z@4HA 000000018004b00c f   MSVCRT:dll_dllmain.obj
 0001:0004a020       ?filt$0@?0??dllmain_dispatch@@YAHQEAUHINSTANCE__@@KQEAX@Z@4HA 000000018004b020 f   MSVCRT:dll_dllmain.obj
 0001:0004a056       __scrt_is_nonwritable_in_current_image$filt$0 000000018004b056 f   MSVCRT:utility.obj
 0002:00000520       ?iv@?1??SystemCore_setup@@9@9 000000018004c520     m_FAU8KyrDQYUp9atreb3T4G.obj
 0002:00000528       ?iv1@?1??SystemCore_setup@@9@9 000000018004c528     m_FAU8KyrDQYUp9atreb3T4G.obj
 0002:00000530       ?iv2@?1??SystemCore_setup@@9@9 000000018004c530     m_FAU8KyrDQYUp9atreb3T4G.obj
 0002:00000538       ?iv@?1??mw__internal__call__reset@@9@9 000000018004c538     m_FAU8KyrDQYUp9atreb3T4G.obj
 0002:00000540       ?iv1@?1??mw__internal__call__reset@@9@9 000000018004c540     m_FAU8KyrDQYUp9atreb3T4G.obj
 0002:00000548       ?iv2@?1??mw__internal__call__reset@@9@9 000000018004c548     m_FAU8KyrDQYUp9atreb3T4G.obj
 0002:00000550       ?iv@?1??mw__internal__call__step@@9@9 000000018004c550     m_FAU8KyrDQYUp9atreb3T4G.obj
 0002:00000558       ?iv2@?1??mw__internal__call__step@@9@9 000000018004c558     m_FAU8KyrDQYUp9atreb3T4G.obj
 0002:00000560       ?iv3@?1??mw__internal__call__step@@9@9 000000018004c560     m_FAU8KyrDQYUp9atreb3T4G.obj
 0002:00000568       ?iv@?1??RigidBody_get_Joint@@9@9 000000018004c568     m_FAU8KyrDQYUp9atreb3T4G.obj
 0002:00000570       ?iv1@?1??RigidBody_get_Joint@@9@9 000000018004c570     m_FAU8KyrDQYUp9atreb3T4G.obj
 0002:00000578       ?iv2@?1??RigidBody_get_Joint@@9@9 000000018004c578     m_FAU8KyrDQYUp9atreb3T4G.obj
 0002:00000580       ?iv@?1??normalizeRows@@9@9 000000018004c580     m_FAU8KyrDQYUp9atreb3T4G.obj
 0002:00000588       ?iv1@?1??normalizeRows@@9@9 000000018004c588     m_FAU8KyrDQYUp9atreb3T4G.obj
 0002:00000590       ?iv2@?1??normalizeRows@@9@9 000000018004c590     m_FAU8KyrDQYUp9atreb3T4G.obj
 0002:00000598       ?iv@?1??b_rigidBodyJoint_transformBodyToParent@@9@9 000000018004c598     m_FAU8KyrDQYUp9atreb3T4G.obj
 0002:000005a0       ?iv1@?1??b_rigidBodyJoint_transformBodyToParent@@9@9 000000018004c5a0     m_FAU8KyrDQYUp9atreb3T4G.obj
 0002:000005a8       ?iv2@?1??b_rigidBodyJoint_transformBodyToParent@@9@9 000000018004c5a8     m_FAU8KyrDQYUp9atreb3T4G.obj
 0002:000005b0       ?iv3@?1??b_rigidBodyJoint_transformBodyToParent@@9@9 000000018004c5b0     m_FAU8KyrDQYUp9atreb3T4G.obj
 0002:000005b8       ?iv5@?1??b_rigidBodyJoint_transformBodyToParent@@9@9 000000018004c5b8     m_FAU8KyrDQYUp9atreb3T4G.obj
 0002:000005c0       ?iv6@?1??b_rigidBodyJoint_transformBodyToParent@@9@9 000000018004c5c0     m_FAU8KyrDQYUp9atreb3T4G.obj
 0002:000005c8       ?iv7@?1??b_rigidBodyJoint_transformBodyToParent@@9@9 000000018004c5c8     m_FAU8KyrDQYUp9atreb3T4G.obj
 0002:000005d0       ?iv8@?1??b_rigidBodyJoint_transformBodyToParent@@9@9 000000018004c5d0     m_FAU8KyrDQYUp9atreb3T4G.obj
 0002:000005d8       ?iv9@?1??b_rigidBodyJoint_transformBodyToParent@@9@9 000000018004c5d8     m_FAU8KyrDQYUp9atreb3T4G.obj
 0002:000005e0       ?iv@?1??eml_float_colon@@9@9 000000018004c5e0     m_FAU8KyrDQYUp9atreb3T4G.obj
 0002:000005e8       ?iv1@?1??eml_float_colon@@9@9 000000018004c5e8     m_FAU8KyrDQYUp9atreb3T4G.obj
 0002:00000680       ?iv@?1??SystemCore_setup@@9@9 000000018004c680     m_xSE9GNLJOSGMLwcrwI4qWD.obj
 0002:00000688       ?iv1@?1??SystemCore_setup@@9@9 000000018004c688     m_xSE9GNLJOSGMLwcrwI4qWD.obj
 0002:00000690       ?iv2@?1??SystemCore_setup@@9@9 000000018004c690     m_xSE9GNLJOSGMLwcrwI4qWD.obj
 0002:00000698       ?iv@?1??mw__internal__call__reset@@9@9 000000018004c698     m_xSE9GNLJOSGMLwcrwI4qWD.obj
 0002:000006a0       ?iv1@?1??mw__internal__call__reset@@9@9 000000018004c6a0     m_xSE9GNLJOSGMLwcrwI4qWD.obj
 0002:000006a8       ?iv2@?1??mw__internal__call__reset@@9@9 000000018004c6a8     m_xSE9GNLJOSGMLwcrwI4qWD.obj
 0002:000006b0       ?iv@?1??mw__internal__call__step@@9@9 000000018004c6b0     m_xSE9GNLJOSGMLwcrwI4qWD.obj
 0002:000006b8       ?iv1@?1??mw__internal__call__step@@9@9 000000018004c6b8     m_xSE9GNLJOSGMLwcrwI4qWD.obj
 0002:000006c0       ?iv2@?1??mw__internal__call__step@@9@9 000000018004c6c0     m_xSE9GNLJOSGMLwcrwI4qWD.obj
 0002:000006c8       ?iv@?1??RigidBody_get_Joint@@9@9 000000018004c6c8     m_xSE9GNLJOSGMLwcrwI4qWD.obj
 0002:000006d0       ?iv1@?1??RigidBody_get_Joint@@9@9 000000018004c6d0     m_xSE9GNLJOSGMLwcrwI4qWD.obj
 0002:000006d8       ?iv2@?1??RigidBody_get_Joint@@9@9 000000018004c6d8     m_xSE9GNLJOSGMLwcrwI4qWD.obj
 0002:000006e0       ?iv@?1??normalizeRows@@9@9 000000018004c6e0     m_xSE9GNLJOSGMLwcrwI4qWD.obj
 0002:000006e8       ?iv1@?1??normalizeRows@@9@9 000000018004c6e8     m_xSE9GNLJOSGMLwcrwI4qWD.obj
 0002:000006f0       ?iv2@?1??normalizeRows@@9@9 000000018004c6f0     m_xSE9GNLJOSGMLwcrwI4qWD.obj
 0002:000006f8       ?iv@?1??b_rigidBodyJoint_transformBodyToParent@@9@9 000000018004c6f8     m_xSE9GNLJOSGMLwcrwI4qWD.obj
 0002:00000700       ?iv1@?1??b_rigidBodyJoint_transformBodyToParent@@9@9 000000018004c700     m_xSE9GNLJOSGMLwcrwI4qWD.obj
 0002:00000708       ?iv2@?1??b_rigidBodyJoint_transformBodyToParent@@9@9 000000018004c708     m_xSE9GNLJOSGMLwcrwI4qWD.obj
 0002:00000710       ?iv3@?1??b_rigidBodyJoint_transformBodyToParent@@9@9 000000018004c710     m_xSE9GNLJOSGMLwcrwI4qWD.obj
 0002:00000718       ?iv5@?1??b_rigidBodyJoint_transformBodyToParent@@9@9 000000018004c718     m_xSE9GNLJOSGMLwcrwI4qWD.obj
 0002:00000720       ?iv6@?1??b_rigidBodyJoint_transformBodyToParent@@9@9 000000018004c720     m_xSE9GNLJOSGMLwcrwI4qWD.obj
 0002:00000728       ?iv7@?1??b_rigidBodyJoint_transformBodyToParent@@9@9 000000018004c728     m_xSE9GNLJOSGMLwcrwI4qWD.obj
 0002:00000730       ?iv8@?1??b_rigidBodyJoint_transformBodyToParent@@9@9 000000018004c730     m_xSE9GNLJOSGMLwcrwI4qWD.obj
 0002:00000738       ?iv9@?1??b_rigidBodyJoint_transformBodyToParent@@9@9 000000018004c738     m_xSE9GNLJOSGMLwcrwI4qWD.obj
 0002:00000740       ?iv@?1??dynamic_size_checks@@9@9 000000018004c740     m_xSE9GNLJOSGMLwcrwI4qWD.obj
 0002:00000748       ?iv1@?1??dynamic_size_checks@@9@9 000000018004c748     m_xSE9GNLJOSGMLwcrwI4qWD.obj
 0002:00000750       ?iv2@?1??dynamic_size_checks@@9@9 000000018004c750     m_xSE9GNLJOSGMLwcrwI4qWD.obj
 0002:00000758       ?iv3@?1??dynamic_size_checks@@9@9 000000018004c758     m_xSE9GNLJOSGMLwcrwI4qWD.obj
 0002:00000760       ?iv@?1??b_dynamic_size_checks@@9@9 000000018004c760     m_xSE9GNLJOSGMLwcrwI4qWD.obj
 0002:00000768       ?iv1@?1??b_dynamic_size_checks@@9@9 000000018004c768     m_xSE9GNLJOSGMLwcrwI4qWD.obj
 0002:00000770       ?iv2@?1??b_dynamic_size_checks@@9@9 000000018004c770     m_xSE9GNLJOSGMLwcrwI4qWD.obj
 0002:00000778       ?iv3@?1??b_dynamic_size_checks@@9@9 000000018004c778     m_xSE9GNLJOSGMLwcrwI4qWD.obj
 0002:00000838       ?_Fake_alloc@std@@3U_Fake_allocator@1@B 000000018004c838     collisioncodegen_CollisionGeometry.obj
 0002:00000840       $SG40615                   000000018004c840     collisioncodegen_CollisionGeometry.obj
 0002:00000900       ?_Fake_alloc@std@@3U_Fake_allocator@1@B 000000018004c900     collisioncodegen_api.obj
 0002:0000095b       ?_Fake_alloc@std@@3U_Fake_allocator@1@B 000000018004c95b     collisioncodegen_ccdExtensions.obj
 0002:0000095c       ?_Fake_alloc@std@@3U_Fake_allocator@1@B 000000018004c95c     collisioncodegen_checkCollision.obj
 0002:00000970       GS_ExceptionPointers       000000018004c970     MSVCRT:gs_report.obj
 0002:000015c0       $unwind$cgxe_CTM_PID_withoutG_method_dispatcher 000000018004d5c0     CTM_PID_withoutG_cgxe.obj
 0002:000015c8       $unwind$method_dispatcher_FAU8KyrDQYUp9atreb3T4G 000000018004d5c8     m_FAU8KyrDQYUp9atreb3T4G.obj
 0002:000015d0       $unwind$cgxe_mdl_start     000000018004d5d0     m_FAU8KyrDQYUp9atreb3T4G.obj
 0002:000015d8       $unwind$cgxe_mdl_initialize 000000018004d5d8     m_FAU8KyrDQYUp9atreb3T4G.obj
 0002:000015e0       $unwind$cgxe_mdl_outputs   000000018004d5e0     m_FAU8KyrDQYUp9atreb3T4G.obj
 0002:000015f0       $unwind$cgxe_mdl_terminate 000000018004d5f0     m_FAU8KyrDQYUp9atreb3T4G.obj
 0002:000015f8       $unwind$mw__internal__system__init__fcn 000000018004d5f8     m_FAU8KyrDQYUp9atreb3T4G.obj
 0002:00001600       $unwind$mw__internal__system__terminate__fcn 000000018004d600     m_FAU8KyrDQYUp9atreb3T4G.obj
 0002:00001608       $unwind$mw__internal__call__setup 000000018004d608     m_FAU8KyrDQYUp9atreb3T4G.obj
 0002:00001610       $unwind$SystemCore_setup   000000018004d610     m_FAU8KyrDQYUp9atreb3T4G.obj
 0002:00001620       $unwind$MassMatrixBlock_setupImpl 000000018004d620     m_FAU8KyrDQYUp9atreb3T4G.obj
 0002:00001628       $unwind$RigidBodyTree_defaultInitializeBodiesCellArray 000000018004d628     m_FAU8KyrDQYUp9atreb3T4G.obj
 0002:00001638       $unwind$b_strcmp           000000018004d638     m_FAU8KyrDQYUp9atreb3T4G.obj
 0002:00001640       $unwind$c_strcmp           000000018004d640     m_FAU8KyrDQYUp9atreb3T4G.obj
 0002:00001648       $unwind$CollisionSet_CollisionSet 000000018004d648     m_FAU8KyrDQYUp9atreb3T4G.obj
 0002:00001650       $unwind$RigidBody_RigidBody 000000018004d650     m_FAU8KyrDQYUp9atreb3T4G.obj
 0002:00001660       $unwind$b_RigidBody_RigidBody 000000018004d660     m_FAU8KyrDQYUp9atreb3T4G.obj
 0002:00001670       $unwind$c_RigidBody_RigidBody 000000018004d670     m_FAU8KyrDQYUp9atreb3T4G.obj
 0002:00001680       $unwind$d_RigidBody_RigidBody 000000018004d680     m_FAU8KyrDQYUp9atreb3T4G.obj
 0002:00001690       $unwind$e_RigidBody_RigidBody 000000018004d690     m_FAU8KyrDQYUp9atreb3T4G.obj
 0002:000016a0       $unwind$f_RigidBody_RigidBody 000000018004d6a0     m_FAU8KyrDQYUp9atreb3T4G.obj
 0002:000016b0       $unwind$g_RigidBody_RigidBody 000000018004d6b0     m_FAU8KyrDQYUp9atreb3T4G.obj
 0002:000016c0       $unwind$h_RigidBody_RigidBody 000000018004d6c0     m_FAU8KyrDQYUp9atreb3T4G.obj
 0002:000016d0       $unwind$i_RigidBody_RigidBody 000000018004d6d0     m_FAU8KyrDQYUp9atreb3T4G.obj
 0002:000016e0       $unwind$j_RigidBody_RigidBody 000000018004d6e0     m_FAU8KyrDQYUp9atreb3T4G.obj
 0002:000016f0       $unwind$k_RigidBody_RigidBody 000000018004d6f0     m_FAU8KyrDQYUp9atreb3T4G.obj
 0002:00001700       $unwind$l_RigidBody_RigidBody 000000018004d700     m_FAU8KyrDQYUp9atreb3T4G.obj
 0002:00001710       $unwind$mw__internal__call__reset 000000018004d710     m_FAU8KyrDQYUp9atreb3T4G.obj
 0002:00001720       $unwind$mw__internal__call__step 000000018004d720     m_FAU8KyrDQYUp9atreb3T4G.obj
 0002:00001730       $unwind$RigidBodyTreeDynamics_massMatrix 000000018004d730     m_FAU8KyrDQYUp9atreb3T4G.obj
 0002:00001740       $unwind$RigidBody_get_Joint 000000018004d740     m_FAU8KyrDQYUp9atreb3T4G.obj
 0002:00001750       $unwind$rigidBodyJoint_transformBodyToParent 000000018004d750     m_FAU8KyrDQYUp9atreb3T4G.obj
 0002:0000176c       $unwind$d_strcmp           000000018004d76c     m_FAU8KyrDQYUp9atreb3T4G.obj
 0002:00001774       $unwind$normalizeRows      000000018004d774     m_FAU8KyrDQYUp9atreb3T4G.obj
 0002:00001784       $unwind$sumColumnB         000000018004d784     m_FAU8KyrDQYUp9atreb3T4G.obj
 0002:0000178c       $unwind$permute            000000018004d78c     m_FAU8KyrDQYUp9atreb3T4G.obj
 0002:00001794       $unwind$b_rigidBodyJoint_transformBodyToParent 000000018004d794     m_FAU8KyrDQYUp9atreb3T4G.obj
 0002:000017b4       $unwind$tforminv           000000018004d7b4     m_FAU8KyrDQYUp9atreb3T4G.obj
 0002:000017c4       $unwind$tformToSpatialXform 000000018004d7c4     m_FAU8KyrDQYUp9atreb3T4G.obj
 0002:000017d4       $unwind$mtimes             000000018004d7d4     m_FAU8KyrDQYUp9atreb3T4G.obj
 0002:000017dc       $unwind$b_mtimes           000000018004d7dc     m_FAU8KyrDQYUp9atreb3T4G.obj
 0002:000017e4       $unwind$c_mtimes           000000018004d7e4     m_FAU8KyrDQYUp9atreb3T4G.obj
 0002:000017ec       $unwind$eml_find           000000018004d7ec     m_FAU8KyrDQYUp9atreb3T4G.obj
 0002:000017f4       $unwind$indexShapeCheck    000000018004d7f4     m_FAU8KyrDQYUp9atreb3T4G.obj
 0002:000017fc       $unwind$eml_float_colon    000000018004d7fc     m_FAU8KyrDQYUp9atreb3T4G.obj
 0002:0000180c       $unwind$handle_matlabCodegenDestructor 000000018004d80c     m_FAU8KyrDQYUp9atreb3T4G.obj
 0002:00001814       $unwind$message            000000018004d814     m_FAU8KyrDQYUp9atreb3T4G.obj
 0002:0000181c       $unwind$getString          000000018004d81c     m_FAU8KyrDQYUp9atreb3T4G.obj
 0002:00001824       $unwind$error              000000018004d824     m_FAU8KyrDQYUp9atreb3T4G.obj
 0002:0000182c       $unwind$b_message          000000018004d82c     m_FAU8KyrDQYUp9atreb3T4G.obj
 0002:00001834       $unwind$c_message          000000018004d834     m_FAU8KyrDQYUp9atreb3T4G.obj
 0002:00001844       $unwind$binary_expand_op   000000018004d844     m_FAU8KyrDQYUp9atreb3T4G.obj
 0002:0000184c       $unwind$emxInitStruct_robotics_slmanip_ 000000018004d84c     m_FAU8KyrDQYUp9atreb3T4G.obj
 0002:00001854       $unwind$emxInitStruct_robotics_manip_in 000000018004d854     m_FAU8KyrDQYUp9atreb3T4G.obj
 0002:0000185c       $unwind$b_emxInitStruct_robotics_manip_in 000000018004d85c     m_FAU8KyrDQYUp9atreb3T4G.obj
 0002:00001864       $unwind$emxInit_char_T     000000018004d864     m_FAU8KyrDQYUp9atreb3T4G.obj
 0002:0000186c       $unwind$emxInitStruct_rigidBodyJoint 000000018004d86c     m_FAU8KyrDQYUp9atreb3T4G.obj
 0002:00001874       $unwind$emxInit_real_T     000000018004d874     m_FAU8KyrDQYUp9atreb3T4G.obj
 0002:0000187c       $unwind$c_emxInitStruct_robotics_manip_in 000000018004d87c     m_FAU8KyrDQYUp9atreb3T4G.obj
 0002:00001884       $unwind$emxInit_robotics_manip_internal 000000018004d884     m_FAU8KyrDQYUp9atreb3T4G.obj
 0002:0000188c       $unwind$emxInitMatrix_robotics_manip_in 000000018004d88c     m_FAU8KyrDQYUp9atreb3T4G.obj
 0002:00001894       $unwind$emxFree_char_T     000000018004d894     m_FAU8KyrDQYUp9atreb3T4G.obj
 0002:0000189c       $unwind$emxFreeStruct_robotics_manip_in 000000018004d89c     m_FAU8KyrDQYUp9atreb3T4G.obj
 0002:000018a4       $unwind$emxFreeStruct_rigidBodyJoint 000000018004d8a4     m_FAU8KyrDQYUp9atreb3T4G.obj
 0002:000018ac       $unwind$emxFree_real_T     000000018004d8ac     m_FAU8KyrDQYUp9atreb3T4G.obj
 0002:000018b4       $unwind$emxFree_robotics_manip_internal 000000018004d8b4     m_FAU8KyrDQYUp9atreb3T4G.obj
 0002:000018bc       $unwind$b_emxFreeStruct_robotics_manip_in 000000018004d8bc     m_FAU8KyrDQYUp9atreb3T4G.obj
 0002:000018c4       $unwind$c_emxFreeStruct_robotics_manip_in 000000018004d8c4     m_FAU8KyrDQYUp9atreb3T4G.obj
 0002:000018cc       $unwind$emxFreeMatrix_robotics_manip_in 000000018004d8cc     m_FAU8KyrDQYUp9atreb3T4G.obj
 0002:000018d4       $unwind$emxFreeStruct_robotics_slmanip_ 000000018004d8d4     m_FAU8KyrDQYUp9atreb3T4G.obj
 0002:000018dc       $unwind$emxEnsureCapacity_char_T 000000018004d8dc     m_FAU8KyrDQYUp9atreb3T4G.obj
 0002:000018e4       $unwind$emxEnsureCapacity_real_T 000000018004d8e4     m_FAU8KyrDQYUp9atreb3T4G.obj
 0002:000018ec       $unwind$emxEnsureCapacity_robotics_mani 000000018004d8ec     m_FAU8KyrDQYUp9atreb3T4G.obj
 0002:000018f4       $unwind$emxEnsureCapacity_cell_wrap 000000018004d8f4     m_FAU8KyrDQYUp9atreb3T4G.obj
 0002:000018fc       $unwind$emxInit_cell_wrap  000000018004d8fc     m_FAU8KyrDQYUp9atreb3T4G.obj
 0002:00001904       $unwind$emxFree_cell_wrap  000000018004d904     m_FAU8KyrDQYUp9atreb3T4G.obj
 0002:0000190c       $unwind$div_nzp_s32        000000018004d90c     m_FAU8KyrDQYUp9atreb3T4G.obj
 0002:00001914       $unwind$init_simulink_io_address 000000018004d914     m_FAU8KyrDQYUp9atreb3T4G.obj
 0002:0000191c       $unwind$mdlOutputs_FAU8KyrDQYUp9atreb3T4G 000000018004d91c     m_FAU8KyrDQYUp9atreb3T4G.obj
 0002:00001924       $unwind$mdlInitialize_FAU8KyrDQYUp9atreb3T4G 000000018004d924     m_FAU8KyrDQYUp9atreb3T4G.obj
 0002:0000192c       $unwind$mdlUpdate_FAU8KyrDQYUp9atreb3T4G 000000018004d92c     m_FAU8KyrDQYUp9atreb3T4G.obj
 0002:00001934       $unwind$mdlTerminate_FAU8KyrDQYUp9atreb3T4G 000000018004d934     m_FAU8KyrDQYUp9atreb3T4G.obj
 0002:0000193c       $unwind$mdlEnable_FAU8KyrDQYUp9atreb3T4G 000000018004d93c     m_FAU8KyrDQYUp9atreb3T4G.obj
 0002:00001944       $unwind$mdlDisable_FAU8KyrDQYUp9atreb3T4G 000000018004d944     m_FAU8KyrDQYUp9atreb3T4G.obj
 0002:0000194c       $unwind$mdlStart_FAU8KyrDQYUp9atreb3T4G 000000018004d94c     m_FAU8KyrDQYUp9atreb3T4G.obj
 0002:00001954       $unwind$cgxe_FAU8KyrDQYUp9atreb3T4G_BuildInfoUpdate 000000018004d954     m_FAU8KyrDQYUp9atreb3T4G.obj
 0002:0000195c       $unwind$cgxe_FAU8KyrDQYUp9atreb3T4G_fallback_info 000000018004d95c     m_FAU8KyrDQYUp9atreb3T4G.obj
 0002:00001964       $unwind$method_dispatcher_xSE9GNLJOSGMLwcrwI4qWD 000000018004d964     m_xSE9GNLJOSGMLwcrwI4qWD.obj
 0002:0000196c       $unwind$cgxe_mdl_start     000000018004d96c     m_xSE9GNLJOSGMLwcrwI4qWD.obj
 0002:00001974       $unwind$cgxe_mdl_initialize 000000018004d974     m_xSE9GNLJOSGMLwcrwI4qWD.obj
 0002:0000197c       $unwind$cgxe_mdl_outputs   000000018004d97c     m_xSE9GNLJOSGMLwcrwI4qWD.obj
 0002:00001984       $unwind$cgxe_mdl_terminate 000000018004d984     m_xSE9GNLJOSGMLwcrwI4qWD.obj
 0002:0000198c       $unwind$mw__internal__system__init__fcn 000000018004d98c     m_xSE9GNLJOSGMLwcrwI4qWD.obj
 0002:00001994       $unwind$mw__internal__system__terminate__fcn 000000018004d994     m_xSE9GNLJOSGMLwcrwI4qWD.obj
 0002:0000199c       $unwind$mw__internal__call__setup 000000018004d99c     m_xSE9GNLJOSGMLwcrwI4qWD.obj
 0002:000019a4       $unwind$SystemCore_setup   000000018004d9a4     m_xSE9GNLJOSGMLwcrwI4qWD.obj
 0002:000019b4       $unwind$VelocityProductTorqueBlock_setupImpl 000000018004d9b4     m_xSE9GNLJOSGMLwcrwI4qWD.obj
 0002:000019bc       $unwind$RigidBodyTree_defaultInitializeBodiesCellArray 000000018004d9bc     m_xSE9GNLJOSGMLwcrwI4qWD.obj
 0002:000019cc       $unwind$b_strcmp           000000018004d9cc     m_xSE9GNLJOSGMLwcrwI4qWD.obj
 0002:000019d4       $unwind$c_strcmp           000000018004d9d4     m_xSE9GNLJOSGMLwcrwI4qWD.obj
 0002:000019dc       $unwind$CollisionSet_CollisionSet 000000018004d9dc     m_xSE9GNLJOSGMLwcrwI4qWD.obj
 0002:000019e4       $unwind$RigidBody_RigidBody 000000018004d9e4     m_xSE9GNLJOSGMLwcrwI4qWD.obj
 0002:000019f4       $unwind$b_RigidBody_RigidBody 000000018004d9f4     m_xSE9GNLJOSGMLwcrwI4qWD.obj
 0002:00001a04       $unwind$c_RigidBody_RigidBody 000000018004da04     m_xSE9GNLJOSGMLwcrwI4qWD.obj
 0002:00001a14       $unwind$d_RigidBody_RigidBody 000000018004da14     m_xSE9GNLJOSGMLwcrwI4qWD.obj
 0002:00001a24       $unwind$e_RigidBody_RigidBody 000000018004da24     m_xSE9GNLJOSGMLwcrwI4qWD.obj
 0002:00001a34       $unwind$f_RigidBody_RigidBody 000000018004da34     m_xSE9GNLJOSGMLwcrwI4qWD.obj
 0002:00001a44       $unwind$g_RigidBody_RigidBody 000000018004da44     m_xSE9GNLJOSGMLwcrwI4qWD.obj
 0002:00001a54       $unwind$h_RigidBody_RigidBody 000000018004da54     m_xSE9GNLJOSGMLwcrwI4qWD.obj
 0002:00001a64       $unwind$i_RigidBody_RigidBody 000000018004da64     m_xSE9GNLJOSGMLwcrwI4qWD.obj
 0002:00001a74       $unwind$j_RigidBody_RigidBody 000000018004da74     m_xSE9GNLJOSGMLwcrwI4qWD.obj
 0002:00001a84       $unwind$k_RigidBody_RigidBody 000000018004da84     m_xSE9GNLJOSGMLwcrwI4qWD.obj
 0002:00001a94       $unwind$RigidBodyTree_set_Gravity 000000018004da94     m_xSE9GNLJOSGMLwcrwI4qWD.obj
 0002:00001a9c       $unwind$l_RigidBody_RigidBody 000000018004da9c     m_xSE9GNLJOSGMLwcrwI4qWD.obj
 0002:00001aac       $unwind$mw__internal__call__reset 000000018004daac     m_xSE9GNLJOSGMLwcrwI4qWD.obj
 0002:00001abc       $unwind$mw__internal__call__step 000000018004dabc     m_xSE9GNLJOSGMLwcrwI4qWD.obj
 0002:00001acc       $unwind$RigidBodyTreeDynamics_inverseDynamics 000000018004dacc     m_xSE9GNLJOSGMLwcrwI4qWD.obj
 0002:00001adc       $unwind$RigidBody_get_Joint 000000018004dadc     m_xSE9GNLJOSGMLwcrwI4qWD.obj
 0002:00001aec       $unwind$rigidBodyJoint_transformBodyToParent 000000018004daec     m_xSE9GNLJOSGMLwcrwI4qWD.obj
 0002:00001b08       $unwind$d_strcmp           000000018004db08     m_xSE9GNLJOSGMLwcrwI4qWD.obj
 0002:00001b10       $unwind$normalizeRows      000000018004db10     m_xSE9GNLJOSGMLwcrwI4qWD.obj
 0002:00001b20       $unwind$sumColumnB         000000018004db20     m_xSE9GNLJOSGMLwcrwI4qWD.obj
 0002:00001b28       $unwind$permute            000000018004db28     m_xSE9GNLJOSGMLwcrwI4qWD.obj
 0002:00001b30       $unwind$b_rigidBodyJoint_transformBodyToParent 000000018004db30     m_xSE9GNLJOSGMLwcrwI4qWD.obj
 0002:00001b50       $unwind$tforminv           000000018004db50     m_xSE9GNLJOSGMLwcrwI4qWD.obj
 0002:00001b60       $unwind$tformToSpatialXform 000000018004db60     m_xSE9GNLJOSGMLwcrwI4qWD.obj
 0002:00001b70       $unwind$mtimes             000000018004db70     m_xSE9GNLJOSGMLwcrwI4qWD.obj
 0002:00001b78       $unwind$dynamic_size_checks 000000018004db78     m_xSE9GNLJOSGMLwcrwI4qWD.obj
 0002:00001b88       $unwind$b_mtimes           000000018004db88     m_xSE9GNLJOSGMLwcrwI4qWD.obj
 0002:00001b90       $unwind$b_dynamic_size_checks 000000018004db90     m_xSE9GNLJOSGMLwcrwI4qWD.obj
 0002:00001ba0       $unwind$c_mtimes           000000018004dba0     m_xSE9GNLJOSGMLwcrwI4qWD.obj
 0002:00001ba8       $unwind$crossMotion        000000018004dba8     m_xSE9GNLJOSGMLwcrwI4qWD.obj
 0002:00001bb8       $unwind$crossForce         000000018004dbb8     m_xSE9GNLJOSGMLwcrwI4qWD.obj
 0002:00001bc8       $unwind$d_mtimes           000000018004dbc8     m_xSE9GNLJOSGMLwcrwI4qWD.obj
 0002:00001bd0       $unwind$b_RigidBodyTreeDynamics_inverseDynamics 000000018004dbd0     m_xSE9GNLJOSGMLwcrwI4qWD.obj
 0002:00001be0       $unwind$handle_matlabCodegenDestructor 000000018004dbe0     m_xSE9GNLJOSGMLwcrwI4qWD.obj
 0002:00001be8       $unwind$message            000000018004dbe8     m_xSE9GNLJOSGMLwcrwI4qWD.obj
 0002:00001bf0       $unwind$getString          000000018004dbf0     m_xSE9GNLJOSGMLwcrwI4qWD.obj
 0002:00001bf8       $unwind$error              000000018004dbf8     m_xSE9GNLJOSGMLwcrwI4qWD.obj
 0002:00001c00       $unwind$b_message          000000018004dc00     m_xSE9GNLJOSGMLwcrwI4qWD.obj
 0002:00001c08       $unwind$c_message          000000018004dc08     m_xSE9GNLJOSGMLwcrwI4qWD.obj
 0002:00001c18       $unwind$emxInitStruct_robotics_slmanip_ 000000018004dc18     m_xSE9GNLJOSGMLwcrwI4qWD.obj
 0002:00001c20       $unwind$emxInitStruct_robotics_manip_in 000000018004dc20     m_xSE9GNLJOSGMLwcrwI4qWD.obj
 0002:00001c28       $unwind$b_emxInitStruct_robotics_manip_in 000000018004dc28     m_xSE9GNLJOSGMLwcrwI4qWD.obj
 0002:00001c30       $unwind$emxInit_char_T     000000018004dc30     m_xSE9GNLJOSGMLwcrwI4qWD.obj
 0002:00001c38       $unwind$emxInitStruct_rigidBodyJoint 000000018004dc38     m_xSE9GNLJOSGMLwcrwI4qWD.obj
 0002:00001c40       $unwind$emxInit_real_T     000000018004dc40     m_xSE9GNLJOSGMLwcrwI4qWD.obj
 0002:00001c48       $unwind$c_emxInitStruct_robotics_manip_in 000000018004dc48     m_xSE9GNLJOSGMLwcrwI4qWD.obj
 0002:00001c50       $unwind$emxInit_robotics_manip_internal 000000018004dc50     m_xSE9GNLJOSGMLwcrwI4qWD.obj
 0002:00001c58       $unwind$emxInitMatrix_robotics_manip_in 000000018004dc58     m_xSE9GNLJOSGMLwcrwI4qWD.obj
 0002:00001c60       $unwind$emxFree_char_T     000000018004dc60     m_xSE9GNLJOSGMLwcrwI4qWD.obj
 0002:00001c68       $unwind$emxFreeStruct_robotics_manip_in 000000018004dc68     m_xSE9GNLJOSGMLwcrwI4qWD.obj
 0002:00001c70       $unwind$emxFreeStruct_rigidBodyJoint 000000018004dc70     m_xSE9GNLJOSGMLwcrwI4qWD.obj
 0002:00001c78       $unwind$emxFree_real_T     000000018004dc78     m_xSE9GNLJOSGMLwcrwI4qWD.obj
 0002:00001c80       $unwind$emxFree_robotics_manip_internal 000000018004dc80     m_xSE9GNLJOSGMLwcrwI4qWD.obj
 0002:00001c88       $unwind$b_emxFreeStruct_robotics_manip_in 000000018004dc88     m_xSE9GNLJOSGMLwcrwI4qWD.obj
 0002:00001c90       $unwind$c_emxFreeStruct_robotics_manip_in 000000018004dc90     m_xSE9GNLJOSGMLwcrwI4qWD.obj
 0002:00001c98       $unwind$emxFreeMatrix_robotics_manip_in 000000018004dc98     m_xSE9GNLJOSGMLwcrwI4qWD.obj
 0002:00001ca0       $unwind$emxFreeStruct_robotics_slmanip_ 000000018004dca0     m_xSE9GNLJOSGMLwcrwI4qWD.obj
 0002:00001ca8       $unwind$emxEnsureCapacity_char_T 000000018004dca8     m_xSE9GNLJOSGMLwcrwI4qWD.obj
 0002:00001cb0       $unwind$emxEnsureCapacity_real_T 000000018004dcb0     m_xSE9GNLJOSGMLwcrwI4qWD.obj
 0002:00001cb8       $unwind$emxEnsureCapacity_robotics_mani 000000018004dcb8     m_xSE9GNLJOSGMLwcrwI4qWD.obj
 0002:00001cc0       $unwind$emxEnsureCapacity_cell_wrap 000000018004dcc0     m_xSE9GNLJOSGMLwcrwI4qWD.obj
 0002:00001cc8       $unwind$emxInit_cell_wrap  000000018004dcc8     m_xSE9GNLJOSGMLwcrwI4qWD.obj
 0002:00001cd0       $unwind$emxInit_real_T1    000000018004dcd0     m_xSE9GNLJOSGMLwcrwI4qWD.obj
 0002:00001cd8       $unwind$emxFree_cell_wrap  000000018004dcd8     m_xSE9GNLJOSGMLwcrwI4qWD.obj
 0002:00001ce0       $unwind$emxEnsureCapacity_real_T1 000000018004dce0     m_xSE9GNLJOSGMLwcrwI4qWD.obj
 0002:00001ce8       $unwind$init_simulink_io_address 000000018004dce8     m_xSE9GNLJOSGMLwcrwI4qWD.obj
 0002:00001cf0       $unwind$mdlOutputs_xSE9GNLJOSGMLwcrwI4qWD 000000018004dcf0     m_xSE9GNLJOSGMLwcrwI4qWD.obj
 0002:00001cf8       $unwind$mdlInitialize_xSE9GNLJOSGMLwcrwI4qWD 000000018004dcf8     m_xSE9GNLJOSGMLwcrwI4qWD.obj
 0002:00001d00       $unwind$mdlUpdate_xSE9GNLJOSGMLwcrwI4qWD 000000018004dd00     m_xSE9GNLJOSGMLwcrwI4qWD.obj
 0002:00001d08       $unwind$mdlTerminate_xSE9GNLJOSGMLwcrwI4qWD 000000018004dd08     m_xSE9GNLJOSGMLwcrwI4qWD.obj
 0002:00001d10       $unwind$mdlEnable_xSE9GNLJOSGMLwcrwI4qWD 000000018004dd10     m_xSE9GNLJOSGMLwcrwI4qWD.obj
 0002:00001d18       $unwind$mdlDisable_xSE9GNLJOSGMLwcrwI4qWD 000000018004dd18     m_xSE9GNLJOSGMLwcrwI4qWD.obj
 0002:00001d20       $unwind$mdlStart_xSE9GNLJOSGMLwcrwI4qWD 000000018004dd20     m_xSE9GNLJOSGMLwcrwI4qWD.obj
 0002:00001d28       $unwind$cgxe_xSE9GNLJOSGMLwcrwI4qWD_BuildInfoUpdate 000000018004dd28     m_xSE9GNLJOSGMLwcrwI4qWD.obj
 0002:00001d30       $unwind$cgxe_xSE9GNLJOSGMLwcrwI4qWD_fallback_info 000000018004dd30     m_xSE9GNLJOSGMLwcrwI4qWD.obj
 0002:00001d38       $unwind$_vsnprintf_l       000000018004dd38     CTM_PID_withoutG_cgxe_registry.obj
 0002:00001d40       $unwind$_vsprintf_l        000000018004dd40     CTM_PID_withoutG_cgxe_registry.obj
 0002:00001d48       $unwind$sprintf            000000018004dd48     CTM_PID_withoutG_cgxe_registry.obj
 0002:00001d50       $unwind$mexFunction        000000018004dd50     CTM_PID_withoutG_cgxe_registry.obj
 0002:00001d60       $unwind$_ssSetInputPortDirectFeedThroughFcn 000000018004dd60     CTM_PID_withoutG_cgxe_registry.obj
 0002:00001d70       $unwind$_ssSetRWorkValueFcn 000000018004dd70     CTM_PID_withoutG_cgxe_registry.obj
 0002:00001d78       $unwind$_ssGetRWorkValueFcn 000000018004dd78     CTM_PID_withoutG_cgxe_registry.obj
 0002:00001d80       $unwind$_ssSetIWorkValueFcn 000000018004dd80     CTM_PID_withoutG_cgxe_registry.obj
 0002:00001d88       $unwind$_ssGetIWorkValueFcn 000000018004dd88     CTM_PID_withoutG_cgxe_registry.obj
 0002:00001d90       $unwind$_ssSetPWorkValueFcn 000000018004dd90     CTM_PID_withoutG_cgxe_registry.obj
 0002:00001d98       $unwind$_ssGetPWorkValueFcn 000000018004dd98     CTM_PID_withoutG_cgxe_registry.obj
 0002:00001da0       $unwind$_ssGetInputPortSignalFcn 000000018004dda0     CTM_PID_withoutG_cgxe_registry.obj
 0002:00001db0       $unwind$_ssGetInputPortBufferDstPortFcn 000000018004ddb0     CTM_PID_withoutG_cgxe_registry.obj
 0002:00001db8       $unwind$_ssGetInputPortSignalPtrsFcn 000000018004ddb8     CTM_PID_withoutG_cgxe_registry.obj
 0002:00001dc8       $unwind$ssGetParameterTuningCompliance 000000018004ddc8     CTM_PID_withoutG_cgxe_registry.obj
 0002:00001dd0       $unwind$_ssReadInputStringFcn 000000018004ddd0     CTM_PID_withoutG_cgxe_registry.obj
 0002:00001dd8       $unwind$ssGetDTypeIdFromMxArray 000000018004ddd8     CTM_PID_withoutG_cgxe_registry.obj
 0002:00001de0       $unwind$ssWriteRTWMx2dMatParam 000000018004dde0     CTM_PID_withoutG_cgxe_registry.obj
 0002:00001de8       $unwind$ssWriteRTWMxVectParam 000000018004dde8     CTM_PID_withoutG_cgxe_registry.obj
 0002:00001df0       $unwind$ssWriteRTWParameters 000000018004ddf0     CTM_PID_withoutG_cgxe_registry.obj
 0002:00001df8       $unwind$ssWriteRTWParamSettings 000000018004ddf8     CTM_PID_withoutG_cgxe_registry.obj
 0002:00001e00       $unwind$ssWriteRTWStr      000000018004de00     CTM_PID_withoutG_cgxe_registry.obj
 0002:00001e08       $unwind$ssWriteRTWWorkVect 000000018004de08     CTM_PID_withoutG_cgxe_registry.obj
 0002:00001e1c       $unwind$ssWarning          000000018004de1c     CTM_PID_withoutG_cgxe_registry.obj
 0002:00001e30       $unwind$ssGetRootSS        000000018004de30     CTM_PID_withoutG_cgxe_registry.obj
 0002:00001e38       $unwind$ssGetParentSS      000000018004de38     CTM_PID_withoutG_cgxe_registry.obj
 0002:00001e40       $unwind$ssWriteRTWNameValuePair 000000018004de40     CTM_PID_withoutG_cgxe_registry.obj
 0002:00001e48       $unwind$_ssSetInputPortMatrixDimensions 000000018004de48     CTM_PID_withoutG_cgxe_registry.obj
 0002:00001e54       $unwind$_ssSetOutputPortMatrixDimensions 000000018004de54     CTM_PID_withoutG_cgxe_registry.obj
 0002:00001e60       $unwind$_ssSetInputPortVectorDimension 000000018004de60     CTM_PID_withoutG_cgxe_registry.obj
 0002:00001e6c       $unwind$_ssSetOutputPortVectorDimension 000000018004de6c     CTM_PID_withoutG_cgxe_registry.obj
 0002:00001e78       $unwind$ssIsRunTimeParamTunable 000000018004de78     CTM_PID_withoutG_cgxe_registry.obj
 0002:00001e80       $unwind$ssGetSFuncBlockHandle 000000018004de80     CTM_PID_withoutG_cgxe_registry.obj
 0002:00001e88       $unwind$_ssGetCallSystemNumFcnCallDestinations 000000018004de88     CTM_PID_withoutG_cgxe_registry.obj
 0002:00001e90       $unwind$_ssGetCurrentInputPortWidth 000000018004de90     CTM_PID_withoutG_cgxe_registry.obj
 0002:00001e98       $unwind$_ssGetCurrentOutputPortWidth 000000018004de98     CTM_PID_withoutG_cgxe_registry.obj
 0002:00001ea0       $unwind$ssGetIsZeroCrossControlDisabled 000000018004dea0     CTM_PID_withoutG_cgxe_registry.obj
 0002:00001ea8       $unwind$ssSetIsInputPortUsedForContZcSignal 000000018004dea8     CTM_PID_withoutG_cgxe_registry.obj
 0002:00001eb0       $unwind$ssSetZcSignalIsZcElementDisc 000000018004deb0     CTM_PID_withoutG_cgxe_registry.obj
 0002:00001ec0       $unwind$ssSetZcSignalName  000000018004dec0     CTM_PID_withoutG_cgxe_registry.obj
 0002:00001ec8       $unwind$ssSetZcSignalWidth 000000018004dec8     CTM_PID_withoutG_cgxe_registry.obj
 0002:00001ed0       $unwind$ssSetZcSignalZcEventType 000000018004ded0     CTM_PID_withoutG_cgxe_registry.obj
 0002:00001ed8       $unwind$ssSetZcSignalType  000000018004ded8     CTM_PID_withoutG_cgxe_registry.obj
 0002:00001ee0       $unwind$ssSetZcSignalZcTol 000000018004dee0     CTM_PID_withoutG_cgxe_registry.obj
 0002:00001ee8       $unwind$ssSetZcSignalNeedsEventNotification 000000018004dee8     CTM_PID_withoutG_cgxe_registry.obj
 0002:00001ef0       $unwind$ssCreateAndAddZcSignalInfo 000000018004def0     CTM_PID_withoutG_cgxe_registry.obj
 0002:00001ef8       $unwind$ssCloneAndAddZcSignalInfo 000000018004def8     CTM_PID_withoutG_cgxe_registry.obj
 0002:00001f00       $unwind$ssGetNumZcSignals  000000018004df00     CTM_PID_withoutG_cgxe_registry.obj
 0002:00001f08       $unwind$ssGetZcSignalVector 000000018004df08     CTM_PID_withoutG_cgxe_registry.obj
 0002:00001f10       $unwind$ssGetZcSignalName  000000018004df10     CTM_PID_withoutG_cgxe_registry.obj
 0002:00001f18       $unwind$ssGetZcSignalWidth 000000018004df18     CTM_PID_withoutG_cgxe_registry.obj
 0002:00001f20       $unwind$ssGetZcSignalZcEventType 000000018004df20     CTM_PID_withoutG_cgxe_registry.obj
 0002:00001f28       $unwind$ssGetZcSignalZcEvents 000000018004df28     CTM_PID_withoutG_cgxe_registry.obj
 0002:00001f30       $unwind$ssGetZcSignalType  000000018004df30     CTM_PID_withoutG_cgxe_registry.obj
 0002:00001f38       $unwind$ssGetZcSignalZcTol 000000018004df38     CTM_PID_withoutG_cgxe_registry.obj
 0002:00001f40       $unwind$ssGetZcSignalNeedsEventNotification 000000018004df40     CTM_PID_withoutG_cgxe_registry.obj
 0002:00001f48       $unwind$ssGetZcSignalIsZcElementDisc 000000018004df48     CTM_PID_withoutG_cgxe_registry.obj
 0002:00001f58       $unwind$ssGetIsInputPortElementContinuous 000000018004df58     CTM_PID_withoutG_cgxe_registry.obj
 0002:00001f68       $unwind$_ssGetAbsTol       000000018004df68     CTM_PID_withoutG_cgxe_registry.obj
 0002:00001f70       $unwind$_ssSetInputPortReusableFcn 000000018004df70     CTM_PID_withoutG_cgxe_registry.obj
 0002:00001f78       $unwind$_ssSetOutputPortReusableFcn 000000018004df78     CTM_PID_withoutG_cgxe_registry.obj
 0002:00001f80       $unwind$_ssSetSymbolicDimsSupport 000000018004df80     CTM_PID_withoutG_cgxe_registry.obj
 0002:00001f88       $unwind$_ssRegisterSymbolicDimsExpr 000000018004df88     CTM_PID_withoutG_cgxe_registry.obj
 0002:00001f90       $unwind$_ssRegisterSymbolicDimsMATLABExpr 000000018004df90     CTM_PID_withoutG_cgxe_registry.obj
 0002:00001f98       $unwind$_ssRegisterSymbolicDims 000000018004df98     CTM_PID_withoutG_cgxe_registry.obj
 0002:00001fa0       $unwind$_ssRegisterSymbolicDimsString 000000018004dfa0     CTM_PID_withoutG_cgxe_registry.obj
 0002:00001fa8       $unwind$_ssRegisterSymbolicDimsIntValue 000000018004dfa8     CTM_PID_withoutG_cgxe_registry.obj
 0002:00001fb0       $unwind$_ssRegisterSymbolicEqualRelation 000000018004dfb0     CTM_PID_withoutG_cgxe_registry.obj
 0002:00001fb8       $unwind$_ssRegisterSymbolicEqualValue 000000018004dfb8     CTM_PID_withoutG_cgxe_registry.obj
 0002:00001fc0       $unwind$_ssAmendLeadingSymbolicDims 000000018004dfc0     CTM_PID_withoutG_cgxe_registry.obj
 0002:00001fc8       $unwind$_ssAmendTrailingSymbolicDims 000000018004dfc8     CTM_PID_withoutG_cgxe_registry.obj
 0002:00001fd0       $unwind$_ssRegisterSymbolicDimsPlus 000000018004dfd0     CTM_PID_withoutG_cgxe_registry.obj
 0002:00001fd8       $unwind$_ssRegisterSymbolicDimsMinus 000000018004dfd8     CTM_PID_withoutG_cgxe_registry.obj
 0002:00001fe0       $unwind$_ssRegisterSymbolicDimsMultiply 000000018004dfe0     CTM_PID_withoutG_cgxe_registry.obj
 0002:00001fe8       $unwind$_ssRegisterSymbolicDimsDivide 000000018004dfe8     CTM_PID_withoutG_cgxe_registry.obj
 0002:00001ff0       $unwind$_ssGetNumSymbolicDims 000000018004dff0     CTM_PID_withoutG_cgxe_registry.obj
 0002:00001ff8       $unwind$_ssGetSymbolicDim  000000018004dff8     CTM_PID_withoutG_cgxe_registry.obj
 0002:00002000       $unwind$_ssSetInputPortSymbolicDimsId 000000018004e000     CTM_PID_withoutG_cgxe_registry.obj
 0002:00002008       $unwind$_ssGetCompInputPortSymbolicDimsId 000000018004e008     CTM_PID_withoutG_cgxe_registry.obj
 0002:00002010       $unwind$_ssSetCompInputPortSymbolicDimsId 000000018004e010     CTM_PID_withoutG_cgxe_registry.obj
 0002:00002018       $unwind$_ssSetOutputPortSymbolicDimsId 000000018004e018     CTM_PID_withoutG_cgxe_registry.obj
 0002:00002020       $unwind$_ssGetCompOutputPortSymbolicDimsId 000000018004e020     CTM_PID_withoutG_cgxe_registry.obj
 0002:00002028       $unwind$_ssSetCompOutputPortSymbolicDimsId 000000018004e028     CTM_PID_withoutG_cgxe_registry.obj
 0002:00002030       $unwind$_ssGetDWorkSymbolicDimsId 000000018004e030     CTM_PID_withoutG_cgxe_registry.obj
 0002:00002038       $unwind$_ssSetDWorkSymbolicDimsId 000000018004e038     CTM_PID_withoutG_cgxe_registry.obj
 0002:00002040       $unwind$_ssGetCompDWorkSymbolicDimsId 000000018004e040     CTM_PID_withoutG_cgxe_registry.obj
 0002:00002048       $unwind$_ssSetCompDWorkSymbolicDimsId 000000018004e048     CTM_PID_withoutG_cgxe_registry.obj
 0002:00002050       $unwind$_ssCreateSLCGStringBuffer 000000018004e050     CTM_PID_withoutG_cgxe_registry.obj
 0002:00002058       $unwind$_ssAddToSLCGStringBuffer 000000018004e058     CTM_PID_withoutG_cgxe_registry.obj
 0002:00002060       $unwind$_ssGetPointerContainedData 000000018004e060     CTM_PID_withoutG_cgxe_registry.obj
 0002:00002068       $unwind$_ssGetPointerContainedDataWidth 000000018004e068     CTM_PID_withoutG_cgxe_registry.obj
 0002:00002070       $unwind$_ssRegisterDynamicArrayDataTypeFcn 000000018004e070     CTM_PID_withoutG_cgxe_registry.obj
 0002:00002078       $unwind$_ssGetDynamicArrayContainedDataCurrentWidthFcn 000000018004e078     CTM_PID_withoutG_cgxe_registry.obj
 0002:00002080       $unwind$_ssGetDynamicArrayContainedDataFcn 000000018004e080     CTM_PID_withoutG_cgxe_registry.obj
 0002:00002088       $unwind$_ssGetInputPortDynamicArrayDataFcn 000000018004e088     CTM_PID_withoutG_cgxe_registry.obj
 0002:00002090       $unwind$_ssGetOutputPortDynamicArrayDataFcn 000000018004e090     CTM_PID_withoutG_cgxe_registry.obj
 0002:00002098       $unwind$_ssGetInputPortDynamicArrayContainedDataFcn 000000018004e098     CTM_PID_withoutG_cgxe_registry.obj
 0002:000020a0       $unwind$_ssGetOutputPortDynamicArrayContainedDataFcn 000000018004e0a0     CTM_PID_withoutG_cgxe_registry.obj
 0002:000020a8       $unwind$_ssGetDynamicArrayDWorkContainedDataFcn 000000018004e0a8     CTM_PID_withoutG_cgxe_registry.obj
 0002:000020b0       $unwind$mdlStart           000000018004e0b0     CTM_PID_withoutG_cgxe_registry.obj
 0002:000020b8       $unwind$mdlInitializeConditions 000000018004e0b8     CTM_PID_withoutG_cgxe_registry.obj
 0002:000020c0       $unwind$mdlUpdate          000000018004e0c0     CTM_PID_withoutG_cgxe_registry.obj
 0002:000020c8       $unwind$mdlOutputs         000000018004e0c8     CTM_PID_withoutG_cgxe_registry.obj
 0002:000020d0       $unwind$mdlTerminate       000000018004e0d0     CTM_PID_withoutG_cgxe_registry.obj
 0002:000020d8       $unwind$cgxe_get_supported_modules 000000018004e0d8     CTM_PID_withoutG_cgxe_registry.obj
 0002:000020e0       $unwind$cgxe_process_get_checksums 000000018004e0e0     CTM_PID_withoutG_cgxe_registry.obj
 0002:000020f0       $unwind$cgxe_mex_unlock_call 000000018004e0f0     CTM_PID_withoutG_cgxe_registry.obj
 0002:000020f8       $unwind$cgxe_unpack_simstruct 000000018004e0f8     CTM_PID_withoutG_cgxe_registry.obj
 0002:00002100       $unwind$cgxe_get_sim_state 000000018004e100     CTM_PID_withoutG_cgxe_registry.obj
 0002:00002108       $unwind$cgxe_set_sim_state 000000018004e108     CTM_PID_withoutG_cgxe_registry.obj
 0002:00002110       $unwind$cgxe_get_BuildInfoUpdate 000000018004e110     CTM_PID_withoutG_cgxe_registry.obj
 0002:00002120       $unwind$cgxe_get_fallback_info 000000018004e120     CTM_PID_withoutG_cgxe_registry.obj
 0002:00002130       $unwind$ProcessMexSfunctionCmdLineCall 000000018004e130     CTM_PID_withoutG_cgxe_registry.obj
 0002:00002140       $unwind$_RegNumInputPortsCB 000000018004e140     CTM_PID_withoutG_cgxe_registry.obj
 0002:00002148       $unwind$_RegNumOutputPortsCB 000000018004e148     CTM_PID_withoutG_cgxe_registry.obj
 0002:00002150       $unwind$_CreateSimStruct   000000018004e150     CTM_PID_withoutG_cgxe_registry.obj
 0002:00002158       $unwind$_ProcessMexSfunctionCmdLineCall 000000018004e158     CTM_PID_withoutG_cgxe_registry.obj
 0002:00002168       $unwind$ReportIndexOutOfBoundsError 000000018004e168     CTM_PID_withoutG_cgxe_registry.obj
 0002:00002178       $unwind$ccdSign            000000018004e178     ccd_ccd.obj
 0002:00002180       $unwind$ccdIsZero          000000018004e180     ccd_ccd.obj
 0002:00002188       $unwind$ccdEq              000000018004e188     ccd_ccd.obj
 0002:00002190       $unwind$ccdVec3Eq          000000018004e190     ccd_ccd.obj
 0002:00002198       $unwind$ccdVec3Len2        000000018004e198     ccd_ccd.obj
 0002:000021a0       $unwind$ccdVec3Copy        000000018004e1a0     ccd_ccd.obj
 0002:000021a8       $unwind$ccdVec3Normalize   000000018004e1a8     ccd_ccd.obj
 0002:000021b0       $unwind$ccdVec3Dot         000000018004e1b0     ccd_ccd.obj
 0002:000021b8       $unwind$ccdSupportCopy     000000018004e1b8     ccd_ccd.obj
 0002:000021c0       $unwind$ccdSimplexLast     000000018004e1c0     ccd_ccd.obj
 0002:000021c8       $unwind$ccdSimplexAdd      000000018004e1c8     ccd_ccd.obj
 0002:000021d0       $unwind$ccdSimplexSet      000000018004e1d0     ccd_ccd.obj
 0002:000021d8       $unwind$ccdFirstDirDefault 000000018004e1d8     ccd_ccd.obj
 0002:000021e0       $unwind$__ccdSupport       000000018004e1e0     ccd_ccd.obj
 0002:000021f0       $unwind$ccdGJKIntersect    000000018004e1f0     ccd_ccd.obj
 0002:00002200       $unwind$__ccdGJK           000000018004e200     ccd_ccd.obj
 0002:00002210       $unwind$ccdGJKSeparate     000000018004e210     ccd_ccd.obj
 0002:00002218       $unwind$ccdGJKPenetration  000000018004e218     ccd_ccd.obj
 0002:00002220       $unwind$ccdPtDelEdge       000000018004e220     ccd_ccd.obj
 0002:00002228       $unwind$ccdPtDelFace       000000018004e228     ccd_ccd.obj
 0002:00002230       $unwind$__ccdGJKEPA        000000018004e230     ccd_ccd.obj
 0002:00002240       $unwind$doSimplex          000000018004e240     ccd_ccd.obj
 0002:00002248       $unwind$doSimplex2         000000018004e248     ccd_ccd.obj
 0002:00002258       $unwind$doSimplex3         000000018004e258     ccd_ccd.obj
 0002:00002268       $unwind$doSimplex4         000000018004e268     ccd_ccd.obj
 0002:00002278       $unwind$tripleCross        000000018004e278     ccd_ccd.obj
 0002:00002288       $unwind$simplexToPolytope4 000000018004e288     ccd_ccd.obj
 0002:00002298       $unwind$simplexToPolytope3 000000018004e298     ccd_ccd.obj
 0002:000022a8       $unwind$simplexToPolytope2 000000018004e2a8     ccd_ccd.obj
 0002:000022b8       $unwind$expandPolytope     000000018004e2b8     ccd_ccd.obj
 0002:000022c8       $unwind$nextSupport        000000018004e2c8     ccd_ccd.obj
 0002:000022d0       $unwind$penEPAPosCmp       000000018004e2d0     ccd_ccd.obj
 0002:000022d8       $unwind$penEPAPos          000000018004e2d8     ccd_ccd.obj
 0002:000022e0       $unwind$ccdIsZero          000000018004e2e0     ccd_mpr.obj
 0002:000022e8       $unwind$ccdEq              000000018004e2e8     ccd_mpr.obj
 0002:000022f0       $unwind$ccdVec3Eq          000000018004e2f0     ccd_mpr.obj
 0002:000022f8       $unwind$ccdVec3Len2        000000018004e2f8     ccd_mpr.obj
 0002:00002300       $unwind$ccdVec3Copy        000000018004e300     ccd_mpr.obj
 0002:00002308       $unwind$ccdVec3Normalize   000000018004e308     ccd_mpr.obj
 0002:00002310       $unwind$ccdVec3Dot         000000018004e310     ccd_mpr.obj
 0002:00002318       $unwind$ccdSupportCopy     000000018004e318     ccd_mpr.obj
 0002:00002320       $unwind$ccdSimplexSet      000000018004e320     ccd_mpr.obj
 0002:00002328       $unwind$ccdSimplexSwap     000000018004e328     ccd_mpr.obj
 0002:00002338       $unwind$ccdMPRIntersect    000000018004e338     ccd_mpr.obj
 0002:00002348       $unwind$ccdMPRPenetration  000000018004e348     ccd_mpr.obj
 0002:00002358       $unwind$findOrigin         000000018004e358     ccd_mpr.obj
 0002:00002360       $unwind$discoverPortal     000000018004e360     ccd_mpr.obj
 0002:00002370       $unwind$refinePortal       000000018004e370     ccd_mpr.obj
 0002:00002380       $unwind$findPenetr         000000018004e380     ccd_mpr.obj
 0002:00002390       $unwind$findPenetrTouch    000000018004e390     ccd_mpr.obj
 0002:00002398       $unwind$findPenetrSegment  000000018004e398     ccd_mpr.obj
 0002:000023a0       $unwind$findPos            000000018004e3a0     ccd_mpr.obj
 0002:000023b0       $unwind$expandPortal       000000018004e3b0     ccd_mpr.obj
 0002:000023c0       $unwind$portalDir          000000018004e3c0     ccd_mpr.obj
 0002:000023d0       $unwind$portalEncapsulesOrigin 000000018004e3d0     ccd_mpr.obj
 0002:000023d8       $unwind$portalReachTolerance 000000018004e3d8     ccd_mpr.obj
 0002:000023e0       $unwind$portalCanEncapsuleOrigin 000000018004e3e0     ccd_mpr.obj
 0002:000023e8       $unwind$_vfprintf_l        000000018004e3e8     ccd_polytope.obj
 0002:000023f0       $unwind$fprintf            000000018004e3f0     ccd_polytope.obj
 0002:000023f8       $unwind$ccdEq              000000018004e3f8     ccd_polytope.obj
 0002:00002400       $unwind$ccdVec3Len2        000000018004e400     ccd_polytope.obj
 0002:00002408       $unwind$ccdVec3Copy        000000018004e408     ccd_polytope.obj
 0002:00002410       $unwind$ccdVec3Dot         000000018004e410     ccd_polytope.obj
 0002:00002418       $unwind$ccdSupportCopy     000000018004e418     ccd_polytope.obj
 0002:00002420       $unwind$ccdListEmpty       000000018004e420     ccd_polytope.obj
 0002:00002428       $unwind$ccdPtInit          000000018004e428     ccd_polytope.obj
 0002:00002430       $unwind$ccdPtDestroy       000000018004e430     ccd_polytope.obj
 0002:00002438       $unwind$ccdPtAddVertex     000000018004e438     ccd_polytope.obj
 0002:00002440       $unwind$ccdPtAddEdge       000000018004e440     ccd_polytope.obj
 0002:00002448       $unwind$ccdPtAddFace       000000018004e448     ccd_polytope.obj
 0002:00002450       $unwind$ccdPtDelVertex     000000018004e450     ccd_polytope.obj
 0002:00002458       $unwind$ccdPtDelEdge       000000018004e458     ccd_polytope.obj
 0002:00002460       $unwind$ccdPtDelFace       000000018004e460     ccd_polytope.obj
 0002:00002468       $unwind$ccdPtRecomputeDistances 000000018004e468     ccd_polytope.obj
 0002:00002470       $unwind$ccdPtNearest       000000018004e470     ccd_polytope.obj
 0002:00002478       $unwind$ccdPtDumpSVT       000000018004e478     ccd_polytope.obj
 0002:00002480       $unwind$ccdPtDumpSVT2      000000018004e480     ccd_polytope.obj
 0002:00002488       $unwind$_ccdPtNearestUpdate 000000018004e488     ccd_polytope.obj
 0002:00002490       $unwind$_ccdPtNearestRenew 000000018004e490     ccd_polytope.obj
 0002:00002498       $unwind$ccdIsZero          000000018004e498     ccd_vec3.obj
 0002:000024a0       $unwind$ccdEq              000000018004e4a0     ccd_vec3.obj
 0002:000024a8       $unwind$ccdVec3Len2        000000018004e4a8     ccd_vec3.obj
 0002:000024b0       $unwind$ccdVec3Dist2       000000018004e4b0     ccd_vec3.obj
 0002:000024c0       $unwind$ccdVec3Copy        000000018004e4c0     ccd_vec3.obj
 0002:000024c8       $unwind$ccdVec3Dot         000000018004e4c8     ccd_vec3.obj
 0002:000024d0       $unwind$ccdVec3PointSegmentDist2 000000018004e4d0     ccd_vec3.obj
 0002:000024d8       $unwind$ccdVec3PointTriDist2 000000018004e4d8     ccd_vec3.obj
 0002:000024e8       $unwind$__ccdVec3PointSegmentDist2 000000018004e4e8     ccd_vec3.obj
 0002:000024f8       $unwind$ccdVec3Len2        000000018004e4f8     collisioncodegen_CollisionGeometry.obj
 0002:00002500       $unwind$ccdVec3Copy        000000018004e500     collisioncodegen_CollisionGeometry.obj
 0002:00002508       $unwind$ccdVec3Dot         000000018004e508     collisioncodegen_CollisionGeometry.obj
 0002:00002510       $unwind$ccdQuatLen2        000000018004e510     collisioncodegen_CollisionGeometry.obj
 0002:00002518       $unwind$ccdQuatCopy        000000018004e518     collisioncodegen_CollisionGeometry.obj
 0002:00002520       $unwind$ccdQuatInvert      000000018004e520     collisioncodegen_CollisionGeometry.obj
 0002:00002528       $unwind$ccdQuatInvert2     000000018004e528     collisioncodegen_CollisionGeometry.obj
 0002:00002530       $unwind$ccdQuatRotVec      000000018004e530     collisioncodegen_CollisionGeometry.obj
 0002:00002538       $unwind$??RCollisionGeometryDeleter@shared_robotics@@QEAAXPEAVCollisionGeometry@1@@Z 000000018004e538     collisioncodegen_CollisionGeometry.obj
 0002:00002540       $unwind$??1CollisionGeometry@shared_robotics@@UEAA@XZ 000000018004e540     collisioncodegen_CollisionGeometry.obj
 0002:00002548       $unwind$?support@CollisionGeometry@shared_robotics@@QEBAXPEBU_ccd_vec3_t@@PEAU3@@Z 000000018004e548     collisioncodegen_CollisionGeometry.obj
 0002:0000255c       $cppxdata$?support@CollisionGeometry@shared_robotics@@QEBAXPEBU_ccd_vec3_t@@PEAU3@@Z 000000018004e55c     collisioncodegen_CollisionGeometry.obj
 0002:00002565       $stateUnwindMap$?support@CollisionGeometry@shared_robotics@@QEBAXPEBU_ccd_vec3_t@@PEAU3@@Z 000000018004e565     collisioncodegen_CollisionGeometry.obj
 0002:0000256b       $ip2state$?support@CollisionGeometry@shared_robotics@@QEBAXPEBU_ccd_vec3_t@@PEAU3@@Z 000000018004e56b     collisioncodegen_CollisionGeometry.obj
 0002:0000257c       $unwind$?dtor$0@?0??support@CollisionGeometry@shared_robotics@@QEBAXPEBU_ccd_vec3_t@@PEAU3@@Z@4HA 000000018004e57c     collisioncodegen_CollisionGeometry.obj
 0002:00002584       $unwind$?constructConnectionList@CollisionGeometry@shared_robotics@@IEAAXXZ 000000018004e584     collisioncodegen_CollisionGeometry.obj
 0002:0000258c       $unwind$??0exception@std@@QEAA@QEBDH@Z 000000018004e58c     collisioncodegen_CollisionGeometry.obj
 0002:00002594       $unwind$??0exception@std@@QEAA@AEBV01@@Z 000000018004e594     collisioncodegen_CollisionGeometry.obj
 0002:000025a4       $cppxdata$??0exception@std@@QEAA@AEBV01@@Z 000000018004e5a4     collisioncodegen_CollisionGeometry.obj
 0002:000025a9       $ip2state$??0exception@std@@QEAA@AEBV01@@Z 000000018004e5a9     collisioncodegen_CollisionGeometry.obj
 0002:000025ac       $unwind$??1exception@std@@UEAA@XZ 000000018004e5ac     collisioncodegen_CollisionGeometry.obj
 0002:000025bc       $cppxdata$??1exception@std@@UEAA@XZ 000000018004e5bc     collisioncodegen_CollisionGeometry.obj
 0002:000025c1       $ip2state$??1exception@std@@UEAA@XZ 000000018004e5c1     collisioncodegen_CollisionGeometry.obj
 0002:000025c4       $unwind$?what@exception@std@@UEBAPEBDXZ 000000018004e5c4     collisioncodegen_CollisionGeometry.obj
 0002:000025cc       $unwind$??_Gexception@std@@UEAAPEAXI@Z 000000018004e5cc     collisioncodegen_CollisionGeometry.obj
 0002:000025d4       $unwind$??0bad_alloc@std@@AEAA@QEBD@Z 000000018004e5d4     collisioncodegen_CollisionGeometry.obj
 0002:000025dc       $unwind$??1bad_alloc@std@@UEAA@XZ 000000018004e5dc     collisioncodegen_CollisionGeometry.obj
 0002:000025e4       $unwind$??0bad_alloc@std@@QEAA@AEBV01@@Z 000000018004e5e4     collisioncodegen_CollisionGeometry.obj
 0002:000025ec       $unwind$??_Gbad_alloc@std@@UEAAPEAXI@Z 000000018004e5ec     collisioncodegen_CollisionGeometry.obj
 0002:000025f4       $unwind$??0bad_array_new_length@std@@QEAA@XZ 000000018004e5f4     collisioncodegen_CollisionGeometry.obj
 0002:000025fc       $unwind$??1bad_array_new_length@std@@UEAA@XZ 000000018004e5fc     collisioncodegen_CollisionGeometry.obj
 0002:00002604       $unwind$??0bad_array_new_length@std@@QEAA@AEBV01@@Z 000000018004e604     collisioncodegen_CollisionGeometry.obj
 0002:0000260c       $unwind$??_Gbad_array_new_length@std@@UEAAPEAXI@Z 000000018004e60c     collisioncodegen_CollisionGeometry.obj
 0002:00002614       $unwind$?_Throw_bad_array_new_length@std@@YAXXZ 000000018004e614     collisioncodegen_CollisionGeometry.obj
 0002:0000261c       $unwind$?_Allocate@_Default_allocate_traits@std@@SAPEAX_K@Z 000000018004e61c     collisioncodegen_CollisionGeometry.obj
 0002:00002624       $unwind$?_Adjust_manually_vector_aligned@std@@YAXAEAPEAXAEA_K@Z 000000018004e624     collisioncodegen_CollisionGeometry.obj
 0002:0000262c       $unwind$?length@?$_Narrow_char_traits@DH@std@@SA_KQEBD@Z 000000018004e62c     collisioncodegen_CollisionGeometry.obj
 0002:0000263c       $cppxdata$?length@?$_Narrow_char_traits@DH@std@@SA_KQEBD@Z 000000018004e63c     collisioncodegen_CollisionGeometry.obj
 0002:00002641       $ip2state$?length@?$_Narrow_char_traits@DH@std@@SA_KQEBD@Z 000000018004e641     collisioncodegen_CollisionGeometry.obj
 0002:00002644       $unwind$?eq_int_type@?$_Narrow_char_traits@DH@std@@SA_NAEBH0@Z 000000018004e644     collisioncodegen_CollisionGeometry.obj
 0002:0000264c       $unwind$?sign@CollisionGeometry@shared_robotics@@IEBAHN@Z 000000018004e64c     collisioncodegen_CollisionGeometry.obj
 0002:00002654       $unwind$?deallocate@?$allocator@U_ccd_vec3_t@@@std@@QEAAXQEAU_ccd_vec3_t@@_K@Z 000000018004e654     collisioncodegen_CollisionGeometry.obj
 0002:0000265c       $unwind$??1?$vector@U_ccd_vec3_t@@V?$allocator@U_ccd_vec3_t@@@std@@@std@@QEAA@XZ 000000018004e65c     collisioncodegen_CollisionGeometry.obj
 0002:00002664       $unwind$??A?$vector@U_ccd_vec3_t@@V?$allocator@U_ccd_vec3_t@@@std@@@std@@QEBAAEBU_ccd_vec3_t@@_K@Z 000000018004e664     collisioncodegen_CollisionGeometry.obj
 0002:0000266c       $unwind$?_Tidy@?$vector@U_ccd_vec3_t@@V?$allocator@U_ccd_vec3_t@@@std@@@std@@AEAAXXZ 000000018004e66c     collisioncodegen_CollisionGeometry.obj
 0002:0000267c       $cppxdata$?_Tidy@?$vector@U_ccd_vec3_t@@V?$allocator@U_ccd_vec3_t@@@std@@@std@@AEAAXXZ 000000018004e67c     collisioncodegen_CollisionGeometry.obj
 0002:00002681       $ip2state$?_Tidy@?$vector@U_ccd_vec3_t@@V?$allocator@U_ccd_vec3_t@@@std@@@std@@AEAAXXZ 000000018004e681     collisioncodegen_CollisionGeometry.obj
 0002:00002684       $unwind$?_Getal@?$vector@U_ccd_vec3_t@@V?$allocator@U_ccd_vec3_t@@@std@@@std@@AEAAAEAV?$allocator@U_ccd_vec3_t@@@2@XZ 000000018004e684     collisioncodegen_CollisionGeometry.obj
 0002:0000268c       $unwind$?deallocate@?$allocator@U_idx_vec3_t@shared_robotics@@@std@@QEAAXQEAU_idx_vec3_t@shared_robotics@@_K@Z 000000018004e68c     collisioncodegen_CollisionGeometry.obj
 0002:00002694       $unwind$??1?$vector@U_idx_vec3_t@shared_robotics@@V?$allocator@U_idx_vec3_t@shared_robotics@@@std@@@std@@QEAA@XZ 000000018004e694     collisioncodegen_CollisionGeometry.obj
 0002:0000269c       $unwind$??A?$vector@U_idx_vec3_t@shared_robotics@@V?$allocator@U_idx_vec3_t@shared_robotics@@@std@@@std@@QEAAAEAU_idx_vec3_t@shared_robotics@@_K@Z 000000018004e69c     collisioncodegen_CollisionGeometry.obj
 0002:000026a4       $unwind$?_Tidy@?$vector@U_idx_vec3_t@shared_robotics@@V?$allocator@U_idx_vec3_t@shared_robotics@@@std@@@std@@AEAAXXZ 000000018004e6a4     collisioncodegen_CollisionGeometry.obj
 0002:000026b4       $cppxdata$?_Tidy@?$vector@U_idx_vec3_t@shared_robotics@@V?$allocator@U_idx_vec3_t@shared_robotics@@@std@@@std@@AEAAXXZ 000000018004e6b4     collisioncodegen_CollisionGeometry.obj
 0002:000026b9       $ip2state$?_Tidy@?$vector@U_idx_vec3_t@shared_robotics@@V?$allocator@U_idx_vec3_t@shared_robotics@@@std@@@std@@AEAAXXZ 000000018004e6b9     collisioncodegen_CollisionGeometry.obj
 0002:000026bc       $unwind$?_Getal@?$vector@U_idx_vec3_t@shared_robotics@@V?$allocator@U_idx_vec3_t@shared_robotics@@@std@@@std@@AEAAAEAV?$allocator@U_idx_vec3_t@shared_robotics@@@2@XZ 000000018004e6bc     collisioncodegen_CollisionGeometry.obj
 0002:000026c4       $unwind$?deallocate@?$allocator@V?$vector@_KV?$allocator@_K@std@@@std@@@std@@QEAAXQEAV?$vector@_KV?$allocator@_K@std@@@2@_K@Z 000000018004e6c4     collisioncodegen_CollisionGeometry.obj
 0002:000026cc       $unwind$?allocate@?$allocator@V?$vector@_KV?$allocator@_K@std@@@std@@@std@@QEAAPEAV?$vector@_KV?$allocator@_K@std@@@2@_K@Z 000000018004e6cc     collisioncodegen_CollisionGeometry.obj
 0002:000026d4       $unwind$??1?$vector@V?$vector@_KV?$allocator@_K@std@@@std@@V?$allocator@V?$vector@_KV?$allocator@_K@std@@@std@@@2@@std@@QEAA@XZ 000000018004e6d4     collisioncodegen_CollisionGeometry.obj
 0002:000026dc       $unwind$?resize@?$vector@V?$vector@_KV?$allocator@_K@std@@@std@@V?$allocator@V?$vector@_KV?$allocator@_K@std@@@std@@@2@@std@@QEAAX_K@Z 000000018004e6dc     collisioncodegen_CollisionGeometry.obj
 0002:000026e4       $unwind$?max_size@?$vector@V?$vector@_KV?$allocator@_K@std@@@std@@V?$allocator@V?$vector@_KV?$allocator@_K@std@@@std@@@2@@std@@QEBA_KXZ 000000018004e6e4     collisioncodegen_CollisionGeometry.obj
 0002:000026ec       $unwind$?capacity@?$vector@V?$vector@_KV?$allocator@_K@std@@@std@@V?$allocator@V?$vector@_KV?$allocator@_K@std@@@std@@@2@@std@@QEBA_KXZ 000000018004e6ec     collisioncodegen_CollisionGeometry.obj
 0002:000026f4       $unwind$??A?$vector@V?$vector@_KV?$allocator@_K@std@@@std@@V?$allocator@V?$vector@_KV?$allocator@_K@std@@@std@@@2@@std@@QEAAAEAV?$vector@_KV?$allocator@_K@std@@@1@_K@Z 000000018004e6f4     collisioncodegen_CollisionGeometry.obj
 0002:000026fc       $unwind$??A?$vector@V?$vector@_KV?$allocator@_K@std@@@std@@V?$allocator@V?$vector@_KV?$allocator@_K@std@@@std@@@2@@std@@QEBAAEBV?$vector@_KV?$allocator@_K@std@@@1@_K@Z 000000018004e6fc     collisioncodegen_CollisionGeometry.obj
 0002:00002704       $unwind$?_Calculate_growth@?$vector@V?$vector@_KV?$allocator@_K@std@@@std@@V?$allocator@V?$vector@_KV?$allocator@_K@std@@@std@@@2@@std@@AEBA_K_K@Z 000000018004e704     collisioncodegen_CollisionGeometry.obj
 0002:0000270c       $unwind$?_Change_array@?$vector@V?$vector@_KV?$allocator@_K@std@@@std@@V?$allocator@V?$vector@_KV?$allocator@_K@std@@@std@@@2@@std@@AEAAXQEAV?$vector@_KV?$allocator@_K@std@@@2@_K1@Z 000000018004e70c     collisioncodegen_CollisionGeometry.obj
 0002:00002714       $unwind$?_Tidy@?$vector@V?$vector@_KV?$allocator@_K@std@@@std@@V?$allocator@V?$vector@_KV?$allocator@_K@std@@@std@@@2@@std@@AEAAXXZ 000000018004e714     collisioncodegen_CollisionGeometry.obj
 0002:00002724       $cppxdata$?_Tidy@?$vector@V?$vector@_KV?$allocator@_K@std@@@std@@V?$allocator@V?$vector@_KV?$allocator@_K@std@@@std@@@2@@std@@AEAAXXZ 000000018004e724     collisioncodegen_CollisionGeometry.obj
 0002:00002729       $ip2state$?_Tidy@?$vector@V?$vector@_KV?$allocator@_K@std@@@std@@V?$allocator@V?$vector@_KV?$allocator@_K@std@@@std@@@2@@std@@AEAAXXZ 000000018004e729     collisioncodegen_CollisionGeometry.obj
 0002:0000272c       $unwind$?_Xlength@?$vector@V?$vector@_KV?$allocator@_K@std@@@std@@V?$allocator@V?$vector@_KV?$allocator@_K@std@@@std@@@2@@std@@CAXXZ 000000018004e72c     collisioncodegen_CollisionGeometry.obj
 0002:00002734       $unwind$?_Getal@?$vector@V?$vector@_KV?$allocator@_K@std@@@std@@V?$allocator@V?$vector@_KV?$allocator@_K@std@@@std@@@2@@std@@AEAAAEAV?$allocator@V?$vector@_KV?$allocator@_K@std@@@std@@@2@XZ 000000018004e734     collisioncodegen_CollisionGeometry.obj
 0002:0000273c       $unwind$?_Getal@?$vector@V?$vector@_KV?$allocator@_K@std@@@std@@V?$allocator@V?$vector@_KV?$allocator@_K@std@@@std@@@2@@std@@AEBAAEBV?$allocator@V?$vector@_KV?$allocator@_K@std@@@std@@@2@XZ 000000018004e73c     collisioncodegen_CollisionGeometry.obj
 0002:00002744       $unwind$??_GCollisionGeometry@shared_robotics@@UEAAPEAXI@Z 000000018004e744     collisioncodegen_CollisionGeometry.obj
 0002:0000274c       $unwind$?deallocate@?$allocator@N@std@@QEAAXQEAN_K@Z 000000018004e74c     collisioncodegen_CollisionGeometry.obj
 0002:00002754       $unwind$?allocate@?$allocator@N@std@@QEAAPEAN_K@Z 000000018004e754     collisioncodegen_CollisionGeometry.obj
 0002:0000275c       $unwind$??0?$vector@NV?$allocator@N@std@@@std@@QEAA@XZ 000000018004e75c     collisioncodegen_CollisionGeometry.obj
 0002:00002764       $unwind$??1?$vector@NV?$allocator@N@std@@@std@@QEAA@XZ 000000018004e764     collisioncodegen_CollisionGeometry.obj
 0002:0000276c       $unwind$?push_back@?$vector@NV?$allocator@N@std@@@std@@QEAAX$$QEAN@Z 000000018004e76c     collisioncodegen_CollisionGeometry.obj
 0002:00002774       $unwind$?begin@?$vector@NV?$allocator@N@std@@@std@@QEAA?AV?$_Vector_iterator@V?$_Vector_val@U?$_Simple_types@N@std@@@std@@@2@XZ 000000018004e774     collisioncodegen_CollisionGeometry.obj
 0002:0000277c       $unwind$?end@?$vector@NV?$allocator@N@std@@@std@@QEAA?AV?$_Vector_iterator@V?$_Vector_val@U?$_Simple_types@N@std@@@std@@@2@XZ 000000018004e77c     collisioncodegen_CollisionGeometry.obj
 0002:00002784       $unwind$?max_size@?$vector@NV?$allocator@N@std@@@std@@QEBA_KXZ 000000018004e784     collisioncodegen_CollisionGeometry.obj
 0002:0000278c       $unwind$?capacity@?$vector@NV?$allocator@N@std@@@std@@QEBA_KXZ 000000018004e78c     collisioncodegen_CollisionGeometry.obj
 0002:00002794       $unwind$?_Calculate_growth@?$vector@NV?$allocator@N@std@@@std@@AEBA_K_K@Z 000000018004e794     collisioncodegen_CollisionGeometry.obj
 0002:0000279c       $unwind$?_Change_array@?$vector@NV?$allocator@N@std@@@std@@AEAAXQEAN_K1@Z 000000018004e79c     collisioncodegen_CollisionGeometry.obj
 0002:000027a4       $unwind$?_Tidy@?$vector@NV?$allocator@N@std@@@std@@AEAAXXZ 000000018004e7a4     collisioncodegen_CollisionGeometry.obj
 0002:000027b4       $cppxdata$?_Tidy@?$vector@NV?$allocator@N@std@@@std@@AEAAXXZ 000000018004e7b4     collisioncodegen_CollisionGeometry.obj
 0002:000027b9       $ip2state$?_Tidy@?$vector@NV?$allocator@N@std@@@std@@AEAAXXZ 000000018004e7b9     collisioncodegen_CollisionGeometry.obj
 0002:000027bc       $unwind$?_Xlength@?$vector@NV?$allocator@N@std@@@std@@CAXXZ 000000018004e7bc     collisioncodegen_CollisionGeometry.obj
 0002:000027c4       $unwind$?_Getal@?$vector@NV?$allocator@N@std@@@std@@AEAAAEAV?$allocator@N@2@XZ 000000018004e7c4     collisioncodegen_CollisionGeometry.obj
 0002:000027cc       $unwind$?_Getal@?$vector@NV?$allocator@N@std@@@std@@AEBAAEBV?$allocator@N@2@XZ 000000018004e7cc     collisioncodegen_CollisionGeometry.obj
 0002:000027d4       $unwind$??0?$_Vector_const_iterator@V?$_Vector_val@U?$_Simple_types@N@std@@@std@@@std@@QEAA@PEANPEBU_Container_base0@1@@Z 000000018004e7d4     collisioncodegen_CollisionGeometry.obj
 0002:000027dc       $unwind$??G?$_Vector_const_iterator@V?$_Vector_val@U?$_Simple_types@N@std@@@std@@@std@@QEBA_JAEBV01@@Z 000000018004e7dc     collisioncodegen_CollisionGeometry.obj
 0002:000027e4       $unwind$?_Seek_to@?$_Vector_const_iterator@V?$_Vector_val@U?$_Simple_types@N@std@@@std@@@std@@QEAAXPEBN@Z 000000018004e7e4     collisioncodegen_CollisionGeometry.obj
 0002:000027ec       $unwind$?_Unwrapped@?$_Vector_iterator@V?$_Vector_val@U?$_Simple_types@N@std@@@std@@@std@@QEBAPEANXZ 000000018004e7ec     collisioncodegen_CollisionGeometry.obj
 0002:000027f4       $unwind$??0?$_Vector_iterator@V?$_Vector_val@U?$_Simple_types@N@std@@@std@@@std@@QEAA@PEANPEBU_Container_base0@1@@Z 000000018004e7f4     collisioncodegen_CollisionGeometry.obj
 0002:000027fc       $unwind$??$max_element@V?$_Vector_iterator@V?$_Vector_val@U?$_Simple_types@N@std@@@std@@@std@@@std@@YA?AV?$_Vector_iterator@V?$_Vector_val@U?$_Simple_types@N@std@@@std@@@0@V10@0@Z 000000018004e7fc     collisioncodegen_CollisionGeometry.obj
 0002:00002804       $unwind$?deallocate@?$allocator@_K@std@@QEAAXQEA_K_K@Z 000000018004e804     collisioncodegen_CollisionGeometry.obj
 0002:0000280c       $unwind$?allocate@?$allocator@_K@std@@QEAAPEA_K_K@Z 000000018004e80c     collisioncodegen_CollisionGeometry.obj
 0002:00002814       $unwind$??0?$vector@_KV?$allocator@_K@std@@@std@@QEAA@XZ 000000018004e814     collisioncodegen_CollisionGeometry.obj
 0002:0000281c       $unwind$??0?$vector@_KV?$allocator@_K@std@@@std@@QEAA@$$QEAV01@@Z 000000018004e81c     collisioncodegen_CollisionGeometry.obj
 0002:00002824       $unwind$??1?$vector@_KV?$allocator@_K@std@@@std@@QEAA@XZ 000000018004e824     collisioncodegen_CollisionGeometry.obj
 0002:0000282c       $unwind$?push_back@?$vector@_KV?$allocator@_K@std@@@std@@QEAAXAEB_K@Z 000000018004e82c     collisioncodegen_CollisionGeometry.obj
 0002:00002834       $unwind$?resize@?$vector@_KV?$allocator@_K@std@@@std@@QEAAX_K@Z 000000018004e834     collisioncodegen_CollisionGeometry.obj
 0002:0000283c       $unwind$?erase@?$vector@_KV?$allocator@_K@std@@@std@@QEAA?AV?$_Vector_iterator@V?$_Vector_val@U?$_Simple_types@_K@std@@@std@@@2@V?$_Vector_const_iterator@V?$_Vector_val@U?$_Simple_types@_K@std@@@std@@@2@0@Z 000000018004e83c     collisioncodegen_CollisionGeometry.obj
 0002:0000284c       $cppxdata$?erase@?$vector@_KV?$allocator@_K@std@@@std@@QEAA?AV?$_Vector_iterator@V?$_Vector_val@U?$_Simple_types@_K@std@@@std@@@2@V?$_Vector_const_iterator@V?$_Vector_val@U?$_Simple_types@_K@std@@@std@@@2@0@Z 000000018004e84c     collisioncodegen_CollisionGeometry.obj
 0002:00002851       $ip2state$?erase@?$vector@_KV?$allocator@_K@std@@@std@@QEAA?AV?$_Vector_iterator@V?$_Vector_val@U?$_Simple_types@_K@std@@@std@@@2@V?$_Vector_const_iterator@V?$_Vector_val@U?$_Simple_types@_K@std@@@std@@@2@0@Z 000000018004e851     collisioncodegen_CollisionGeometry.obj
 0002:00002854       $unwind$?clear@?$vector@_KV?$allocator@_K@std@@@std@@QEAAXXZ 000000018004e854     collisioncodegen_CollisionGeometry.obj
 0002:0000285c       $unwind$?begin@?$vector@_KV?$allocator@_K@std@@@std@@QEAA?AV?$_Vector_iterator@V?$_Vector_val@U?$_Simple_types@_K@std@@@std@@@2@XZ 000000018004e85c     collisioncodegen_CollisionGeometry.obj
 0002:00002864       $unwind$?end@?$vector@_KV?$allocator@_K@std@@@std@@QEAA?AV?$_Vector_iterator@V?$_Vector_val@U?$_Simple_types@_K@std@@@std@@@2@XZ 000000018004e864     collisioncodegen_CollisionGeometry.obj
 0002:0000286c       $unwind$?size@?$vector@_KV?$allocator@_K@std@@@std@@QEBA_KXZ 000000018004e86c     collisioncodegen_CollisionGeometry.obj
 0002:00002874       $unwind$?max_size@?$vector@_KV?$allocator@_K@std@@@std@@QEBA_KXZ 000000018004e874     collisioncodegen_CollisionGeometry.obj
 0002:0000287c       $unwind$?capacity@?$vector@_KV?$allocator@_K@std@@@std@@QEBA_KXZ 000000018004e87c     collisioncodegen_CollisionGeometry.obj
 0002:00002884       $unwind$??A?$vector@_KV?$allocator@_K@std@@@std@@QEBAAEB_K_K@Z 000000018004e884     collisioncodegen_CollisionGeometry.obj
 0002:0000288c       $unwind$?_Calculate_growth@?$vector@_KV?$allocator@_K@std@@@std@@AEBA_K_K@Z 000000018004e88c     collisioncodegen_CollisionGeometry.obj
 0002:00002894       $unwind$?_Change_array@?$vector@_KV?$allocator@_K@std@@@std@@AEAAXQEA_K_K1@Z 000000018004e894     collisioncodegen_CollisionGeometry.obj
 0002:0000289c       $unwind$?_Tidy@?$vector@_KV?$allocator@_K@std@@@std@@AEAAXXZ 000000018004e89c     collisioncodegen_CollisionGeometry.obj
 0002:000028ac       $cppxdata$?_Tidy@?$vector@_KV?$allocator@_K@std@@@std@@AEAAXXZ 000000018004e8ac     collisioncodegen_CollisionGeometry.obj
 0002:000028b1       $ip2state$?_Tidy@?$vector@_KV?$allocator@_K@std@@@std@@AEAAXXZ 000000018004e8b1     collisioncodegen_CollisionGeometry.obj
 0002:000028b4       $unwind$?_Xlength@?$vector@_KV?$allocator@_K@std@@@std@@CAXXZ 000000018004e8b4     collisioncodegen_CollisionGeometry.obj
 0002:000028bc       $unwind$?_Getal@?$vector@_KV?$allocator@_K@std@@@std@@AEAAAEAV?$allocator@_K@2@XZ 000000018004e8bc     collisioncodegen_CollisionGeometry.obj
 0002:000028c4       $unwind$?_Getal@?$vector@_KV?$allocator@_K@std@@@std@@AEBAAEBV?$allocator@_K@2@XZ 000000018004e8c4     collisioncodegen_CollisionGeometry.obj
 0002:000028cc       $unwind$??_G?$vector@_KV?$allocator@_K@std@@@std@@QEAAPEAXI@Z 000000018004e8cc     collisioncodegen_CollisionGeometry.obj
 0002:000028d4       $unwind$??$?6U?$char_traits@D@std@@@std@@YAAEAV?$basic_ostream@DU?$char_traits@D@std@@@0@AEAV10@PEBD@Z 000000018004e8d4     collisioncodegen_CollisionGeometry.obj
 0002:000028e4       $cppxdata$??$?6U?$char_traits@D@std@@@std@@YAAEAV?$basic_ostream@DU?$char_traits@D@std@@@0@AEAV10@PEBD@Z 000000018004e8e4     collisioncodegen_CollisionGeometry.obj
 0002:000028f1       $stateUnwindMap$??$?6U?$char_traits@D@std@@@std@@YAAEAV?$basic_ostream@DU?$char_traits@D@std@@@0@AEAV10@PEBD@Z 000000018004e8f1     collisioncodegen_CollisionGeometry.obj
 0002:000028f9       $tryMap$??$?6U?$char_traits@D@std@@@std@@YAAEAV?$basic_ostream@DU?$char_traits@D@std@@@0@AEAV10@PEBD@Z 000000018004e8f9     collisioncodegen_CollisionGeometry.obj
 0002:00002901       $handlerMap$??$?6U?$char_traits@D@std@@@std@@YAAEAV?$basic_ostream@DU?$char_traits@D@std@@@0@AEAV10@PEBD@Z 000000018004e901     collisioncodegen_CollisionGeometry.obj
 0002:00002908       $ip2state$??$?6U?$char_traits@D@std@@@std@@YAAEAV?$basic_ostream@DU?$char_traits@D@std@@@0@AEAV10@PEBD@Z 000000018004e908     collisioncodegen_CollisionGeometry.obj
 0002:00002918       $unwind$?dtor$0@?0???$?6U?$char_traits@D@std@@@std@@YAAEAV?$basic_ostream@DU?$char_traits@D@std@@@0@AEAV10@PEBD@Z@4HA 000000018004e918     collisioncodegen_CollisionGeometry.obj
 0002:00002920       $unwind$?catch$1@?0???$?6U?$char_traits@D@std@@@std@@YAAEAV?$basic_ostream@DU?$char_traits@D@std@@@0@AEAV10@PEBD@Z@4HA 000000018004e920     collisioncodegen_CollisionGeometry.obj
 0002:00002928       $unwind$??$endl@DU?$char_traits@D@std@@@std@@YAAEAV?$basic_ostream@DU?$char_traits@D@std@@@0@AEAV10@@Z 000000018004e928     collisioncodegen_CollisionGeometry.obj
 0002:00002930       $unwind$??0?$_Vector_const_iterator@V?$_Vector_val@U?$_Simple_types@_K@std@@@std@@@std@@QEAA@PEA_KPEBU_Container_base0@1@@Z 000000018004e930     collisioncodegen_CollisionGeometry.obj
 0002:00002938       $unwind$?_Seek_to@?$_Vector_const_iterator@V?$_Vector_val@U?$_Simple_types@_K@std@@@std@@@std@@QEAAXPEB_K@Z 000000018004e938     collisioncodegen_CollisionGeometry.obj
 0002:00002940       $unwind$?_Unwrapped@?$_Vector_iterator@V?$_Vector_val@U?$_Simple_types@_K@std@@@std@@@std@@QEBAPEA_KXZ 000000018004e940     collisioncodegen_CollisionGeometry.obj
 0002:00002948       $unwind$??0?$_Vector_iterator@V?$_Vector_val@U?$_Simple_types@_K@std@@@std@@@std@@QEAA@PEA_KPEBU_Container_base0@1@@Z 000000018004e948     collisioncodegen_CollisionGeometry.obj
 0002:00002950       $unwind$??$sort@V?$_Vector_iterator@V?$_Vector_val@U?$_Simple_types@_K@std@@@std@@@std@@@std@@YAXV?$_Vector_iterator@V?$_Vector_val@U?$_Simple_types@_K@std@@@std@@@0@0@Z 000000018004e950     collisioncodegen_CollisionGeometry.obj
 0002:00002958       $unwind$??$unique@V?$_Vector_iterator@V?$_Vector_val@U?$_Simple_types@_K@std@@@std@@@std@@@std@@YA?AV?$_Vector_iterator@V?$_Vector_val@U?$_Simple_types@_K@std@@@std@@@0@V10@0@Z 000000018004e958     collisioncodegen_CollisionGeometry.obj
 0002:00002960       $unwind$??$_Move_unchecked@PEA_KPEA_K@std@@YAPEA_KPEA_K00@Z 000000018004e960     collisioncodegen_CollisionGeometry.obj
 0002:00002968       $unwind$??$_Resize@U_Value_init_tag@std@@@?$vector@_KV?$allocator@_K@std@@@std@@AEAAX_KAEBU_Value_init_tag@1@@Z 000000018004e968     collisioncodegen_CollisionGeometry.obj
 0002:00002970       $unwind$??$emplace_back@AEB_K@?$vector@_KV?$allocator@_K@std@@@std@@QEAA?A_TAEB_K@Z 000000018004e970     collisioncodegen_CollisionGeometry.obj
 0002:00002978       $unwind$??$_Emplace_back_with_unused_capacity@AEB_K@?$vector@_KV?$allocator@_K@std@@@std@@AEAA?A_TAEB_K@Z 000000018004e978     collisioncodegen_CollisionGeometry.obj
 0002:00002980       $unwind$??$construct@_KAEB_K@?$_Default_allocator_traits@V?$allocator@_K@std@@@std@@SAXAEAV?$allocator@_K@1@QEA_KAEB_K@Z 000000018004e980     collisioncodegen_CollisionGeometry.obj
 0002:00002988       $unwind$??$_Emplace_reallocate@AEB_K@?$vector@_KV?$allocator@_K@std@@@std@@QEAAPEA_KQEA_KAEB_K@Z 000000018004e988     collisioncodegen_CollisionGeometry.obj
 0002:00002998       $cppxdata$??$_Emplace_reallocate@AEB_K@?$vector@_KV?$allocator@_K@std@@@std@@QEAAPEA_KQEA_KAEB_K@Z 000000018004e998     collisioncodegen_CollisionGeometry.obj
 0002:000029a5       $stateUnwindMap$??$_Emplace_reallocate@AEB_K@?$vector@_KV?$allocator@_K@std@@@std@@QEAAPEA_KQEA_KAEB_K@Z 000000018004e9a5     collisioncodegen_CollisionGeometry.obj
 0002:000029a8       $tryMap$??$_Emplace_reallocate@AEB_K@?$vector@_KV?$allocator@_K@std@@@std@@QEAAPEA_KQEA_KAEB_K@Z 000000018004e9a8     collisioncodegen_CollisionGeometry.obj
 0002:000029b0       $handlerMap$??$_Emplace_reallocate@AEB_K@?$vector@_KV?$allocator@_K@std@@@std@@QEAAPEA_KQEA_KAEB_K@Z 000000018004e9b0     collisioncodegen_CollisionGeometry.obj
 0002:000029b7       $ip2state$??$_Emplace_reallocate@AEB_K@?$vector@_KV?$allocator@_K@std@@@std@@QEAAPEA_KQEA_KAEB_K@Z 000000018004e9b7     collisioncodegen_CollisionGeometry.obj
 0002:000029c0       $unwind$?catch$0@?0???$_Emplace_reallocate@AEB_K@?$vector@_KV?$allocator@_K@std@@@std@@QEAAPEA_KQEA_KAEB_K@Z@4HA 000000018004e9c0     collisioncodegen_CollisionGeometry.obj
 0002:000029c8       $unwind$??$emplace_back@N@?$vector@NV?$allocator@N@std@@@std@@QEAA?A_T$$QEAN@Z 000000018004e9c8     collisioncodegen_CollisionGeometry.obj
 0002:000029d0       $unwind$??$_Emplace_back_with_unused_capacity@N@?$vector@NV?$allocator@N@std@@@std@@AEAA?A_T$$QEAN@Z 000000018004e9d0     collisioncodegen_CollisionGeometry.obj
 0002:000029d8       $unwind$??$construct@NN@?$_Default_allocator_traits@V?$allocator@N@std@@@std@@SAXAEAV?$allocator@N@1@QEAN$$QEAN@Z 000000018004e9d8     collisioncodegen_CollisionGeometry.obj
 0002:000029e0       $unwind$??$_Emplace_reallocate@N@?$vector@NV?$allocator@N@std@@@std@@QEAAPEANQEAN$$QEAN@Z 000000018004e9e0     collisioncodegen_CollisionGeometry.obj
 0002:000029f0       $cppxdata$??$_Emplace_reallocate@N@?$vector@NV?$allocator@N@std@@@std@@QEAAPEANQEAN$$QEAN@Z 000000018004e9f0     collisioncodegen_CollisionGeometry.obj
 0002:000029fd       $stateUnwindMap$??$_Emplace_reallocate@N@?$vector@NV?$allocator@N@std@@@std@@QEAAPEANQEAN$$QEAN@Z 000000018004e9fd     collisioncodegen_CollisionGeometry.obj
 0002:00002a00       $tryMap$??$_Emplace_reallocate@N@?$vector@NV?$allocator@N@std@@@std@@QEAAPEANQEAN$$QEAN@Z 000000018004ea00     collisioncodegen_CollisionGeometry.obj
 0002:00002a08       $handlerMap$??$_Emplace_reallocate@N@?$vector@NV?$allocator@N@std@@@std@@QEAAPEANQEAN$$QEAN@Z 000000018004ea08     collisioncodegen_CollisionGeometry.obj
 0002:00002a0f       $ip2state$??$_Emplace_reallocate@N@?$vector@NV?$allocator@N@std@@@std@@QEAAPEANQEAN$$QEAN@Z 000000018004ea0f     collisioncodegen_CollisionGeometry.obj
 0002:00002a18       $unwind$?catch$0@?0???$_Emplace_reallocate@N@?$vector@NV?$allocator@N@std@@@std@@QEAAPEANQEAN$$QEAN@Z@4HA 000000018004ea18     collisioncodegen_CollisionGeometry.obj
 0002:00002a20       $unwind$??$?0$$V@?$_Compressed_pair@V?$allocator@N@std@@V?$_Vector_val@U?$_Simple_types@N@std@@@2@$00@std@@QEAA@U_Zero_then_variadic_args_t@1@@Z 000000018004ea20     collisioncodegen_CollisionGeometry.obj
 0002:00002a28       $unwind$??$_Resize@U_Value_init_tag@std@@@?$vector@V?$vector@_KV?$allocator@_K@std@@@std@@V?$allocator@V?$vector@_KV?$allocator@_K@std@@@std@@@2@@std@@AEAAX_KAEBU_Value_init_tag@1@@Z 000000018004ea28     collisioncodegen_CollisionGeometry.obj
 0002:00002a30       $unwind$??$min@_K@std@@YAAEB_KAEB_K0@Z 000000018004ea30     collisioncodegen_CollisionGeometry.obj
 0002:00002a38       $unwind$??$_Destroy_range@V?$allocator@V?$vector@_KV?$allocator@_K@std@@@std@@@std@@@std@@YAXPEAV?$vector@_KV?$allocator@_K@std@@@0@QEAV10@AEAV?$allocator@V?$vector@_KV?$allocator@_K@std@@@std@@@0@@Z 000000018004ea38     collisioncodegen_CollisionGeometry.obj
 0002:00002a48       $cppxdata$??$_Destroy_range@V?$allocator@V?$vector@_KV?$allocator@_K@std@@@std@@@std@@@std@@YAXPEAV?$vector@_KV?$allocator@_K@std@@@0@QEAV10@AEAV?$allocator@V?$vector@_KV?$allocator@_K@std@@@std@@@0@@Z 000000018004ea48     collisioncodegen_CollisionGeometry.obj
 0002:00002a4d       $ip2state$??$_Destroy_range@V?$allocator@V?$vector@_KV?$allocator@_K@std@@@std@@@std@@@std@@YAXPEAV?$vector@_KV?$allocator@_K@std@@@0@QEAV10@AEAV?$allocator@V?$vector@_KV?$allocator@_K@std@@@std@@@0@@Z 000000018004ea4d     collisioncodegen_CollisionGeometry.obj
 0002:00002a50       $unwind$??$_Deallocate@$0BA@$0A@@std@@YAXPEAX_K@Z 000000018004ea50     collisioncodegen_CollisionGeometry.obj
 0002:00002a60       $cppxdata$??$_Deallocate@$0BA@$0A@@std@@YAXPEAX_K@Z 000000018004ea60     collisioncodegen_CollisionGeometry.obj
 0002:00002a65       $ip2state$??$_Deallocate@$0BA@$0A@@std@@YAXPEAX_K@Z 000000018004ea65     collisioncodegen_CollisionGeometry.obj
 0002:00002a68       $unwind$??$_Allocate@$0BA@U_Default_allocate_traits@std@@$0A@@std@@YAPEAX_K@Z 000000018004ea68     collisioncodegen_CollisionGeometry.obj
 0002:00002a70       $unwind$??$max_element@V?$_Vector_iterator@V?$_Vector_val@U?$_Simple_types@N@std@@@std@@@std@@U?$less@X@2@@std@@YA?AV?$_Vector_iterator@V?$_Vector_val@U?$_Simple_types@N@std@@@std@@@0@V10@0U?$less@X@0@@Z 000000018004ea70     collisioncodegen_CollisionGeometry.obj
 0002:00002a78       $unwind$??0_Sentry_base@?$basic_ostream@DU?$char_traits@D@std@@@std@@QEAA@AEAV12@@Z 000000018004ea78     collisioncodegen_CollisionGeometry.obj
 0002:00002a80       $unwind$??1_Sentry_base@?$basic_ostream@DU?$char_traits@D@std@@@std@@QEAA@XZ 000000018004ea80     collisioncodegen_CollisionGeometry.obj
 0002:00002a90       $cppxdata$??1_Sentry_base@?$basic_ostream@DU?$char_traits@D@std@@@std@@QEAA@XZ 000000018004ea90     collisioncodegen_CollisionGeometry.obj
 0002:00002a95       $ip2state$??1_Sentry_base@?$basic_ostream@DU?$char_traits@D@std@@@std@@QEAA@XZ 000000018004ea95     collisioncodegen_CollisionGeometry.obj
 0002:00002a98       $unwind$??0sentry@?$basic_ostream@DU?$char_traits@D@std@@@std@@QEAA@AEAV12@@Z 000000018004ea98     collisioncodegen_CollisionGeometry.obj
 0002:00002aa8       $cppxdata$??0sentry@?$basic_ostream@DU?$char_traits@D@std@@@std@@QEAA@AEAV12@@Z 000000018004eaa8     collisioncodegen_CollisionGeometry.obj
 0002:00002ab1       $stateUnwindMap$??0sentry@?$basic_ostream@DU?$char_traits@D@std@@@std@@QEAA@AEAV12@@Z 000000018004eab1     collisioncodegen_CollisionGeometry.obj
 0002:00002ab7       $ip2state$??0sentry@?$basic_ostream@DU?$char_traits@D@std@@@std@@QEAA@AEAV12@@Z 000000018004eab7     collisioncodegen_CollisionGeometry.obj
 0002:00002ac0       $unwind$?dtor$0@?0???0sentry@?$basic_ostream@DU?$char_traits@D@std@@@std@@QEAA@AEAV12@@Z@4HA 000000018004eac0     collisioncodegen_CollisionGeometry.obj
 0002:00002ac8       $unwind$??1sentry@?$basic_ostream@DU?$char_traits@D@std@@@std@@QEAA@XZ 000000018004eac8     collisioncodegen_CollisionGeometry.obj
 0002:00002ad8       $cppxdata$??1sentry@?$basic_ostream@DU?$char_traits@D@std@@@std@@QEAA@XZ 000000018004ead8     collisioncodegen_CollisionGeometry.obj
 0002:00002add       $ip2state$??1sentry@?$basic_ostream@DU?$char_traits@D@std@@@std@@QEAA@XZ 000000018004eadd     collisioncodegen_CollisionGeometry.obj
 0002:00002ae0       $unwind$??$sort@V?$_Vector_iterator@V?$_Vector_val@U?$_Simple_types@_K@std@@@std@@@std@@U?$less@X@2@@std@@YAXV?$_Vector_iterator@V?$_Vector_val@U?$_Simple_types@_K@std@@@std@@@0@0U?$less@X@0@@Z 000000018004eae0     collisioncodegen_CollisionGeometry.obj
 0002:00002ae8       $unwind$??$unique@V?$_Vector_iterator@V?$_Vector_val@U?$_Simple_types@_K@std@@@std@@@std@@U?$equal_to@X@2@@std@@YA?AV?$_Vector_iterator@V?$_Vector_val@U?$_Simple_types@_K@std@@@std@@@0@V10@0U?$equal_to@X@0@@Z 000000018004eae8     collisioncodegen_CollisionGeometry.obj
 0002:00002af0       $unwind$??$_Copy_memmove@PEA_KPEA_K@std@@YAPEA_KPEA_K00@Z 000000018004eaf0     collisioncodegen_CollisionGeometry.obj
 0002:00002af8       $unwind$??$_Resize_reallocate@U_Value_init_tag@std@@@?$vector@_KV?$allocator@_K@std@@@std@@AEAAX_KAEBU_Value_init_tag@1@@Z 000000018004eaf8     collisioncodegen_CollisionGeometry.obj
 0002:00002b08       $cppxdata$??$_Resize_reallocate@U_Value_init_tag@std@@@?$vector@_KV?$allocator@_K@std@@@std@@AEAAX_KAEBU_Value_init_tag@1@@Z 000000018004eb08     collisioncodegen_CollisionGeometry.obj
 0002:00002b15       $stateUnwindMap$??$_Resize_reallocate@U_Value_init_tag@std@@@?$vector@_KV?$allocator@_K@std@@@std@@AEAAX_KAEBU_Value_init_tag@1@@Z 000000018004eb15     collisioncodegen_CollisionGeometry.obj
 0002:00002b18       $tryMap$??$_Resize_reallocate@U_Value_init_tag@std@@@?$vector@_KV?$allocator@_K@std@@@std@@AEAAX_KAEBU_Value_init_tag@1@@Z 000000018004eb18     collisioncodegen_CollisionGeometry.obj
 0002:00002b20       $handlerMap$??$_Resize_reallocate@U_Value_init_tag@std@@@?$vector@_KV?$allocator@_K@std@@@std@@AEAAX_KAEBU_Value_init_tag@1@@Z 000000018004eb20     collisioncodegen_CollisionGeometry.obj
 0002:00002b27       $ip2state$??$_Resize_reallocate@U_Value_init_tag@std@@@?$vector@_KV?$allocator@_K@std@@@std@@AEAAX_KAEBU_Value_init_tag@1@@Z 000000018004eb27     collisioncodegen_CollisionGeometry.obj
 0002:00002b30       $unwind$?catch$0@?0???$_Resize_reallocate@U_Value_init_tag@std@@@?$vector@_KV?$allocator@_K@std@@@std@@AEAAX_KAEBU_Value_init_tag@1@@Z@4HA 000000018004eb30     collisioncodegen_CollisionGeometry.obj
 0002:00002b38       $unwind$??$_Uninitialized_value_construct_n@V?$allocator@_K@std@@@std@@YAPEA_KPEA_K_KAEAV?$allocator@_K@0@@Z 000000018004eb38     collisioncodegen_CollisionGeometry.obj
 0002:00002b48       $cppxdata$??$_Uninitialized_value_construct_n@V?$allocator@_K@std@@@std@@YAPEA_KPEA_K_KAEAV?$allocator@_K@0@@Z 000000018004eb48     collisioncodegen_CollisionGeometry.obj
 0002:00002b51       $stateUnwindMap$??$_Uninitialized_value_construct_n@V?$allocator@_K@std@@@std@@YAPEA_KPEA_K_KAEAV?$allocator@_K@0@@Z 000000018004eb51     collisioncodegen_CollisionGeometry.obj
 0002:00002b57       $ip2state$??$_Uninitialized_value_construct_n@V?$allocator@_K@std@@@std@@YAPEA_KPEA_K_KAEAV?$allocator@_K@0@@Z 000000018004eb57     collisioncodegen_CollisionGeometry.obj
 0002:00002b5c       $unwind$?dtor$0@?0???$_Uninitialized_value_construct_n@V?$allocator@_K@std@@@std@@YAPEA_KPEA_K_KAEAV?$allocator@_K@0@@Z@4HA 000000018004eb5c     collisioncodegen_CollisionGeometry.obj
 0002:00002b64       $unwind$??$_Uninitialized_move@PEA_KV?$allocator@_K@std@@@std@@YAPEA_KQEA_K0PEA_KAEAV?$allocator@_K@0@@Z 000000018004eb64     collisioncodegen_CollisionGeometry.obj
 0002:00002b74       $cppxdata$??$_Uninitialized_move@PEA_KV?$allocator@_K@std@@@std@@YAPEA_KQEA_K0PEA_KAEAV?$allocator@_K@0@@Z 000000018004eb74     collisioncodegen_CollisionGeometry.obj
 0002:00002b7d       $stateUnwindMap$??$_Uninitialized_move@PEA_KV?$allocator@_K@std@@@std@@YAPEA_KQEA_K0PEA_KAEAV?$allocator@_K@0@@Z 000000018004eb7d     collisioncodegen_CollisionGeometry.obj
 0002:00002b83       $ip2state$??$_Uninitialized_move@PEA_KV?$allocator@_K@std@@@std@@YAPEA_KQEA_K0PEA_KAEAV?$allocator@_K@0@@Z 000000018004eb83     collisioncodegen_CollisionGeometry.obj
 0002:00002b88       $unwind$?dtor$0@?0???$_Uninitialized_move@PEA_KV?$allocator@_K@std@@@std@@YAPEA_KQEA_K0PEA_KAEAV?$allocator@_K@0@@Z@4HA 000000018004eb88     collisioncodegen_CollisionGeometry.obj
 0002:00002b90       $unwind$??$_Uninitialized_move@PEANV?$allocator@N@std@@@std@@YAPEANQEAN0PEANAEAV?$allocator@N@0@@Z 000000018004eb90     collisioncodegen_CollisionGeometry.obj
 0002:00002ba0       $cppxdata$??$_Uninitialized_move@PEANV?$allocator@N@std@@@std@@YAPEANQEAN0PEANAEAV?$allocator@N@0@@Z 000000018004eba0     collisioncodegen_CollisionGeometry.obj
 0002:00002ba9       $stateUnwindMap$??$_Uninitialized_move@PEANV?$allocator@N@std@@@std@@YAPEANQEAN0PEANAEAV?$allocator@N@0@@Z 000000018004eba9     collisioncodegen_CollisionGeometry.obj
 0002:00002baf       $ip2state$??$_Uninitialized_move@PEANV?$allocator@N@std@@@std@@YAPEANQEAN0PEANAEAV?$allocator@N@0@@Z 000000018004ebaf     collisioncodegen_CollisionGeometry.obj
 0002:00002bb4       $unwind$?dtor$0@?0???$_Uninitialized_move@PEANV?$allocator@N@std@@@std@@YAPEANQEAN0PEANAEAV?$allocator@N@0@@Z@4HA 000000018004ebb4     collisioncodegen_CollisionGeometry.obj
 0002:00002bbc       $unwind$??$_Resize_reallocate@U_Value_init_tag@std@@@?$vector@V?$vector@_KV?$allocator@_K@std@@@std@@V?$allocator@V?$vector@_KV?$allocator@_K@std@@@std@@@2@@std@@AEAAX_KAEBU_Value_init_tag@1@@Z 000000018004ebbc     collisioncodegen_CollisionGeometry.obj
 0002:00002bcc       $cppxdata$??$_Resize_reallocate@U_Value_init_tag@std@@@?$vector@V?$vector@_KV?$allocator@_K@std@@@std@@V?$allocator@V?$vector@_KV?$allocator@_K@std@@@std@@@2@@std@@AEAAX_KAEBU_Value_init_tag@1@@Z 000000018004ebcc     collisioncodegen_CollisionGeometry.obj
 0002:00002bd9       $stateUnwindMap$??$_Resize_reallocate@U_Value_init_tag@std@@@?$vector@V?$vector@_KV?$allocator@_K@std@@@std@@V?$allocator@V?$vector@_KV?$allocator@_K@std@@@std@@@2@@std@@AEAAX_KAEBU_Value_init_tag@1@@Z 000000018004ebd9     collisioncodegen_CollisionGeometry.obj
 0002:00002bdc       $tryMap$??$_Resize_reallocate@U_Value_init_tag@std@@@?$vector@V?$vector@_KV?$allocator@_K@std@@@std@@V?$allocator@V?$vector@_KV?$allocator@_K@std@@@std@@@2@@std@@AEAAX_KAEBU_Value_init_tag@1@@Z 000000018004ebdc     collisioncodegen_CollisionGeometry.obj
 0002:00002be4       $handlerMap$??$_Resize_reallocate@U_Value_init_tag@std@@@?$vector@V?$vector@_KV?$allocator@_K@std@@@std@@V?$allocator@V?$vector@_KV?$allocator@_K@std@@@std@@@2@@std@@AEAAX_KAEBU_Value_init_tag@1@@Z 000000018004ebe4     collisioncodegen_CollisionGeometry.obj
 0002:00002beb       $ip2state$??$_Resize_reallocate@U_Value_init_tag@std@@@?$vector@V?$vector@_KV?$allocator@_K@std@@@std@@V?$allocator@V?$vector@_KV?$allocator@_K@std@@@std@@@2@@std@@AEAAX_KAEBU_Value_init_tag@1@@Z 000000018004ebeb     collisioncodegen_CollisionGeometry.obj
 0002:00002bf4       $unwind$?catch$0@?0???$_Resize_reallocate@U_Value_init_tag@std@@@?$vector@V?$vector@_KV?$allocator@_K@std@@@std@@V?$allocator@V?$vector@_KV?$allocator@_K@std@@@std@@@2@@std@@AEAAX_KAEBU_Value_init_tag@1@@Z@4HA 000000018004ebf4     collisioncodegen_CollisionGeometry.obj
 0002:00002bfc       $unwind$??$_Uninitialized_value_construct_n@V?$allocator@V?$vector@_KV?$allocator@_K@std@@@std@@@std@@@std@@YAPEAV?$vector@_KV?$allocator@_K@std@@@0@PEAV10@_KAEAV?$allocator@V?$vector@_KV?$allocator@_K@std@@@std@@@0@@Z 000000018004ebfc     collisioncodegen_CollisionGeometry.obj
 0002:00002c0c       $cppxdata$??$_Uninitialized_value_construct_n@V?$allocator@V?$vector@_KV?$allocator@_K@std@@@std@@@std@@@std@@YAPEAV?$vector@_KV?$allocator@_K@std@@@0@PEAV10@_KAEAV?$allocator@V?$vector@_KV?$allocator@_K@std@@@std@@@0@@Z 000000018004ec0c     collisioncodegen_CollisionGeometry.obj
 0002:00002c15       $stateUnwindMap$??$_Uninitialized_value_construct_n@V?$allocator@V?$vector@_KV?$allocator@_K@std@@@std@@@std@@@std@@YAPEAV?$vector@_KV?$allocator@_K@std@@@0@PEAV10@_KAEAV?$allocator@V?$vector@_KV?$allocator@_K@std@@@std@@@0@@Z 000000018004ec15     collisioncodegen_CollisionGeometry.obj
 0002:00002c1b       $ip2state$??$_Uninitialized_value_construct_n@V?$allocator@V?$vector@_KV?$allocator@_K@std@@@std@@@std@@@std@@YAPEAV?$vector@_KV?$allocator@_K@std@@@0@PEAV10@_KAEAV?$allocator@V?$vector@_KV?$allocator@_K@std@@@std@@@0@@Z 000000018004ec1b     collisioncodegen_CollisionGeometry.obj
 0002:00002c24       $unwind$?dtor$0@?0???$_Uninitialized_value_construct_n@V?$allocator@V?$vector@_KV?$allocator@_K@std@@@std@@@std@@@std@@YAPEAV?$vector@_KV?$allocator@_K@std@@@0@PEAV10@_KAEAV?$allocator@V?$vector@_KV?$allocator@_K@std@@@std@@@0@@Z@4HA 000000018004ec24     collisioncodegen_CollisionGeometry.obj
 0002:00002c2c       $unwind$??$destroy@V?$vector@_KV?$allocator@_K@std@@@std@@@?$_Default_allocator_traits@V?$allocator@V?$vector@_KV?$allocator@_K@std@@@std@@@std@@@std@@SAXAEAV?$allocator@V?$vector@_KV?$allocator@_K@std@@@std@@@1@QEAV?$vector@_KV?$allocator@_K@std@@@1@@Z 000000018004ec2c     collisioncodegen_CollisionGeometry.obj
 0002:00002c34       $unwind$??$_Allocate_manually_vector_aligned@U_Default_allocate_traits@std@@@std@@YAPEAX_K@Z 000000018004ec34     collisioncodegen_CollisionGeometry.obj
 0002:00002c3c       $unwind$??$_Get_size_of_n@$07@std@@YA_K_K@Z 000000018004ec3c     collisioncodegen_CollisionGeometry.obj
 0002:00002c44       $unwind$??$_Get_size_of_n@$0BI@@std@@YA_K_K@Z 000000018004ec44     collisioncodegen_CollisionGeometry.obj
 0002:00002c4c       $unwind$??$_Get_unwrapped@AEAV?$_Vector_iterator@V?$_Vector_val@U?$_Simple_types@N@std@@@std@@@std@@@std@@YA?A_TAEAV?$_Vector_iterator@V?$_Vector_val@U?$_Simple_types@N@std@@@std@@@0@@Z 000000018004ec4c     collisioncodegen_CollisionGeometry.obj
 0002:00002c54       $unwind$??$_Max_element_unchecked@PEANU?$less@X@std@@@std@@YAPEANPEAN0U?$less@X@0@@Z 000000018004ec54     collisioncodegen_CollisionGeometry.obj
 0002:00002c5c       $unwind$??$_Seek_wrapped@V?$_Vector_iterator@V?$_Vector_val@U?$_Simple_types@N@std@@@std@@@std@@PEAN@std@@YAXAEAV?$_Vector_iterator@V?$_Vector_val@U?$_Simple_types@N@std@@@std@@@0@$$QEAPEAN@Z 000000018004ec5c     collisioncodegen_CollisionGeometry.obj
 0002:00002c64       $unwind$??$_Get_unwrapped@AEBV?$_Vector_iterator@V?$_Vector_val@U?$_Simple_types@_K@std@@@std@@@std@@@std@@YA?A_TAEBV?$_Vector_iterator@V?$_Vector_val@U?$_Simple_types@_K@std@@@std@@@0@@Z 000000018004ec64     collisioncodegen_CollisionGeometry.obj
 0002:00002c6c       $unwind$??$_Sort_unchecked@PEA_KU?$less@X@std@@@std@@YAXPEA_K0_JU?$less@X@0@@Z 000000018004ec6c     collisioncodegen_CollisionGeometry.obj
 0002:00002c74       $unwind$??$_Get_unwrapped@AEAV?$_Vector_iterator@V?$_Vector_val@U?$_Simple_types@_K@std@@@std@@@std@@@std@@YA?A_TAEAV?$_Vector_iterator@V?$_Vector_val@U?$_Simple_types@_K@std@@@std@@@0@@Z 000000018004ec74     collisioncodegen_CollisionGeometry.obj
 0002:00002c7c       $unwind$??$?RAEA_KAEA_K@?$equal_to@X@std@@QEBA_NAEA_K0@Z 000000018004ec7c     collisioncodegen_CollisionGeometry.obj
 0002:00002c84       $unwind$??$_Seek_wrapped@V?$_Vector_iterator@V?$_Vector_val@U?$_Simple_types@_K@std@@@std@@@std@@AEAPEA_K@std@@YAXAEAV?$_Vector_iterator@V?$_Vector_val@U?$_Simple_types@_K@std@@@std@@@0@AEAPEA_K@Z 000000018004ec84     collisioncodegen_CollisionGeometry.obj
 0002:00002c8c       $unwind$??$_Seek_wrapped@V?$_Vector_iterator@V?$_Vector_val@U?$_Simple_types@_K@std@@@std@@@std@@AEBQEA_K@std@@YAXAEAV?$_Vector_iterator@V?$_Vector_val@U?$_Simple_types@_K@std@@@std@@@0@AEBQEA_K@Z 000000018004ec8c     collisioncodegen_CollisionGeometry.obj
 0002:00002c94       $unwind$??$_Zero_range@PEA_K@std@@YAPEA_KQEA_K0@Z 000000018004ec94     collisioncodegen_CollisionGeometry.obj
 0002:00002c9c       $unwind$??1?$_Uninitialized_backout_al@V?$allocator@_K@std@@@std@@QEAA@XZ 000000018004ec9c     collisioncodegen_CollisionGeometry.obj
 0002:00002ca4       $unwind$??$_Emplace_back@$$V@?$_Uninitialized_backout_al@V?$allocator@_K@std@@@std@@QEAAXXZ 000000018004eca4     collisioncodegen_CollisionGeometry.obj
 0002:00002cac       $unwind$??$_Emplace_back@_K@?$_Uninitialized_backout_al@V?$allocator@_K@std@@@std@@QEAAX$$QEA_K@Z 000000018004ecac     collisioncodegen_CollisionGeometry.obj
 0002:00002cb4       $unwind$??$_Copy_memmove@PEANPEAN@std@@YAPEANPEAN00@Z 000000018004ecb4     collisioncodegen_CollisionGeometry.obj
 0002:00002cbc       $unwind$??1?$_Uninitialized_backout_al@V?$allocator@N@std@@@std@@QEAA@XZ 000000018004ecbc     collisioncodegen_CollisionGeometry.obj
 0002:00002cc4       $unwind$??$_Emplace_back@N@?$_Uninitialized_backout_al@V?$allocator@N@std@@@std@@QEAAX$$QEAN@Z 000000018004ecc4     collisioncodegen_CollisionGeometry.obj
 0002:00002ccc       $unwind$??$_Uninitialized_move@PEAV?$vector@_KV?$allocator@_K@std@@@std@@V?$allocator@V?$vector@_KV?$allocator@_K@std@@@std@@@2@@std@@YAPEAV?$vector@_KV?$allocator@_K@std@@@0@QEAV10@0PEAV10@AEAV?$allocator@V?$vector@_KV?$allocator@_K@std@@@std@@@0@@Z 000000018004eccc     collisioncodegen_CollisionGeometry.obj
 0002:00002cdc       $cppxdata$??$_Uninitialized_move@PEAV?$vector@_KV?$allocator@_K@std@@@std@@V?$allocator@V?$vector@_KV?$allocator@_K@std@@@std@@@2@@std@@YAPEAV?$vector@_KV?$allocator@_K@std@@@0@QEAV10@0PEAV10@AEAV?$allocator@V?$vector@_KV?$allocator@_K@std@@@std@@@0@@Z 000000018004ecdc     collisioncodegen_CollisionGeometry.obj
 0002:00002ce5       $stateUnwindMap$??$_Uninitialized_move@PEAV?$vector@_KV?$allocator@_K@std@@@std@@V?$allocator@V?$vector@_KV?$allocator@_K@std@@@std@@@2@@std@@YAPEAV?$vector@_KV?$allocator@_K@std@@@0@QEAV10@0PEAV10@AEAV?$allocator@V?$vector@_KV?$allocator@_K@std@@@std@@@0@@Z 000000018004ece5     collisioncodegen_CollisionGeometry.obj
 0002:00002ceb       $ip2state$??$_Uninitialized_move@PEAV?$vector@_KV?$allocator@_K@std@@@std@@V?$allocator@V?$vector@_KV?$allocator@_K@std@@@std@@@2@@std@@YAPEAV?$vector@_KV?$allocator@_K@std@@@0@QEAV10@0PEAV10@AEAV?$allocator@V?$vector@_KV?$allocator@_K@std@@@std@@@0@@Z 000000018004eceb     collisioncodegen_CollisionGeometry.obj
 0002:00002cf4       $unwind$?dtor$0@?0???$_Uninitialized_move@PEAV?$vector@_KV?$allocator@_K@std@@@std@@V?$allocator@V?$vector@_KV?$allocator@_K@std@@@std@@@2@@std@@YAPEAV?$vector@_KV?$allocator@_K@std@@@0@QEAV10@0PEAV10@AEAV?$allocator@V?$vector@_KV?$allocator@_K@std@@@std@@@0@@Z@4HA 000000018004ecf4     collisioncodegen_CollisionGeometry.obj
 0002:00002cfc       $unwind$??1?$_Uninitialized_backout_al@V?$allocator@V?$vector@_KV?$allocator@_K@std@@@std@@@std@@@std@@QEAA@XZ 000000018004ecfc     collisioncodegen_CollisionGeometry.obj
 0002:00002d04       $unwind$??$_Emplace_back@$$V@?$_Uninitialized_backout_al@V?$allocator@V?$vector@_KV?$allocator@_K@std@@@std@@@std@@@std@@QEAAXXZ 000000018004ed04     collisioncodegen_CollisionGeometry.obj
 0002:00002d0c       $unwind$??$?RAEANAEAN@?$less@X@std@@QEBA_NAEAN0@Z 000000018004ed0c     collisioncodegen_CollisionGeometry.obj
 0002:00002d14       $unwind$??$_Insertion_sort_unchecked@PEA_KU?$less@X@std@@@std@@YAPEA_KQEA_K0U?$less@X@0@@Z 000000018004ed14     collisioncodegen_CollisionGeometry.obj
 0002:00002d1c       $unwind$??$_Make_heap_unchecked@PEA_KU?$less@X@std@@@std@@YAXPEA_K0U?$less@X@0@@Z 000000018004ed1c     collisioncodegen_CollisionGeometry.obj
 0002:00002d24       $unwind$??$_Sort_heap_unchecked@PEA_KU?$less@X@std@@@std@@YAXPEA_K0U?$less@X@0@@Z 000000018004ed24     collisioncodegen_CollisionGeometry.obj
 0002:00002d2c       $unwind$??$_Partition_by_median_guess_unchecked@PEA_KU?$less@X@std@@@std@@YA?AU?$pair@PEA_KPEA_K@0@PEA_K0U?$less@X@0@@Z 000000018004ed2c     collisioncodegen_CollisionGeometry.obj
 0002:00002d34       $unwind$??$construct@_K$$V@?$_Default_allocator_traits@V?$allocator@_K@std@@@std@@SAXAEAV?$allocator@_K@1@QEA_K@Z 000000018004ed34     collisioncodegen_CollisionGeometry.obj
 0002:00002d3c       $unwind$??$construct@_K_K@?$_Default_allocator_traits@V?$allocator@_K@std@@@std@@SAXAEAV?$allocator@_K@1@QEA_K$$QEA_K@Z 000000018004ed3c     collisioncodegen_CollisionGeometry.obj
 0002:00002d44       $unwind$??$_Emplace_back@V?$vector@_KV?$allocator@_K@std@@@std@@@?$_Uninitialized_backout_al@V?$allocator@V?$vector@_KV?$allocator@_K@std@@@std@@@std@@@std@@QEAAX$$QEAV?$vector@_KV?$allocator@_K@std@@@1@@Z 000000018004ed44     collisioncodegen_CollisionGeometry.obj
 0002:00002d4c       $unwind$??$construct@V?$vector@_KV?$allocator@_K@std@@@std@@$$V@?$_Default_allocator_traits@V?$allocator@V?$vector@_KV?$allocator@_K@std@@@std@@@std@@@std@@SAXAEAV?$allocator@V?$vector@_KV?$allocator@_K@std@@@std@@@1@QEAV?$vector@_KV?$allocator@_K@std@@@1@@Z 000000018004ed4c     collisioncodegen_CollisionGeometry.obj
 0002:00002d54       $unwind$??$?RAEA_KAEA_K@?$less@X@std@@QEBA_NAEA_K0@Z 000000018004ed54     collisioncodegen_CollisionGeometry.obj
 0002:00002d5c       $unwind$??$_Move_backward_unchecked@PEA_KPEA_K@std@@YAPEA_KPEA_K00@Z 000000018004ed5c     collisioncodegen_CollisionGeometry.obj
 0002:00002d64       $unwind$??$_Pop_heap_hole_by_index@PEA_K_KU?$less@X@std@@@std@@YAXPEA_K_J1$$QEA_KU?$less@X@0@@Z 000000018004ed64     collisioncodegen_CollisionGeometry.obj
 0002:00002d6c       $unwind$??$_Pop_heap_unchecked@PEA_KU?$less@X@std@@@std@@YAXPEA_K0U?$less@X@0@@Z 000000018004ed6c     collisioncodegen_CollisionGeometry.obj
 0002:00002d74       $unwind$??$_Guess_median_unchecked@PEA_KU?$less@X@std@@@std@@YAXPEA_K00U?$less@X@0@@Z 000000018004ed74     collisioncodegen_CollisionGeometry.obj
 0002:00002d7c       $unwind$??$iter_swap@PEA_KPEA_K@std@@YAXPEA_K0@Z 000000018004ed7c     collisioncodegen_CollisionGeometry.obj
 0002:00002d84       $unwind$??$?0AEAPEA_KAEAPEA_K$0A@@?$pair@PEA_KPEA_K@std@@QEAA@AEAPEA_K0@Z 000000018004ed84     collisioncodegen_CollisionGeometry.obj
 0002:00002d8c       $unwind$??$construct@V?$vector@_KV?$allocator@_K@std@@@std@@V12@@?$_Default_allocator_traits@V?$allocator@V?$vector@_KV?$allocator@_K@std@@@std@@@std@@@std@@SAXAEAV?$allocator@V?$vector@_KV?$allocator@_K@std@@@std@@@1@QEAV?$vector@_KV?$allocator@_K@std@@@1@$$QEAV31@@Z 000000018004ed8c     collisioncodegen_CollisionGeometry.obj
 0002:00002d94       $unwind$??$?0$$V@?$_Compressed_pair@V?$allocator@_K@std@@V?$_Vector_val@U?$_Simple_types@_K@std@@@2@$00@std@@QEAA@U_Zero_then_variadic_args_t@1@@Z 000000018004ed94     collisioncodegen_CollisionGeometry.obj
 0002:00002d9c       $unwind$??$_Copy_backward_memmove@PEA_KPEA_K@std@@YAPEA_KPEA_K00@Z 000000018004ed9c     collisioncodegen_CollisionGeometry.obj
 0002:00002da4       $unwind$??$_Push_heap_by_index@PEA_K_KU?$less@X@std@@@std@@YAXPEA_K_J1$$QEA_KU?$less@X@0@@Z 000000018004eda4     collisioncodegen_CollisionGeometry.obj
 0002:00002dac       $unwind$??$_Pop_heap_hole_unchecked@PEA_K_KU?$less@X@std@@@std@@YAXPEA_K00$$QEA_KU?$less@X@0@@Z 000000018004edac     collisioncodegen_CollisionGeometry.obj
 0002:00002db4       $unwind$??$_Med3_unchecked@PEA_KU?$less@X@std@@@std@@YAXPEA_K00U?$less@X@0@@Z 000000018004edb4     collisioncodegen_CollisionGeometry.obj
 0002:00002dbc       $unwind$??$swap@_K$0A@@std@@YAXAEA_K0@Z 000000018004edbc     collisioncodegen_CollisionGeometry.obj
 0002:00002dc4       $unwind$??$exchange@PEA_K$$T@std@@YAPEA_KAEAPEA_K$$QEA$$T@Z 000000018004edc4     collisioncodegen_CollisionGeometry.obj
 0002:00002dcc       $unwind$??$?0V?$allocator@_K@std@@PEA_KPEA_KPEA_K@?$_Compressed_pair@V?$allocator@_K@std@@V?$_Vector_val@U?$_Simple_types@_K@std@@@2@$00@std@@QEAA@U_One_then_variadic_args_t@1@$$QEAV?$allocator@_K@1@$$QEAPEA_K22@Z 000000018004edcc     collisioncodegen_CollisionGeometry.obj
 0002:00002dd4       $unwind$?copy@?$_Char_traits@DH@std@@SAPEADQEADQEBD_K@Z 000000018004edd4     collisioncodegen_api.obj
 0002:00002de4       $cppxdata$?copy@?$_Char_traits@DH@std@@SAPEADQEADQEBD_K@Z 000000018004ede4     collisioncodegen_api.obj
 0002:00002de9       $ip2state$?copy@?$_Char_traits@DH@std@@SAPEADQEADQEBD_K@Z 000000018004ede9     collisioncodegen_api.obj
 0002:00002dec       $unwind$?move@?$_Char_traits@DH@std@@SAPEADQEADQEBD_K@Z 000000018004edec     collisioncodegen_api.obj
 0002:00002dfc       $cppxdata$?move@?$_Char_traits@DH@std@@SAPEADQEADQEBD_K@Z 000000018004edfc     collisioncodegen_api.obj
 0002:00002e01       $ip2state$?move@?$_Char_traits@DH@std@@SAPEADQEADQEBD_K@Z 000000018004ee01     collisioncodegen_api.obj
 0002:00002e04       $unwind$?_Xlen_string@std@@YAXXZ 000000018004ee04     collisioncodegen_api.obj
 0002:00002e0c       $unwind$?deallocate@?$allocator@D@std@@QEAAXQEAD_K@Z 000000018004ee0c     collisioncodegen_api.obj
 0002:00002e14       $unwind$?allocate@?$allocator@D@std@@QEAAPEAD_K@Z 000000018004ee14     collisioncodegen_api.obj
 0002:00002e1c       $unwind$??0?$_String_val@U?$_Simple_types@D@std@@@std@@QEAA@XZ 000000018004ee1c     collisioncodegen_api.obj
 0002:00002e24       $unwind$?_Myptr@?$_String_val@U?$_Simple_types@D@std@@@std@@QEAAPEADXZ 000000018004ee24     collisioncodegen_api.obj
 0002:00002e2c       $unwind$?_Myptr@?$_String_val@U?$_Simple_types@D@std@@@std@@QEBAPEBDXZ 000000018004ee2c     collisioncodegen_api.obj
 0002:00002e34       $unwind$?_Large_string_engaged@?$_String_val@U?$_Simple_types@D@std@@@std@@QEBA_NXZ 000000018004ee34     collisioncodegen_api.obj
 0002:00002e3c       $unwind$??1?$_String_val@U?$_Simple_types@D@std@@@std@@QEAA@XZ 000000018004ee3c     collisioncodegen_api.obj
 0002:00002e44       $unwind$??0?$basic_string@DU?$char_traits@D@std@@V?$allocator@D@2@@std@@QEAA@QEBD@Z 000000018004ee44     collisioncodegen_api.obj
 0002:00002e54       $cppxdata$??0?$basic_string@DU?$char_traits@D@std@@V?$allocator@D@2@@std@@QEAA@QEBD@Z 000000018004ee54     collisioncodegen_api.obj
 0002:00002e5d       $stateUnwindMap$??0?$basic_string@DU?$char_traits@D@std@@V?$allocator@D@2@@std@@QEAA@QEBD@Z 000000018004ee5d     collisioncodegen_api.obj
 0002:00002e63       $ip2state$??0?$basic_string@DU?$char_traits@D@std@@V?$allocator@D@2@@std@@QEAA@QEBD@Z 000000018004ee63     collisioncodegen_api.obj
 0002:00002e6c       $unwind$?dtor$0@?0???0?$basic_string@DU?$char_traits@D@std@@V?$allocator@D@2@@std@@QEAA@QEBD@Z@4HA 000000018004ee6c     collisioncodegen_api.obj
 0002:00002e74       $unwind$??1?$basic_string@DU?$char_traits@D@std@@V?$allocator@D@2@@std@@QEAA@XZ 000000018004ee74     collisioncodegen_api.obj
 0002:00002e7c       $unwind$?assign@?$basic_string@DU?$char_traits@D@std@@V?$allocator@D@2@@std@@QEAAAEAV12@QEBD_K@Z 000000018004ee7c     collisioncodegen_api.obj
 0002:00002e84       $unwind$?assign@?$basic_string@DU?$char_traits@D@std@@V?$allocator@D@2@@std@@QEAAAEAV12@QEBD@Z 000000018004ee84     collisioncodegen_api.obj
 0002:00002e8c       $unwind$?c_str@?$basic_string@DU?$char_traits@D@std@@V?$allocator@D@2@@std@@QEBAPEBDXZ 000000018004ee8c     collisioncodegen_api.obj
 0002:00002e94       $unwind$?max_size@?$basic_string@DU?$char_traits@D@std@@V?$allocator@D@2@@std@@QEBA_KXZ 000000018004ee94     collisioncodegen_api.obj
 0002:00002e9c       $unwind$?_Calculate_growth@?$basic_string@DU?$char_traits@D@std@@V?$allocator@D@2@@std@@CA_K_K00@Z 000000018004ee9c     collisioncodegen_api.obj
 0002:00002ea4       $unwind$?_Calculate_growth@?$basic_string@DU?$char_traits@D@std@@V?$allocator@D@2@@std@@AEBA_K_K@Z 000000018004eea4     collisioncodegen_api.obj
 0002:00002eac       $unwind$?_Tidy_init@?$basic_string@DU?$char_traits@D@std@@V?$allocator@D@2@@std@@AEAAXXZ 000000018004eeac     collisioncodegen_api.obj
 0002:00002eb4       $unwind$?_Tidy_deallocate@?$basic_string@DU?$char_traits@D@std@@V?$allocator@D@2@@std@@AEAAXXZ 000000018004eeb4     collisioncodegen_api.obj
 0002:00002ec4       $cppxdata$?_Tidy_deallocate@?$basic_string@DU?$char_traits@D@std@@V?$allocator@D@2@@std@@AEAAXXZ 000000018004eec4     collisioncodegen_api.obj
 0002:00002ec9       $ip2state$?_Tidy_deallocate@?$basic_string@DU?$char_traits@D@std@@V?$allocator@D@2@@std@@AEAAXXZ 000000018004eec9     collisioncodegen_api.obj
 0002:00002ecc       $unwind$?_Getal@?$basic_string@DU?$char_traits@D@std@@V?$allocator@D@2@@std@@AEAAAEAV?$allocator@D@2@XZ 000000018004eecc     collisioncodegen_api.obj
 0002:00002ed4       $unwind$?_Getal@?$basic_string@DU?$char_traits@D@std@@V?$allocator@D@2@@std@@AEBAAEBV?$allocator@D@2@XZ 000000018004eed4     collisioncodegen_api.obj
 0002:00002edc       $unwind$??1?$_Compressed_pair@V?$allocator@D@std@@V?$_String_val@U?$_Simple_types@D@std@@@2@$00@std@@QEAA@XZ 000000018004eedc     collisioncodegen_api.obj
 0002:00002ee4       $unwind$??0CollisionGeometry@shared_robotics@@QEAA@NNN@Z 000000018004eee4     collisioncodegen_api.obj
 0002:00002ef4       $cppxdata$??0CollisionGeometry@shared_robotics@@QEAA@NNN@Z 000000018004eef4     collisioncodegen_api.obj
 0002:00002efd       $stateUnwindMap$??0CollisionGeometry@shared_robotics@@QEAA@NNN@Z 000000018004eefd     collisioncodegen_api.obj
 0002:00002f0d       $ip2state$??0CollisionGeometry@shared_robotics@@QEAA@NNN@Z 000000018004ef0d     collisioncodegen_api.obj
 0002:00002f18       $unwind$?dtor$0@?0???0CollisionGeometry@shared_robotics@@QEAA@NNN@Z@4HA 000000018004ef18     collisioncodegen_api.obj
 0002:00002f20       $unwind$?dtor$1@?0???0CollisionGeometry@shared_robotics@@QEAA@NNN@Z@4HA 000000018004ef20     collisioncodegen_api.obj
 0002:00002f28       $unwind$?dtor$2@?0???0CollisionGeometry@shared_robotics@@QEAA@NNN@Z@4HA 000000018004ef28     collisioncodegen_api.obj
 0002:00002f30       $unwind$??0CollisionGeometry@shared_robotics@@QEAA@N@Z 000000018004ef30     collisioncodegen_api.obj
 0002:00002f40       $cppxdata$??0CollisionGeometry@shared_robotics@@QEAA@N@Z 000000018004ef40     collisioncodegen_api.obj
 0002:00002f49       $stateUnwindMap$??0CollisionGeometry@shared_robotics@@QEAA@N@Z 000000018004ef49     collisioncodegen_api.obj
 0002:00002f59       $ip2state$??0CollisionGeometry@shared_robotics@@QEAA@N@Z 000000018004ef59     collisioncodegen_api.obj
 0002:00002f64       $unwind$?dtor$0@?0???0CollisionGeometry@shared_robotics@@QEAA@N@Z@4HA 000000018004ef64     collisioncodegen_api.obj
 0002:00002f6c       $unwind$?dtor$1@?0???0CollisionGeometry@shared_robotics@@QEAA@N@Z@4HA 000000018004ef6c     collisioncodegen_api.obj
 0002:00002f74       $unwind$?dtor$2@?0???0CollisionGeometry@shared_robotics@@QEAA@N@Z@4HA 000000018004ef74     collisioncodegen_api.obj
 0002:00002f7c       $unwind$??0CollisionGeometry@shared_robotics@@QEAA@NN@Z 000000018004ef7c     collisioncodegen_api.obj
 0002:00002f8c       $cppxdata$??0CollisionGeometry@shared_robotics@@QEAA@NN@Z 000000018004ef8c     collisioncodegen_api.obj
 0002:00002f95       $stateUnwindMap$??0CollisionGeometry@shared_robotics@@QEAA@NN@Z 000000018004ef95     collisioncodegen_api.obj
 0002:00002fa5       $ip2state$??0CollisionGeometry@shared_robotics@@QEAA@NN@Z 000000018004efa5     collisioncodegen_api.obj
 0002:00002fb0       $unwind$?dtor$0@?0???0CollisionGeometry@shared_robotics@@QEAA@NN@Z@4HA 000000018004efb0     collisioncodegen_api.obj
 0002:00002fb8       $unwind$?dtor$1@?0???0CollisionGeometry@shared_robotics@@QEAA@NN@Z@4HA 000000018004efb8     collisioncodegen_api.obj
 0002:00002fc0       $unwind$?dtor$2@?0???0CollisionGeometry@shared_robotics@@QEAA@NN@Z@4HA 000000018004efc0     collisioncodegen_api.obj
 0002:00002fc8       $unwind$??0CollisionGeometry@shared_robotics@@QEAA@PEANH_N@Z 000000018004efc8     collisioncodegen_api.obj
 0002:00002fdc       $cppxdata$??0CollisionGeometry@shared_robotics@@QEAA@PEANH_N@Z 000000018004efdc     collisioncodegen_api.obj
 0002:00002fe5       $stateUnwindMap$??0CollisionGeometry@shared_robotics@@QEAA@PEANH_N@Z 000000018004efe5     collisioncodegen_api.obj
 0002:00002ff5       $ip2state$??0CollisionGeometry@shared_robotics@@QEAA@PEANH_N@Z 000000018004eff5     collisioncodegen_api.obj
 0002:00003004       $unwind$?dtor$0@?0???0CollisionGeometry@shared_robotics@@QEAA@PEANH_N@Z@4HA 000000018004f004     collisioncodegen_api.obj
 0002:0000300c       $unwind$?dtor$1@?0???0CollisionGeometry@shared_robotics@@QEAA@PEANH_N@Z@4HA 000000018004f00c     collisioncodegen_api.obj
 0002:00003014       $unwind$?dtor$2@?0???0CollisionGeometry@shared_robotics@@QEAA@PEANH_N@Z@4HA 000000018004f014     collisioncodegen_api.obj
 0002:0000301c       $unwind$?getType@CollisionGeometry@shared_robotics@@QEBA?AV?$basic_string@DU?$char_traits@D@std@@V?$allocator@D@2@@std@@XZ 000000018004f01c     collisioncodegen_api.obj
 0002:00003024       $unwind$?allocate@?$allocator@U_ccd_vec3_t@@@std@@QEAAPEAU_ccd_vec3_t@@_K@Z 000000018004f024     collisioncodegen_api.obj
 0002:0000302c       $unwind$??0?$vector@U_ccd_vec3_t@@V?$allocator@U_ccd_vec3_t@@@std@@@std@@QEAA@XZ 000000018004f02c     collisioncodegen_api.obj
 0002:00003034       $unwind$??0?$vector@U_ccd_vec3_t@@V?$allocator@U_ccd_vec3_t@@@std@@@std@@QEAA@AEBV01@@Z 000000018004f034     collisioncodegen_api.obj
 0002:0000303c       $unwind$?push_back@?$vector@U_ccd_vec3_t@@V?$allocator@U_ccd_vec3_t@@@std@@@std@@QEAAXAEBU_ccd_vec3_t@@@Z 000000018004f03c     collisioncodegen_api.obj
 0002:00003044       $unwind$?size@?$vector@U_ccd_vec3_t@@V?$allocator@U_ccd_vec3_t@@@std@@@std@@QEBA_KXZ 000000018004f044     collisioncodegen_api.obj
 0002:0000304c       $unwind$?max_size@?$vector@U_ccd_vec3_t@@V?$allocator@U_ccd_vec3_t@@@std@@@std@@QEBA_KXZ 000000018004f04c     collisioncodegen_api.obj
 0002:00003054       $unwind$?capacity@?$vector@U_ccd_vec3_t@@V?$allocator@U_ccd_vec3_t@@@std@@@std@@QEBA_KXZ 000000018004f054     collisioncodegen_api.obj
 0002:0000305c       $unwind$??A?$vector@U_ccd_vec3_t@@V?$allocator@U_ccd_vec3_t@@@std@@@std@@QEAAAEAU_ccd_vec3_t@@_K@Z 000000018004f05c     collisioncodegen_api.obj
 0002:00003064       $unwind$?_Calculate_growth@?$vector@U_ccd_vec3_t@@V?$allocator@U_ccd_vec3_t@@@std@@@std@@AEBA_K_K@Z 000000018004f064     collisioncodegen_api.obj
 0002:0000306c       $unwind$?_Buy_raw@?$vector@U_ccd_vec3_t@@V?$allocator@U_ccd_vec3_t@@@std@@@std@@AEAAX_K@Z 000000018004f06c     collisioncodegen_api.obj
 0002:00003074       $unwind$?_Buy_nonzero@?$vector@U_ccd_vec3_t@@V?$allocator@U_ccd_vec3_t@@@std@@@std@@AEAAX_K@Z 000000018004f074     collisioncodegen_api.obj
 0002:0000307c       $unwind$?_Change_array@?$vector@U_ccd_vec3_t@@V?$allocator@U_ccd_vec3_t@@@std@@@std@@AEAAXQEAU_ccd_vec3_t@@_K1@Z 000000018004f07c     collisioncodegen_api.obj
 0002:00003084       $unwind$?_Xlength@?$vector@U_ccd_vec3_t@@V?$allocator@U_ccd_vec3_t@@@std@@@std@@CAXXZ 000000018004f084     collisioncodegen_api.obj
 0002:0000308c       $unwind$?_Getal@?$vector@U_ccd_vec3_t@@V?$allocator@U_ccd_vec3_t@@@std@@@std@@AEBAAEBV?$allocator@U_ccd_vec3_t@@@2@XZ 000000018004f08c     collisioncodegen_api.obj
 0002:00003094       $unwind$?allocate@?$allocator@U_idx_vec3_t@shared_robotics@@@std@@QEAAPEAU_idx_vec3_t@shared_robotics@@_K@Z 000000018004f094     collisioncodegen_api.obj
 0002:0000309c       $unwind$??0?$vector@U_idx_vec3_t@shared_robotics@@V?$allocator@U_idx_vec3_t@shared_robotics@@@std@@@std@@QEAA@XZ 000000018004f09c     collisioncodegen_api.obj
 0002:000030a4       $unwind$??0?$vector@U_idx_vec3_t@shared_robotics@@V?$allocator@U_idx_vec3_t@shared_robotics@@@std@@@std@@QEAA@AEBV01@@Z 000000018004f0a4     collisioncodegen_api.obj
 0002:000030ac       $unwind$?max_size@?$vector@U_idx_vec3_t@shared_robotics@@V?$allocator@U_idx_vec3_t@shared_robotics@@@std@@@std@@QEBA_KXZ 000000018004f0ac     collisioncodegen_api.obj
 0002:000030b4       $unwind$?_Buy_raw@?$vector@U_idx_vec3_t@shared_robotics@@V?$allocator@U_idx_vec3_t@shared_robotics@@@std@@@std@@AEAAX_K@Z 000000018004f0b4     collisioncodegen_api.obj
 0002:000030bc       $unwind$?_Buy_nonzero@?$vector@U_idx_vec3_t@shared_robotics@@V?$allocator@U_idx_vec3_t@shared_robotics@@@std@@@std@@AEAAX_K@Z 000000018004f0bc     collisioncodegen_api.obj
 0002:000030c4       $unwind$?_Xlength@?$vector@U_idx_vec3_t@shared_robotics@@V?$allocator@U_idx_vec3_t@shared_robotics@@@std@@@std@@CAXXZ 000000018004f0c4     collisioncodegen_api.obj
 0002:000030cc       $unwind$?_Getal@?$vector@U_idx_vec3_t@shared_robotics@@V?$allocator@U_idx_vec3_t@shared_robotics@@@std@@@std@@AEBAAEBV?$allocator@U_idx_vec3_t@shared_robotics@@@2@XZ 000000018004f0cc     collisioncodegen_api.obj
 0002:000030d4       $unwind$??0?$vector@V?$vector@_KV?$allocator@_K@std@@@std@@V?$allocator@V?$vector@_KV?$allocator@_K@std@@@std@@@2@@std@@QEAA@XZ 000000018004f0d4     collisioncodegen_api.obj
 0002:000030dc       $unwind$??0?$vector@V?$vector@_KV?$allocator@_K@std@@@std@@V?$allocator@V?$vector@_KV?$allocator@_K@std@@@std@@@2@@std@@QEAA@AEBV01@@Z 000000018004f0dc     collisioncodegen_api.obj
 0002:000030e4       $unwind$?_Buy_raw@?$vector@V?$vector@_KV?$allocator@_K@std@@@std@@V?$allocator@V?$vector@_KV?$allocator@_K@std@@@std@@@2@@std@@AEAAX_K@Z 000000018004f0e4     collisioncodegen_api.obj
 0002:000030ec       $unwind$?_Buy_nonzero@?$vector@V?$vector@_KV?$allocator@_K@std@@@std@@V?$allocator@V?$vector@_KV?$allocator@_K@std@@@std@@@2@@std@@AEAAX_K@Z 000000018004f0ec     collisioncodegen_api.obj
 0002:000030f4       $unwind$?initializePositionAndOrientation@CollisionGeometry@shared_robotics@@AEAAXXZ 000000018004f0f4     collisioncodegen_api.obj
 0002:000030fc       $unwind$??0CollisionGeometry@shared_robotics@@QEAA@AEBV01@@Z 000000018004f0fc     collisioncodegen_api.obj
 0002:00003110       $cppxdata$??0CollisionGeometry@shared_robotics@@QEAA@AEBV01@@Z 000000018004f110     collisioncodegen_api.obj
 0002:00003119       $stateUnwindMap$??0CollisionGeometry@shared_robotics@@QEAA@AEBV01@@Z 000000018004f119     collisioncodegen_api.obj
 0002:00003124       $ip2state$??0CollisionGeometry@shared_robotics@@QEAA@AEBV01@@Z 000000018004f124     collisioncodegen_api.obj
 0002:00003130       $unwind$?dtor$0@?0???0CollisionGeometry@shared_robotics@@QEAA@AEBV01@@Z@4HA 000000018004f130     collisioncodegen_api.obj
 0002:00003138       $unwind$?dtor$1@?0???0CollisionGeometry@shared_robotics@@QEAA@AEBV01@@Z@4HA 000000018004f138     collisioncodegen_api.obj
 0002:00003140       $unwind$collisioncodegen_makeBox 000000018004f140     collisioncodegen_api.obj
 0002:00003150       $cppxdata$collisioncodegen_makeBox 000000018004f150     collisioncodegen_api.obj
 0002:00003159       $stateUnwindMap$collisioncodegen_makeBox 000000018004f159     collisioncodegen_api.obj
 0002:0000315f       $ip2state$collisioncodegen_makeBox 000000018004f15f     collisioncodegen_api.obj
 0002:00003166       $cppxdata$collisioncodegen_makeSphere 000000018004f166     collisioncodegen_api.obj
 0002:0000316f       $cppxdata$collisioncodegen_makeCylinder 000000018004f16f     collisioncodegen_api.obj
 0002:00003178       $unwind$collisioncodegen_makeBox$dtor$0 000000018004f178     collisioncodegen_api.obj
 0002:00003180       $unwind$collisioncodegen_makeSphere 000000018004f180     collisioncodegen_api.obj
 0002:00003190       $stateUnwindMap$collisioncodegen_makeSphere 000000018004f190     collisioncodegen_api.obj
 0002:00003196       $ip2state$collisioncodegen_makeSphere 000000018004f196     collisioncodegen_api.obj
 0002:0000319d       $stateUnwindMap$collisioncodegen_makeCylinder 000000018004f19d     collisioncodegen_api.obj
 0002:000031a3       $cppxdata$collisioncodegen_makeCapsule 000000018004f1a3     collisioncodegen_api.obj
 0002:000031ac       $unwind$collisioncodegen_makeSphere$dtor$0 000000018004f1ac     collisioncodegen_api.obj
 0002:000031b4       $unwind$collisioncodegen_makeCylinder 000000018004f1b4     collisioncodegen_api.obj
 0002:000031c4       $ip2state$collisioncodegen_makeCylinder 000000018004f1c4     collisioncodegen_api.obj
 0002:000031cb       $cppxdata$collisioncodegen_makeMesh 000000018004f1cb     collisioncodegen_api.obj
 0002:000031d4       $unwind$collisioncodegen_makeCylinder$dtor$0 000000018004f1d4     collisioncodegen_api.obj
 0002:000031dc       $unwind$collisioncodegen_makeCapsule 000000018004f1dc     collisioncodegen_api.obj
 0002:000031ec       $stateUnwindMap$collisioncodegen_makeCapsule 000000018004f1ec     collisioncodegen_api.obj
 0002:000031f2       $ip2state$collisioncodegen_makeCapsule 000000018004f1f2     collisioncodegen_api.obj
 0002:000031f9       $stateUnwindMap$collisioncodegen_makeMesh 000000018004f1f9     collisioncodegen_api.obj
 0002:000031ff       $cppxdata$collisioncodegen_copyGeometry 000000018004f1ff     collisioncodegen_api.obj
 0002:00003208       $unwind$collisioncodegen_makeCapsule$dtor$0 000000018004f208     collisioncodegen_api.obj
 0002:00003210       $unwind$collisioncodegen_makeMesh 000000018004f210     collisioncodegen_api.obj
 0002:00003220       $ip2state$collisioncodegen_makeMesh 000000018004f220     collisioncodegen_api.obj
 0002:00003227       $cppxdata$collisioncodegen_getType 000000018004f227     collisioncodegen_api.obj
 0002:00003230       $unwind$collisioncodegen_makeMesh$dtor$0 000000018004f230     collisioncodegen_api.obj
 0002:00003238       $unwind$collisioncodegen_intersect 000000018004f238     collisioncodegen_api.obj
 0002:00003240       $unwind$collisioncodegen_destructGeometry 000000018004f240     collisioncodegen_api.obj
 0002:00003248       $unwind$collisioncodegen_copyGeometry 000000018004f248     collisioncodegen_api.obj
 0002:00003258       $stateUnwindMap$collisioncodegen_copyGeometry 000000018004f258     collisioncodegen_api.obj
 0002:0000325e       $ip2state$collisioncodegen_copyGeometry 000000018004f25e     collisioncodegen_api.obj
 0002:00003265       $stateUnwindMap$collisioncodegen_getType 000000018004f265     collisioncodegen_api.obj
 0002:0000326c       $unwind$collisioncodegen_copyGeometry$dtor$0 000000018004f26c     collisioncodegen_api.obj
 0002:00003274       $unwind$collisioncodegen_getVertices 000000018004f274     collisioncodegen_api.obj
 0002:0000327c       $unwind$collisioncodegen_getNumVertices 000000018004f27c     collisioncodegen_api.obj
 0002:00003284       $unwind$collisioncodegen_getX 000000018004f284     collisioncodegen_api.obj
 0002:0000328c       $unwind$collisioncodegen_getY 000000018004f28c     collisioncodegen_api.obj
 0002:00003294       $unwind$collisioncodegen_getZ 000000018004f294     collisioncodegen_api.obj
 0002:0000329c       $unwind$collisioncodegen_getRadius 000000018004f29c     collisioncodegen_api.obj
 0002:000032a4       $unwind$collisioncodegen_getLength 000000018004f2a4     collisioncodegen_api.obj
 0002:000032ac       $unwind$collisioncodegen_getType 000000018004f2ac     collisioncodegen_api.obj
 0002:000032c0       $ip2state$collisioncodegen_getType 000000018004f2c0     collisioncodegen_api.obj
 0002:000032c8       $unwind$collisioncodegen_getType$dtor$0 000000018004f2c8     collisioncodegen_api.obj
 0002:000032d0       $unwind$??$?0V?$allocator@V?$vector@_KV?$allocator@_K@std@@@std@@@std@@$$V@?$_Compressed_pair@V?$allocator@V?$vector@_KV?$allocator@_K@std@@@std@@@std@@V?$_Vector_val@U?$_Simple_types@V?$vector@_KV?$allocator@_K@std@@@std@@@std@@@2@$00@std@@QEAA@U_One_then_variadic_args_t@1@$$QEAV?$allocator@V?$vector@_KV?$allocator@_K@std@@@std@@@1@@Z 000000018004f2d0     collisioncodegen_api.obj
 0002:000032d8       $unwind$??0?$vector@_KV?$allocator@_K@std@@@std@@QEAA@AEBV01@@Z 000000018004f2d8     collisioncodegen_api.obj
 0002:000032e0       $unwind$?_Buy_raw@?$vector@_KV?$allocator@_K@std@@@std@@AEAAX_K@Z 000000018004f2e0     collisioncodegen_api.obj
 0002:000032e8       $unwind$?_Buy_nonzero@?$vector@_KV?$allocator@_K@std@@@std@@AEAAX_K@Z 000000018004f2e8     collisioncodegen_api.obj
 0002:000032f0       $unwind$??$_Construct_n@AEBQEAV?$vector@_KV?$allocator@_K@std@@@std@@AEBQEAV12@@?$vector@V?$vector@_KV?$allocator@_K@std@@@std@@V?$allocator@V?$vector@_KV?$allocator@_K@std@@@std@@@2@@std@@AEAAX_KAEBQEAV?$vector@_KV?$allocator@_K@std@@@1@1@Z 000000018004f2f0     collisioncodegen_api.obj
 0002:00003300       $cppxdata$??$_Construct_n@AEBQEAV?$vector@_KV?$allocator@_K@std@@@std@@AEBQEAV12@@?$vector@V?$vector@_KV?$allocator@_K@std@@@std@@V?$allocator@V?$vector@_KV?$allocator@_K@std@@@std@@@2@@std@@AEAAX_KAEBQEAV?$vector@_KV?$allocator@_K@std@@@1@1@Z 000000018004f300     collisioncodegen_api.obj
 0002:00003309       $stateUnwindMap$??$_Construct_n@AEBQEAV?$vector@_KV?$allocator@_K@std@@@std@@AEBQEAV12@@?$vector@V?$vector@_KV?$allocator@_K@std@@@std@@V?$allocator@V?$vector@_KV?$allocator@_K@std@@@std@@@2@@std@@AEAAX_KAEBQEAV?$vector@_KV?$allocator@_K@std@@@1@1@Z 000000018004f309     collisioncodegen_api.obj
 0002:0000330f       $ip2state$??$_Construct_n@AEBQEAV?$vector@_KV?$allocator@_K@std@@@std@@AEBQEAV12@@?$vector@V?$vector@_KV?$allocator@_K@std@@@std@@V?$allocator@V?$vector@_KV?$allocator@_K@std@@@std@@@2@@std@@AEAAX_KAEBQEAV?$vector@_KV?$allocator@_K@std@@@1@1@Z 000000018004f30f     collisioncodegen_api.obj
 0002:00003318       $unwind$?dtor$0@?0???$_Construct_n@AEBQEAV?$vector@_KV?$allocator@_K@std@@@std@@AEBQEAV12@@?$vector@V?$vector@_KV?$allocator@_K@std@@@std@@V?$allocator@V?$vector@_KV?$allocator@_K@std@@@std@@@2@@std@@AEAAX_KAEBQEAV?$vector@_KV?$allocator@_K@std@@@1@1@Z@4HA 000000018004f318     collisioncodegen_api.obj
 0002:00003320       $unwind$??$?0$$V@?$_Compressed_pair@V?$allocator@V?$vector@_KV?$allocator@_K@std@@@std@@@std@@V?$_Vector_val@U?$_Simple_types@V?$vector@_KV?$allocator@_K@std@@@std@@@std@@@2@$00@std@@QEAA@U_Zero_then_variadic_args_t@1@@Z 000000018004f320     collisioncodegen_api.obj
 0002:00003328       $unwind$??$?0V?$allocator@U_idx_vec3_t@shared_robotics@@@std@@$$V@?$_Compressed_pair@V?$allocator@U_idx_vec3_t@shared_robotics@@@std@@V?$_Vector_val@U?$_Simple_types@U_idx_vec3_t@shared_robotics@@@std@@@2@$00@std@@QEAA@U_One_then_variadic_args_t@1@$$QEAV?$allocator@U_idx_vec3_t@shared_robotics@@@1@@Z 000000018004f328     collisioncodegen_api.obj
 0002:00003330       $unwind$??$_Construct_n@AEBQEAU_idx_vec3_t@shared_robotics@@AEBQEAU12@@?$vector@U_idx_vec3_t@shared_robotics@@V?$allocator@U_idx_vec3_t@shared_robotics@@@std@@@std@@AEAAX_KAEBQEAU_idx_vec3_t@shared_robotics@@1@Z 000000018004f330     collisioncodegen_api.obj
 0002:00003340       $cppxdata$??$_Construct_n@AEBQEAU_idx_vec3_t@shared_robotics@@AEBQEAU12@@?$vector@U_idx_vec3_t@shared_robotics@@V?$allocator@U_idx_vec3_t@shared_robotics@@@std@@@std@@AEAAX_KAEBQEAU_idx_vec3_t@shared_robotics@@1@Z 000000018004f340     collisioncodegen_api.obj
 0002:00003349       $stateUnwindMap$??$_Construct_n@AEBQEAU_idx_vec3_t@shared_robotics@@AEBQEAU12@@?$vector@U_idx_vec3_t@shared_robotics@@V?$allocator@U_idx_vec3_t@shared_robotics@@@std@@@std@@AEAAX_KAEBQEAU_idx_vec3_t@shared_robotics@@1@Z 000000018004f349     collisioncodegen_api.obj
 0002:0000334f       $ip2state$??$_Construct_n@AEBQEAU_idx_vec3_t@shared_robotics@@AEBQEAU12@@?$vector@U_idx_vec3_t@shared_robotics@@V?$allocator@U_idx_vec3_t@shared_robotics@@@std@@@std@@AEAAX_KAEBQEAU_idx_vec3_t@shared_robotics@@1@Z 000000018004f34f     collisioncodegen_api.obj
 0002:00003358       $unwind$?dtor$0@?0???$_Construct_n@AEBQEAU_idx_vec3_t@shared_robotics@@AEBQEAU12@@?$vector@U_idx_vec3_t@shared_robotics@@V?$allocator@U_idx_vec3_t@shared_robotics@@@std@@@std@@AEAAX_KAEBQEAU_idx_vec3_t@shared_robotics@@1@Z@4HA 000000018004f358     collisioncodegen_api.obj
 0002:00003360       $unwind$??$?0$$V@?$_Compressed_pair@V?$allocator@U_idx_vec3_t@shared_robotics@@@std@@V?$_Vector_val@U?$_Simple_types@U_idx_vec3_t@shared_robotics@@@std@@@2@$00@std@@QEAA@U_Zero_then_variadic_args_t@1@@Z 000000018004f360     collisioncodegen_api.obj
 0002:00003368       $unwind$??$emplace_back@AEBU_ccd_vec3_t@@@?$vector@U_ccd_vec3_t@@V?$allocator@U_ccd_vec3_t@@@std@@@std@@QEAA?A_TAEBU_ccd_vec3_t@@@Z 000000018004f368     collisioncodegen_api.obj
 0002:00003370       $unwind$??$_Emplace_back_with_unused_capacity@AEBU_ccd_vec3_t@@@?$vector@U_ccd_vec3_t@@V?$allocator@U_ccd_vec3_t@@@std@@@std@@AEAA?A_TAEBU_ccd_vec3_t@@@Z 000000018004f370     collisioncodegen_api.obj
 0002:00003378       $unwind$??$construct@U_ccd_vec3_t@@AEBU1@@?$_Default_allocator_traits@V?$allocator@U_ccd_vec3_t@@@std@@@std@@SAXAEAV?$allocator@U_ccd_vec3_t@@@1@QEAU_ccd_vec3_t@@AEBU3@@Z 000000018004f378     collisioncodegen_api.obj
 0002:00003384       $unwind$??$_Emplace_reallocate@AEBU_ccd_vec3_t@@@?$vector@U_ccd_vec3_t@@V?$allocator@U_ccd_vec3_t@@@std@@@std@@QEAAPEAU_ccd_vec3_t@@QEAU2@AEBU2@@Z 000000018004f384     collisioncodegen_api.obj
 0002:00003394       $cppxdata$??$_Emplace_reallocate@AEBU_ccd_vec3_t@@@?$vector@U_ccd_vec3_t@@V?$allocator@U_ccd_vec3_t@@@std@@@std@@QEAAPEAU_ccd_vec3_t@@QEAU2@AEBU2@@Z 000000018004f394     collisioncodegen_api.obj
 0002:000033a1       $stateUnwindMap$??$_Emplace_reallocate@AEBU_ccd_vec3_t@@@?$vector@U_ccd_vec3_t@@V?$allocator@U_ccd_vec3_t@@@std@@@std@@QEAAPEAU_ccd_vec3_t@@QEAU2@AEBU2@@Z 000000018004f3a1     collisioncodegen_api.obj
 0002:000033a4       $tryMap$??$_Emplace_reallocate@AEBU_ccd_vec3_t@@@?$vector@U_ccd_vec3_t@@V?$allocator@U_ccd_vec3_t@@@std@@@std@@QEAAPEAU_ccd_vec3_t@@QEAU2@AEBU2@@Z 000000018004f3a4     collisioncodegen_api.obj
 0002:000033ac       $handlerMap$??$_Emplace_reallocate@AEBU_ccd_vec3_t@@@?$vector@U_ccd_vec3_t@@V?$allocator@U_ccd_vec3_t@@@std@@@std@@QEAAPEAU_ccd_vec3_t@@QEAU2@AEBU2@@Z 000000018004f3ac     collisioncodegen_api.obj
 0002:000033b3       $ip2state$??$_Emplace_reallocate@AEBU_ccd_vec3_t@@@?$vector@U_ccd_vec3_t@@V?$allocator@U_ccd_vec3_t@@@std@@@std@@QEAAPEAU_ccd_vec3_t@@QEAU2@AEBU2@@Z 000000018004f3b3     collisioncodegen_api.obj
 0002:000033bc       $unwind$?catch$0@?0???$_Emplace_reallocate@AEBU_ccd_vec3_t@@@?$vector@U_ccd_vec3_t@@V?$allocator@U_ccd_vec3_t@@@std@@@std@@QEAAPEAU_ccd_vec3_t@@QEAU2@AEBU2@@Z@4HA 000000018004f3bc     collisioncodegen_api.obj
 0002:000033c4       $unwind$??$?0V?$allocator@U_ccd_vec3_t@@@std@@$$V@?$_Compressed_pair@V?$allocator@U_ccd_vec3_t@@@std@@V?$_Vector_val@U?$_Simple_types@U_ccd_vec3_t@@@std@@@2@$00@std@@QEAA@U_One_then_variadic_args_t@1@$$QEAV?$allocator@U_ccd_vec3_t@@@1@@Z 000000018004f3c4     collisioncodegen_api.obj
 0002:000033cc       $unwind$??$_Construct_n@AEBQEAU_ccd_vec3_t@@AEBQEAU1@@?$vector@U_ccd_vec3_t@@V?$allocator@U_ccd_vec3_t@@@std@@@std@@AEAAX_KAEBQEAU_ccd_vec3_t@@1@Z 000000018004f3cc     collisioncodegen_api.obj
 0002:000033dc       $cppxdata$??$_Construct_n@AEBQEAU_ccd_vec3_t@@AEBQEAU1@@?$vector@U_ccd_vec3_t@@V?$allocator@U_ccd_vec3_t@@@std@@@std@@AEAAX_KAEBQEAU_ccd_vec3_t@@1@Z 000000018004f3dc     collisioncodegen_api.obj
 0002:000033e5       $stateUnwindMap$??$_Construct_n@AEBQEAU_ccd_vec3_t@@AEBQEAU1@@?$vector@U_ccd_vec3_t@@V?$allocator@U_ccd_vec3_t@@@std@@@std@@AEAAX_KAEBQEAU_ccd_vec3_t@@1@Z 000000018004f3e5     collisioncodegen_api.obj
 0002:000033eb       $ip2state$??$_Construct_n@AEBQEAU_ccd_vec3_t@@AEBQEAU1@@?$vector@U_ccd_vec3_t@@V?$allocator@U_ccd_vec3_t@@@std@@@std@@AEAAX_KAEBQEAU_ccd_vec3_t@@1@Z 000000018004f3eb     collisioncodegen_api.obj
 0002:000033f4       $unwind$?dtor$0@?0???$_Construct_n@AEBQEAU_ccd_vec3_t@@AEBQEAU1@@?$vector@U_ccd_vec3_t@@V?$allocator@U_ccd_vec3_t@@@std@@@std@@AEAAX_KAEBQEAU_ccd_vec3_t@@1@Z@4HA 000000018004f3f4     collisioncodegen_api.obj
 0002:000033fc       $unwind$??$?0$$V@?$_Compressed_pair@V?$allocator@U_ccd_vec3_t@@@std@@V?$_Vector_val@U?$_Simple_types@U_ccd_vec3_t@@@std@@@2@$00@std@@QEAA@U_Zero_then_variadic_args_t@1@@Z 000000018004f3fc     collisioncodegen_api.obj
 0002:00003404       $unwind$??$?0$$V@?$_Compressed_pair@V?$allocator@D@std@@V?$_String_val@U?$_Simple_types@D@std@@@2@$00@std@@QEAA@U_Zero_then_variadic_args_t@1@@Z 000000018004f404     collisioncodegen_api.obj
 0002:0000340c       $unwind$??R<lambda_66f57f934f28d61049862f64df852ff0>@@QEBA@QEAD_KQEBD@Z 000000018004f40c     collisioncodegen_api.obj
 0002:00003414       $unwind$??$_Reallocate_for@V<lambda_66f57f934f28d61049862f64df852ff0>@@PEBD@?$basic_string@DU?$char_traits@D@std@@V?$allocator@D@2@@std@@AEAAAEAV01@_KV<lambda_66f57f934f28d61049862f64df852ff0>@@PEBD@Z 000000018004f414     collisioncodegen_api.obj
 0002:0000341c       $unwind$??$_Construct_in_place@PEADAEBQEAD@std@@YAXAEAPEADAEBQEAD@Z 000000018004f41c     collisioncodegen_api.obj
 0002:00003424       $unwind$??$max@_K@std@@YAAEB_KAEB_K0@Z 000000018004f424     collisioncodegen_api.obj
 0002:0000342c       $unwind$??$_Get_size_of_n@$00@std@@YA_K_K@Z 000000018004f42c     collisioncodegen_api.obj
 0002:00003434       $unwind$??1?$_Tidy_guard@V?$vector@V?$vector@_KV?$allocator@_K@std@@@std@@V?$allocator@V?$vector@_KV?$allocator@_K@std@@@std@@@2@@std@@@std@@QEAA@XZ 000000018004f434     collisioncodegen_api.obj
 0002:0000343c       $unwind$??$_Uninitialized_copy@PEAV?$vector@_KV?$allocator@_K@std@@@std@@V?$allocator@V?$vector@_KV?$allocator@_K@std@@@std@@@2@@std@@YAPEAV?$vector@_KV?$allocator@_K@std@@@0@QEAV10@0PEAV10@AEAV?$allocator@V?$vector@_KV?$allocator@_K@std@@@std@@@0@@Z 000000018004f43c     collisioncodegen_api.obj
 0002:0000344c       $cppxdata$??$_Uninitialized_copy@PEAV?$vector@_KV?$allocator@_K@std@@@std@@V?$allocator@V?$vector@_KV?$allocator@_K@std@@@std@@@2@@std@@YAPEAV?$vector@_KV?$allocator@_K@std@@@0@QEAV10@0PEAV10@AEAV?$allocator@V?$vector@_KV?$allocator@_K@std@@@std@@@0@@Z 000000018004f44c     collisioncodegen_api.obj
 0002:00003455       $stateUnwindMap$??$_Uninitialized_copy@PEAV?$vector@_KV?$allocator@_K@std@@@std@@V?$allocator@V?$vector@_KV?$allocator@_K@std@@@std@@@2@@std@@YAPEAV?$vector@_KV?$allocator@_K@std@@@0@QEAV10@0PEAV10@AEAV?$allocator@V?$vector@_KV?$allocator@_K@std@@@std@@@0@@Z 000000018004f455     collisioncodegen_api.obj
 0002:0000345b       $ip2state$??$_Uninitialized_copy@PEAV?$vector@_KV?$allocator@_K@std@@@std@@V?$allocator@V?$vector@_KV?$allocator@_K@std@@@std@@@2@@std@@YAPEAV?$vector@_KV?$allocator@_K@std@@@0@QEAV10@0PEAV10@AEAV?$allocator@V?$vector@_KV?$allocator@_K@std@@@std@@@0@@Z 000000018004f45b     collisioncodegen_api.obj
 0002:00003464       $unwind$?dtor$0@?0???$_Uninitialized_copy@PEAV?$vector@_KV?$allocator@_K@std@@@std@@V?$allocator@V?$vector@_KV?$allocator@_K@std@@@std@@@2@@std@@YAPEAV?$vector@_KV?$allocator@_K@std@@@0@QEAV10@0PEAV10@AEAV?$allocator@V?$vector@_KV?$allocator@_K@std@@@std@@@0@@Z@4HA 000000018004f464     collisioncodegen_api.obj
 0002:0000346c       $unwind$??1?$_Tidy_guard@V?$vector@U_idx_vec3_t@shared_robotics@@V?$allocator@U_idx_vec3_t@shared_robotics@@@std@@@std@@@std@@QEAA@XZ 000000018004f46c     collisioncodegen_api.obj
 0002:00003474       $unwind$??$_Uninitialized_copy@PEAU_idx_vec3_t@shared_robotics@@V?$allocator@U_idx_vec3_t@shared_robotics@@@std@@@std@@YAPEAU_idx_vec3_t@shared_robotics@@QEAU12@0PEAU12@AEAV?$allocator@U_idx_vec3_t@shared_robotics@@@0@@Z 000000018004f474     collisioncodegen_api.obj
 0002:00003484       $cppxdata$??$_Uninitialized_copy@PEAU_idx_vec3_t@shared_robotics@@V?$allocator@U_idx_vec3_t@shared_robotics@@@std@@@std@@YAPEAU_idx_vec3_t@shared_robotics@@QEAU12@0PEAU12@AEAV?$allocator@U_idx_vec3_t@shared_robotics@@@0@@Z 000000018004f484     collisioncodegen_api.obj
 0002:0000348d       $stateUnwindMap$??$_Uninitialized_copy@PEAU_idx_vec3_t@shared_robotics@@V?$allocator@U_idx_vec3_t@shared_robotics@@@std@@@std@@YAPEAU_idx_vec3_t@shared_robotics@@QEAU12@0PEAU12@AEAV?$allocator@U_idx_vec3_t@shared_robotics@@@0@@Z 000000018004f48d     collisioncodegen_api.obj
 0002:00003493       $ip2state$??$_Uninitialized_copy@PEAU_idx_vec3_t@shared_robotics@@V?$allocator@U_idx_vec3_t@shared_robotics@@@std@@@std@@YAPEAU_idx_vec3_t@shared_robotics@@QEAU12@0PEAU12@AEAV?$allocator@U_idx_vec3_t@shared_robotics@@@0@@Z 000000018004f493     collisioncodegen_api.obj
 0002:00003498       $unwind$?dtor$0@?0???$_Uninitialized_copy@PEAU_idx_vec3_t@shared_robotics@@V?$allocator@U_idx_vec3_t@shared_robotics@@@std@@@std@@YAPEAU_idx_vec3_t@shared_robotics@@QEAU12@0PEAU12@AEAV?$allocator@U_idx_vec3_t@shared_robotics@@@0@@Z@4HA 000000018004f498     collisioncodegen_api.obj
 0002:000034a0       $unwind$??$_Uninitialized_move@PEAU_ccd_vec3_t@@V?$allocator@U_ccd_vec3_t@@@std@@@std@@YAPEAU_ccd_vec3_t@@QEAU1@0PEAU1@AEAV?$allocator@U_ccd_vec3_t@@@0@@Z 000000018004f4a0     collisioncodegen_api.obj
 0002:000034b0       $cppxdata$??$_Uninitialized_move@PEAU_ccd_vec3_t@@V?$allocator@U_ccd_vec3_t@@@std@@@std@@YAPEAU_ccd_vec3_t@@QEAU1@0PEAU1@AEAV?$allocator@U_ccd_vec3_t@@@0@@Z 000000018004f4b0     collisioncodegen_api.obj
 0002:000034b9       $stateUnwindMap$??$_Uninitialized_move@PEAU_ccd_vec3_t@@V?$allocator@U_ccd_vec3_t@@@std@@@std@@YAPEAU_ccd_vec3_t@@QEAU1@0PEAU1@AEAV?$allocator@U_ccd_vec3_t@@@0@@Z 000000018004f4b9     collisioncodegen_api.obj
 0002:000034bf       $ip2state$??$_Uninitialized_move@PEAU_ccd_vec3_t@@V?$allocator@U_ccd_vec3_t@@@std@@@std@@YAPEAU_ccd_vec3_t@@QEAU1@0PEAU1@AEAV?$allocator@U_ccd_vec3_t@@@0@@Z 000000018004f4bf     collisioncodegen_api.obj
 0002:000034c4       $unwind$?dtor$0@?0???$_Uninitialized_move@PEAU_ccd_vec3_t@@V?$allocator@U_ccd_vec3_t@@@std@@@std@@YAPEAU_ccd_vec3_t@@QEAU1@0PEAU1@AEAV?$allocator@U_ccd_vec3_t@@@0@@Z@4HA 000000018004f4c4     collisioncodegen_api.obj
 0002:000034cc       $unwind$??1?$_Tidy_guard@V?$vector@U_ccd_vec3_t@@V?$allocator@U_ccd_vec3_t@@@std@@@std@@@std@@QEAA@XZ 000000018004f4cc     collisioncodegen_api.obj
 0002:000034d4       $unwind$??$_Uninitialized_copy@PEAU_ccd_vec3_t@@V?$allocator@U_ccd_vec3_t@@@std@@@std@@YAPEAU_ccd_vec3_t@@QEAU1@0PEAU1@AEAV?$allocator@U_ccd_vec3_t@@@0@@Z 000000018004f4d4     collisioncodegen_api.obj
 0002:000034e4       $cppxdata$??$_Uninitialized_copy@PEAU_ccd_vec3_t@@V?$allocator@U_ccd_vec3_t@@@std@@@std@@YAPEAU_ccd_vec3_t@@QEAU1@0PEAU1@AEAV?$allocator@U_ccd_vec3_t@@@0@@Z 000000018004f4e4     collisioncodegen_api.obj
 0002:000034ed       $stateUnwindMap$??$_Uninitialized_copy@PEAU_ccd_vec3_t@@V?$allocator@U_ccd_vec3_t@@@std@@@std@@YAPEAU_ccd_vec3_t@@QEAU1@0PEAU1@AEAV?$allocator@U_ccd_vec3_t@@@0@@Z 000000018004f4ed     collisioncodegen_api.obj
 0002:000034f3       $ip2state$??$_Uninitialized_copy@PEAU_ccd_vec3_t@@V?$allocator@U_ccd_vec3_t@@@std@@@std@@YAPEAU_ccd_vec3_t@@QEAU1@0PEAU1@AEAV?$allocator@U_ccd_vec3_t@@@0@@Z 000000018004f4f3     collisioncodegen_api.obj
 0002:000034f8       $unwind$?dtor$0@?0???$_Uninitialized_copy@PEAU_ccd_vec3_t@@V?$allocator@U_ccd_vec3_t@@@std@@@std@@YAPEAU_ccd_vec3_t@@QEAU1@0PEAU1@AEAV?$allocator@U_ccd_vec3_t@@@0@@Z@4HA 000000018004f4f8     collisioncodegen_api.obj
 0002:00003500       $unwind$??$_Emplace_back@AEAV?$vector@_KV?$allocator@_K@std@@@std@@@?$_Uninitialized_backout_al@V?$allocator@V?$vector@_KV?$allocator@_K@std@@@std@@@std@@@std@@QEAAXAEAV?$vector@_KV?$allocator@_K@std@@@1@@Z 000000018004f500     collisioncodegen_api.obj
 0002:00003508       $unwind$??$_Copy_memmove@PEAU_idx_vec3_t@shared_robotics@@PEAU12@@std@@YAPEAU_idx_vec3_t@shared_robotics@@PEAU12@00@Z 000000018004f508     collisioncodegen_api.obj
 0002:00003510       $unwind$??1?$_Uninitialized_backout_al@V?$allocator@U_idx_vec3_t@shared_robotics@@@std@@@std@@QEAA@XZ 000000018004f510     collisioncodegen_api.obj
 0002:00003518       $unwind$??$_Emplace_back@AEAU_idx_vec3_t@shared_robotics@@@?$_Uninitialized_backout_al@V?$allocator@U_idx_vec3_t@shared_robotics@@@std@@@std@@QEAAXAEAU_idx_vec3_t@shared_robotics@@@Z 000000018004f518     collisioncodegen_api.obj
 0002:00003520       $unwind$??$_Copy_memmove@PEAU_ccd_vec3_t@@PEAU1@@std@@YAPEAU_ccd_vec3_t@@PEAU1@00@Z 000000018004f520     collisioncodegen_api.obj
 0002:00003528       $unwind$??1?$_Uninitialized_backout_al@V?$allocator@U_ccd_vec3_t@@@std@@@std@@QEAA@XZ 000000018004f528     collisioncodegen_api.obj
 0002:00003530       $unwind$??$_Emplace_back@U_ccd_vec3_t@@@?$_Uninitialized_backout_al@V?$allocator@U_ccd_vec3_t@@@std@@@std@@QEAAX$$QEAU_ccd_vec3_t@@@Z 000000018004f530     collisioncodegen_api.obj
 0002:00003538       $unwind$??$_Emplace_back@AEAU_ccd_vec3_t@@@?$_Uninitialized_backout_al@V?$allocator@U_ccd_vec3_t@@@std@@@std@@QEAAXAEAU_ccd_vec3_t@@@Z 000000018004f538     collisioncodegen_api.obj
 0002:00003540       $unwind$??$construct@V?$vector@_KV?$allocator@_K@std@@@std@@AEAV12@@?$_Default_allocator_traits@V?$allocator@V?$vector@_KV?$allocator@_K@std@@@std@@@std@@@std@@SAXAEAV?$allocator@V?$vector@_KV?$allocator@_K@std@@@std@@@1@QEAV?$vector@_KV?$allocator@_K@std@@@1@AEAV31@@Z 000000018004f540     collisioncodegen_api.obj
 0002:00003548       $unwind$??$construct@U_idx_vec3_t@shared_robotics@@AEAU12@@?$_Default_allocator_traits@V?$allocator@U_idx_vec3_t@shared_robotics@@@std@@@std@@SAXAEAV?$allocator@U_idx_vec3_t@shared_robotics@@@1@QEAU_idx_vec3_t@shared_robotics@@AEAU34@@Z 000000018004f548     collisioncodegen_api.obj
 0002:00003554       $unwind$??$construct@U_ccd_vec3_t@@U1@@?$_Default_allocator_traits@V?$allocator@U_ccd_vec3_t@@@std@@@std@@SAXAEAV?$allocator@U_ccd_vec3_t@@@1@QEAU_ccd_vec3_t@@$$QEAU3@@Z 000000018004f554     collisioncodegen_api.obj
 0002:00003560       $unwind$??$construct@U_ccd_vec3_t@@AEAU1@@?$_Default_allocator_traits@V?$allocator@U_ccd_vec3_t@@@std@@@std@@SAXAEAV?$allocator@U_ccd_vec3_t@@@1@QEAU_ccd_vec3_t@@AEAU3@@Z 000000018004f560     collisioncodegen_api.obj
 0002:0000356c       $unwind$??$?0V?$allocator@_K@std@@$$V@?$_Compressed_pair@V?$allocator@_K@std@@V?$_Vector_val@U?$_Simple_types@_K@std@@@2@$00@std@@QEAA@U_One_then_variadic_args_t@1@$$QEAV?$allocator@_K@1@@Z 000000018004f56c     collisioncodegen_api.obj
 0002:00003574       $unwind$??$_Construct_n@AEBQEA_KAEBQEA_K@?$vector@_KV?$allocator@_K@std@@@std@@AEAAX_KAEBQEA_K1@Z 000000018004f574     collisioncodegen_api.obj
 0002:00003584       $cppxdata$??$_Construct_n@AEBQEA_KAEBQEA_K@?$vector@_KV?$allocator@_K@std@@@std@@AEAAX_KAEBQEA_K1@Z 000000018004f584     collisioncodegen_api.obj
 0002:0000358d       $stateUnwindMap$??$_Construct_n@AEBQEA_KAEBQEA_K@?$vector@_KV?$allocator@_K@std@@@std@@AEAAX_KAEBQEA_K1@Z 000000018004f58d     collisioncodegen_api.obj
 0002:00003593       $ip2state$??$_Construct_n@AEBQEA_KAEBQEA_K@?$vector@_KV?$allocator@_K@std@@@std@@AEAAX_KAEBQEA_K1@Z 000000018004f593     collisioncodegen_api.obj
 0002:0000359c       $unwind$?dtor$0@?0???$_Construct_n@AEBQEA_KAEBQEA_K@?$vector@_KV?$allocator@_K@std@@@std@@AEAAX_KAEBQEA_K1@Z@4HA 000000018004f59c     collisioncodegen_api.obj
 0002:000035a4       $unwind$??1?$_Tidy_guard@V?$vector@_KV?$allocator@_K@std@@@std@@@std@@QEAA@XZ 000000018004f5a4     collisioncodegen_api.obj
 0002:000035ac       $unwind$??$_Uninitialized_copy@PEA_KV?$allocator@_K@std@@@std@@YAPEA_KQEA_K0PEA_KAEAV?$allocator@_K@0@@Z 000000018004f5ac     collisioncodegen_api.obj
 0002:000035bc       $cppxdata$??$_Uninitialized_copy@PEA_KV?$allocator@_K@std@@@std@@YAPEA_KQEA_K0PEA_KAEAV?$allocator@_K@0@@Z 000000018004f5bc     collisioncodegen_api.obj
 0002:000035c5       $stateUnwindMap$??$_Uninitialized_copy@PEA_KV?$allocator@_K@std@@@std@@YAPEA_KQEA_K0PEA_KAEAV?$allocator@_K@0@@Z 000000018004f5c5     collisioncodegen_api.obj
 0002:000035cb       $ip2state$??$_Uninitialized_copy@PEA_KV?$allocator@_K@std@@@std@@YAPEA_KQEA_K0PEA_KAEAV?$allocator@_K@0@@Z 000000018004f5cb     collisioncodegen_api.obj
 0002:000035d0       $unwind$?dtor$0@?0???$_Uninitialized_copy@PEA_KV?$allocator@_K@std@@@std@@YAPEA_KQEA_K0PEA_KAEAV?$allocator@_K@0@@Z@4HA 000000018004f5d0     collisioncodegen_api.obj
 0002:000035d8       $unwind$??$_Emplace_back@AEA_K@?$_Uninitialized_backout_al@V?$allocator@_K@std@@@std@@QEAAXAEA_K@Z 000000018004f5d8     collisioncodegen_api.obj
 0002:000035e0       $unwind$??$construct@_KAEA_K@?$_Default_allocator_traits@V?$allocator@_K@std@@@std@@SAXAEAV?$allocator@_K@1@QEA_KAEA_K@Z 000000018004f5e0     collisioncodegen_api.obj
 0002:000035e8       $unwind$ccdEq              000000018004f5e8     collisioncodegen_ccdExtensions.obj
 0002:000035f0       $unwind$ccdVec3Eq          000000018004f5f0     collisioncodegen_ccdExtensions.obj
 0002:000035f8       $unwind$ccdVec3Len2        000000018004f5f8     collisioncodegen_ccdExtensions.obj
 0002:00003600       $unwind$ccdVec3Copy        000000018004f600     collisioncodegen_ccdExtensions.obj
 0002:00003608       $unwind$ccdVec3Dot         000000018004f608     collisioncodegen_ccdExtensions.obj
 0002:00003610       $unwind$?ccdDistance@shared_robotics@@YANPEBX0PEBU_ccd_t@@PEAU_ccd_vec3_t@@2@Z 000000018004f610     collisioncodegen_ccdExtensions.obj
 0002:00003624       $unwind$?distanceToOrigin@shared_robotics@@YANPEAU_ccd_simplex_t@@AEAPEAU_ccd_vec3_t@@@Z 000000018004f624     collisioncodegen_ccdExtensions.obj
 0002:00003638       $unwind$?extractWitnessPoints@shared_robotics@@YAXPEBU_ccd_simplex_t@@PEBU_ccd_vec3_t@@PEAU3@2@Z 000000018004f638     collisioncodegen_ccdExtensions.obj
 0002:00003644       $unwind$?interpolateBetweenTwoSupportPoints@shared_robotics@@YAXAEAPEBU_ccd_simplex_t@@AEAPEBU_ccd_vec3_t@@AEAPEAU3@2@Z 000000018004f644     collisioncodegen_ccdExtensions.obj
 0002:00003658       $unwind$?interpolateAmongThreeSupportPoints@shared_robotics@@YAXAEAPEBU_ccd_simplex_t@@AEAPEBU_ccd_vec3_t@@AEAPEAU3@2@Z 000000018004f658     collisioncodegen_ccdExtensions.obj
 0002:0000366c       $unwind$?barycentricCoordinates@@YAXPEBU_ccd_vec3_t@@000PEAU1@@Z 000000018004f66c     collisioncodegen_ccdExtensions.obj
 0002:0000367c       $unwind$intersect          000000018004f67c     collisioncodegen_checkCollision.obj
 0002:0000368c       $unwind$updatePose         000000018004f68c     collisioncodegen_checkCollision.obj
 0002:00003694       $unwind$?fSupport@@YAXPEBXPEBU_ccd_vec3_t@@PEAU1@@Z 000000018004f694     collisioncodegen_checkCollision.obj
 0002:0000369c       $unwind$__report_securityfailure 000000018004f69c     MSVCRT:gs_report.obj
 0002:000036a4       $unwind$__report_securityfailureEx 000000018004f6a4     MSVCRT:gs_report.obj
 0002:000036ac       $unwind$__report_rangecheckfailure 000000018004f6ac     MSVCRT:gs_report.obj
 0002:000036b4       $unwind$__report_gsfailure 000000018004f6b4     MSVCRT:gs_report.obj
 0002:000036bc       $unwind$capture_current_context 000000018004f6bc     MSVCRT:gs_report.obj
 0002:000036c8       $unwind$capture_previous_context 000000018004f6c8     MSVCRT:gs_report.obj
 0002:000036d4       $unwind$__raise_securityfailure 000000018004f6d4     MSVCRT:gs_report.obj
 0002:000036dc       $unwind$__GSHandlerCheckCommon 000000018004f6dc     MSVCRT:gshandler.obj
 0002:000036e4       $unwind$__GSHandlerCheck   000000018004f6e4     MSVCRT:gshandler.obj
 0002:000036f0       $xdatasym                  000000018004f6f0     MSVCRT:amdsecgs.obj
 0002:000036f4       $unwind$??2@YAPEAX_K@Z     000000018004f6f4     MSVCRT:new_scalar.obj
 0002:000036fc       $unwind$__GSHandlerCheck_EH4 000000018004f6fc     MSVCRT:gshandlereh4.obj
 0002:00003714       $unwind$??_Gtype_info@@UEAAPEAXI@Z 000000018004f714     MSVCRT:std_type_info_static.obj
 0002:0000371c       $unwind$?dllmain_crt_process_attach@@YAHQEAUHINSTANCE__@@QEAX@Z 000000018004f71c     MSVCRT:dll_dllmain.obj
 0002:00003758       $unwind$?fin$0@?0??dllmain_crt_process_attach@@YAHQEAUHINSTANCE__@@QEAX@Z@4HA 000000018004f758     MSVCRT:dll_dllmain.obj
 0002:00003760       $unwind$?dllmain_crt_process_detach@@YAH_N@Z 000000018004f760     MSVCRT:dll_dllmain.obj
 0002:000037b4       $unwind$?fin$0@?0??dllmain_crt_process_detach@@YAH_N@Z@4HA 000000018004f7b4     MSVCRT:dll_dllmain.obj
 0002:000037bc       $unwind$?fin$1@?0??dllmain_crt_process_detach@@YAH_N@Z@4HA 000000018004f7bc     MSVCRT:dll_dllmain.obj
 0002:000037c4       $unwind$?dllmain_crt_dispatch@@YAHQEAUHINSTANCE__@@KQEAX@Z 000000018004f7c4     MSVCRT:dll_dllmain.obj
 0002:000037cc       $unwind$?dllmain_dispatch@@YAHQEAUHINSTANCE__@@KQEAX@Z 000000018004f7cc     MSVCRT:dll_dllmain.obj
 0002:000037f4       $unwind$?filt$0@?0??dllmain_dispatch@@YAHQEAUHINSTANCE__@@KQEAX@Z@4HA 000000018004f7f4     MSVCRT:dll_dllmain.obj
 0002:000037fc       $unwind$_DllMainCRTStartup 000000018004f7fc     MSVCRT:dll_dllmain.obj
 0002:0000380c       $unwind$?__scrt_throw_std_bad_alloc@@YAXXZ 000000018004f80c     MSVCRT:throw_bad_alloc.obj
 0002:00003814       $unwind$?__scrt_throw_std_bad_array_new_length@@YAXXZ 000000018004f814     MSVCRT:throw_bad_alloc.obj
 0002:0000381c       $unwind$__security_init_cookie 000000018004f81c     MSVCRT:gs_support.obj
 0002:00003828       $unwind$__get_entropy      000000018004f828     MSVCRT:gs_support.obj
 0002:00003830       $unwind$DllMain            000000018004f830     MSVCRT:dll_dllmain_stub.obj
 0002:00003838       $unwind$__scrt_initialize_default_local_stdio_options 000000018004f838     MSVCRT:default_local_stdio_options.obj
 0002:00003840       $unwind$atexit             000000018004f840     MSVCRT:utility.obj
 0002:00003848       $unwind$_onexit            000000018004f848     MSVCRT:utility.obj
 0002:00003850       $unwind$__scrt_is_nonwritable_in_current_image 000000018004f850     MSVCRT:utility.obj
 0002:00003870       $unwind$__scrt_is_nonwritable_in_current_image$filt$0 000000018004f870     MSVCRT:utility.obj
 0002:00003878       $unwind$__scrt_acquire_startup_lock 000000018004f878     MSVCRT:utility.obj
 0002:00003880       $unwind$__scrt_release_startup_lock 000000018004f880     MSVCRT:utility.obj
 0002:00003888       $unwind$__scrt_initialize_crt 000000018004f888     MSVCRT:utility.obj
 0002:00003890       $unwind$__scrt_uninitialize_crt 000000018004f890     MSVCRT:utility.obj
 0002:00003898       $unwind$__scrt_initialize_onexit_tables 000000018004f898     MSVCRT:utility.obj
 0002:000038a0       $unwind$__scrt_dllmain_exception_filter 000000018004f8a0     MSVCRT:utility.obj
 0002:000038b4       $unwind$__scrt_dllmain_before_initialize_c 000000018004f8b4     MSVCRT:utility.obj
 0002:000038bc       $unwind$__scrt_dllmain_after_initialize_c 000000018004f8bc     MSVCRT:utility.obj
 0002:000038c4       $unwind$__scrt_dllmain_uninitialize_c 000000018004f8c4     MSVCRT:utility.obj
 0002:000038cc       $unwind$__scrt_dllmain_uninitialize_critical 000000018004f8cc     MSVCRT:utility.obj
 0002:000038d4       $unwind$__scrt_dllmain_crt_thread_attach 000000018004f8d4     MSVCRT:utility.obj
 0002:000038dc       $unwind$__scrt_dllmain_crt_thread_detach 000000018004f8dc     MSVCRT:utility.obj
 0002:000038e4       $unwind$?configure_argv@__scrt_narrow_argv_policy@@SAHXZ 000000018004f8e4     MSVCRT:utility.obj
 0002:000038ec       $unwind$__scrt_get_show_window_mode 000000018004f8ec     MSVCRT:utility_desktop.obj
 0002:000038f4       $unwind$__scrt_is_managed_app 000000018004f8f4     MSVCRT:utility_desktop.obj
 0002:000038fc       $unwind$__scrt_fastfail    000000018004f8fc     MSVCRT:utility_desktop.obj
 0002:0000390c       $unwind$__scrt_unhandled_exception_filter 000000018004f90c     MSVCRT:utility_desktop.obj
 0002:00003918       $unwind$_RTC_Initialize    000000018004f918     MSVCRT:initsect.obj
 0002:00003924       $unwind$_RTC_Terminate     000000018004f924     MSVCRT:initsect.obj
 0002:00003930       $unwind$__castguard_check_failure_os_handled_wrapper 000000018004f930     MSVCRT:guard_support.obj
 0002:00003938       $unwind$__castguard_check_failure_os_handled 000000018004f938     MSVCRT:guard_support.obj
 0002:00003940       $unwind$__castguard_slow_path_check_os_handled 000000018004f940     MSVCRT:guard_support.obj
 0002:00003948       $unwind$__isa_available_init 000000018004f948     MSVCRT:cpu_disp.obj
 0002:00003958       $xdatasym                  000000018004f958     MSVCRT:guard_dispatch.obj
 0002:00003960       $xdatasym                  000000018004f960     MSVCRT:guard_xfg_dispatch.obj
 0002:00003a60       .edata                     000000018004fa60     CTM_PID_withoutG_cgxe.exp
 0002:00003a88       rgpv                       000000018004fa88     CTM_PID_withoutG_cgxe.exp
 0002:00003ae8       rgszName                   000000018004fae8     CTM_PID_withoutG_cgxe.exp
 0002:00003b48       rgwOrd                     000000018004fb48     CTM_PID_withoutG_cgxe.exp
 0002:00003b78       szName                     000000018004fb78     CTM_PID_withoutG_cgxe.exp
 0002:00003b95       $N00001                    000000018004fb95     CTM_PID_withoutG_cgxe.exp
 0002:00003b9e       $N00002                    000000018004fb9e     CTM_PID_withoutG_cgxe.exp
 0002:00003bab       $N00003                    000000018004fbab     CTM_PID_withoutG_cgxe.exp
 0002:00003bbe       $N00004                    000000018004fbbe     CTM_PID_withoutG_cgxe.exp
 0002:00003bce       $N00005                    000000018004fbce     CTM_PID_withoutG_cgxe.exp
 0002:00003be0       $N00006                    000000018004fbe0     CTM_PID_withoutG_cgxe.exp
 0002:00003bef       $N00007                    000000018004fbef     CTM_PID_withoutG_cgxe.exp
 0002:00003bff       $N00008                    000000018004fbff     CTM_PID_withoutG_cgxe.exp
 0002:00003c11       $N00009                    000000018004fc11     CTM_PID_withoutG_cgxe.exp
 0002:00003c1e       $N00010                    000000018004fc1e     CTM_PID_withoutG_cgxe.exp
 0002:00003c2b       $N00011                    000000018004fc2b     CTM_PID_withoutG_cgxe.exp
 0002:00003c3a       $N00012                    000000018004fc3a     CTM_PID_withoutG_cgxe.exp
 0002:00003c47       $N00013                    000000018004fc47     CTM_PID_withoutG_cgxe.exp
 0002:00003c54       $N00014                    000000018004fc54     CTM_PID_withoutG_cgxe.exp
 0002:00003c62       $N00015                    000000018004fc62     CTM_PID_withoutG_cgxe.exp
 0002:00003c6c       $N00016                    000000018004fc6c     CTM_PID_withoutG_cgxe.exp
 0002:00003c79       $N00017                    000000018004fc79     CTM_PID_withoutG_cgxe.exp
 0002:00003c91       $N00018                    000000018004fc91     CTM_PID_withoutG_cgxe.exp
 0002:00003caa       $N00019                    000000018004fcaa     CTM_PID_withoutG_cgxe.exp
 0002:00003cbf       $N00020                    000000018004fcbf     CTM_PID_withoutG_cgxe.exp
 0002:00003cd4       $N00021                    000000018004fcd4     CTM_PID_withoutG_cgxe.exp
 0002:00003ced       $N00022                    000000018004fced     CTM_PID_withoutG_cgxe.exp
 0002:00003cfd       $N00023                    000000018004fcfd     CTM_PID_withoutG_cgxe.exp
 0002:00003d09       $N00024                    000000018004fd09     CTM_PID_withoutG_cgxe.exp
 0002:000044a8       .idata$6                   00000001800504a8     libmx:libmx.dll
 0002:0000450c       .idata$6                   000000018005050c     libmex:libmex.dll
 0002:000045c0       .idata$6                   00000001800505c0     libmwmathutil:libmwmathutil.dll
 0002:0000474e       .idata$6                   000000018005074e     libemlrt:libemlrt.dll
 0002:00004822       .idata$6                   0000000180050822     libmwcgxert:libmwcgxert.dll
 0002:0000483a       .idata$6                   000000018005083a     libmwblas:libmwblas.dll
 0002:00004c74       .idata$6                   0000000180050c74     msvcprt:MSVCP140.dll
 0002:00004e0e       .idata$6                   0000000180050e0e     kernel32:KERNEL32.dll
 0002:00004f04       .idata$6                   0000000180050f04     vcruntime:VCRUNTIME140.dll
 0002:00004f16       .idata$6                   0000000180050f16     vcruntime:VCRUNTIME140_1.dll
 0002:000050f8       .idata$6                   00000001800510f8     ucrt:api-ms-win-crt-heap-l1-1-0.dll
 0002:00005118       .idata$6                   0000000180051118     ucrt:api-ms-win-crt-string-l1-1-0.dll
 0002:0000513a       .idata$6                   000000018005113a     ucrt:api-ms-win-crt-stdio-l1-1-0.dll
 0002:0000515a       .idata$6                   000000018005115a     ucrt:api-ms-win-crt-math-l1-1-0.dll
 0002:0000517a       .idata$6                   000000018005117a     ucrt:api-ms-win-crt-utility-l1-1-0.dll
 0002:0000519c       .idata$6                   000000018005119c     ucrt:api-ms-win-crt-runtime-l1-1-0.dll
 0003:00000000       $SG26123                   0000000180052000     m_FAU8KyrDQYUp9atreb3T4G.obj
 0003:00000010       $SG26124                   0000000180052010     m_FAU8KyrDQYUp9atreb3T4G.obj
 0003:00000094       $SG26126                   0000000180052094     m_FAU8KyrDQYUp9atreb3T4G.obj
 0003:000000a0       $SG26127                   00000001800520a0     m_FAU8KyrDQYUp9atreb3T4G.obj
 0003:000000fc       $SG26297                   00000001800520fc     m_FAU8KyrDQYUp9atreb3T4G.obj
 0003:00000100       $SG26129                   0000000180052100     m_FAU8KyrDQYUp9atreb3T4G.obj
 0003:00000110       $SG26130                   0000000180052110     m_FAU8KyrDQYUp9atreb3T4G.obj
 0003:00000170       $SG26132                   0000000180052170     m_FAU8KyrDQYUp9atreb3T4G.obj
 0003:00000180       $SG26133                   0000000180052180     m_FAU8KyrDQYUp9atreb3T4G.obj
 0003:000001e0       $SG26141                   00000001800521e0     m_FAU8KyrDQYUp9atreb3T4G.obj
 0003:000001f0       $SG26142                   00000001800521f0     m_FAU8KyrDQYUp9atreb3T4G.obj
 0003:00000274       $SG26228                   0000000180052274     m_FAU8KyrDQYUp9atreb3T4G.obj
 0003:0000027c       $SG26676                   000000018005227c     m_FAU8KyrDQYUp9atreb3T4G.obj
 0003:00000280       $SG26144                   0000000180052280     m_FAU8KyrDQYUp9atreb3T4G.obj
 0003:00000290       $SG26145                   0000000180052290     m_FAU8KyrDQYUp9atreb3T4G.obj
 0003:000002f8       $SG26147                   00000001800522f8     m_FAU8KyrDQYUp9atreb3T4G.obj
 0003:00000308       $SG26171                   0000000180052308     m_FAU8KyrDQYUp9atreb3T4G.obj
 0003:00000318       $SG26198                   0000000180052318     m_FAU8KyrDQYUp9atreb3T4G.obj
 0003:00000328       $SG26201                   0000000180052328     m_FAU8KyrDQYUp9atreb3T4G.obj
 0003:00000340       $SG26148                   0000000180052340     m_FAU8KyrDQYUp9atreb3T4G.obj
 0003:000003a8       $SG26150                   00000001800523a8     m_FAU8KyrDQYUp9atreb3T4G.obj
 0003:000003b8       $SG26174                   00000001800523b8     m_FAU8KyrDQYUp9atreb3T4G.obj
 0003:000003c8       $SG26204                   00000001800523c8     m_FAU8KyrDQYUp9atreb3T4G.obj
 0003:000003e0       $SG26151                   00000001800523e0     m_FAU8KyrDQYUp9atreb3T4G.obj
 0003:00000448       $SG26153                   0000000180052448     m_FAU8KyrDQYUp9atreb3T4G.obj
 0003:00000458       $SG26207                   0000000180052458     m_FAU8KyrDQYUp9atreb3T4G.obj
 0003:00000470       $SG26154                   0000000180052470     m_FAU8KyrDQYUp9atreb3T4G.obj
 0003:000004d8       $SG26156                   00000001800524d8     m_FAU8KyrDQYUp9atreb3T4G.obj
 0003:000004e8       $SG26210                   00000001800524e8     m_FAU8KyrDQYUp9atreb3T4G.obj
 0003:00000500       $SG26157                   0000000180052500     m_FAU8KyrDQYUp9atreb3T4G.obj
 0003:00000568       $SG26159                   0000000180052568     m_FAU8KyrDQYUp9atreb3T4G.obj
 0003:00000578       $SG26213                   0000000180052578     m_FAU8KyrDQYUp9atreb3T4G.obj
 0003:00000590       $SG26160                   0000000180052590     m_FAU8KyrDQYUp9atreb3T4G.obj
 0003:000005f8       $SG26162                   00000001800525f8     m_FAU8KyrDQYUp9atreb3T4G.obj
 0003:00000608       $SG26177                   0000000180052608     m_FAU8KyrDQYUp9atreb3T4G.obj
 0003:00000618       $SG26216                   0000000180052618     m_FAU8KyrDQYUp9atreb3T4G.obj
 0003:00000630       $SG26163                   0000000180052630     m_FAU8KyrDQYUp9atreb3T4G.obj
 0003:00000698       $SG26165                   0000000180052698     m_FAU8KyrDQYUp9atreb3T4G.obj
 0003:000006a8       $SG26180                   00000001800526a8     m_FAU8KyrDQYUp9atreb3T4G.obj
 0003:000006b8       $SG26219                   00000001800526b8     m_FAU8KyrDQYUp9atreb3T4G.obj
 0003:000006d0       $SG26166                   00000001800526d0     m_FAU8KyrDQYUp9atreb3T4G.obj
 0003:00000738       $SG26168                   0000000180052738     m_FAU8KyrDQYUp9atreb3T4G.obj
 0003:00000744       $SG26222                   0000000180052744     m_FAU8KyrDQYUp9atreb3T4G.obj
 0003:00000750       $SG26169                   0000000180052750     m_FAU8KyrDQYUp9atreb3T4G.obj
 0003:000007b8       $SG26225                   00000001800527b8     m_FAU8KyrDQYUp9atreb3T4G.obj
 0003:000007d0       $SG26172                   00000001800527d0     m_FAU8KyrDQYUp9atreb3T4G.obj
 0003:00000820       $SG26175                   0000000180052820     m_FAU8KyrDQYUp9atreb3T4G.obj
 0003:00000890       $SG26178                   0000000180052890     m_FAU8KyrDQYUp9atreb3T4G.obj
 0003:000008f8       $SG26234                   00000001800528f8     m_FAU8KyrDQYUp9atreb3T4G.obj
 0003:00000908       $SG26258                   0000000180052908     m_FAU8KyrDQYUp9atreb3T4G.obj
 0003:00000920       $SG26181                   0000000180052920     m_FAU8KyrDQYUp9atreb3T4G.obj
 0003:00000988       $SG26183                   0000000180052988     m_FAU8KyrDQYUp9atreb3T4G.obj
 0003:00000998       $SG26237                   0000000180052998     m_FAU8KyrDQYUp9atreb3T4G.obj
 0003:000009a8       $SG26264                   00000001800529a8     m_FAU8KyrDQYUp9atreb3T4G.obj
 0003:000009c0       $SG26184                   00000001800529c0     m_FAU8KyrDQYUp9atreb3T4G.obj
 0003:00000a28       $SG26186                   0000000180052a28     m_FAU8KyrDQYUp9atreb3T4G.obj
 0003:00000a38       $SG26240                   0000000180052a38     m_FAU8KyrDQYUp9atreb3T4G.obj
 0003:00000a48       $SG26267                   0000000180052a48     m_FAU8KyrDQYUp9atreb3T4G.obj
 0003:00000a60       $SG26187                   0000000180052a60     m_FAU8KyrDQYUp9atreb3T4G.obj
 0003:00000ac8       $SG26189                   0000000180052ac8     m_FAU8KyrDQYUp9atreb3T4G.obj
 0003:00000ad8       $SG26243                   0000000180052ad8     m_FAU8KyrDQYUp9atreb3T4G.obj
 0003:00000ae8       $SG26270                   0000000180052ae8     m_FAU8KyrDQYUp9atreb3T4G.obj
 0003:00000af0       $SG26190                   0000000180052af0     m_FAU8KyrDQYUp9atreb3T4G.obj
 0003:00000b58       $SG26246                   0000000180052b58     m_FAU8KyrDQYUp9atreb3T4G.obj
 0003:00000b64       $SG26276                   0000000180052b64     m_FAU8KyrDQYUp9atreb3T4G.obj
 0003:00000b70       $SG26199                   0000000180052b70     m_FAU8KyrDQYUp9atreb3T4G.obj
 0003:00000bf8       $SG26231                   0000000180052bf8     m_FAU8KyrDQYUp9atreb3T4G.obj
 0003:00000c08       $SG26249                   0000000180052c08     m_FAU8KyrDQYUp9atreb3T4G.obj
 0003:00000c14       $SG26291                   0000000180052c14     m_FAU8KyrDQYUp9atreb3T4G.obj
 0003:00000c20       $SG26202                   0000000180052c20     m_FAU8KyrDQYUp9atreb3T4G.obj
 0003:00000c90       $SG26205                   0000000180052c90     m_FAU8KyrDQYUp9atreb3T4G.obj
 0003:00000d00       $SG26208                   0000000180052d00     m_FAU8KyrDQYUp9atreb3T4G.obj
 0003:00000d70       $SG26211                   0000000180052d70     m_FAU8KyrDQYUp9atreb3T4G.obj
 0003:00000de0       $SG26214                   0000000180052de0     m_FAU8KyrDQYUp9atreb3T4G.obj
 0003:00000e50       $SG26217                   0000000180052e50     m_FAU8KyrDQYUp9atreb3T4G.obj
 0003:00000ec0       $SG26220                   0000000180052ec0     m_FAU8KyrDQYUp9atreb3T4G.obj
 0003:00000f30       $SG26223                   0000000180052f30     m_FAU8KyrDQYUp9atreb3T4G.obj
 0003:00000f78       $SG26255                   0000000180052f78     m_FAU8KyrDQYUp9atreb3T4G.obj
 0003:00000f88       $SG26273                   0000000180052f88     m_FAU8KyrDQYUp9atreb3T4G.obj
 0003:00000f98       $SG26279                   0000000180052f98     m_FAU8KyrDQYUp9atreb3T4G.obj
 0003:00000fb0       $SG26226                   0000000180052fb0     m_FAU8KyrDQYUp9atreb3T4G.obj
 0003:00001000       $SG26229                   0000000180053000     m_FAU8KyrDQYUp9atreb3T4G.obj
 0003:00001048       $SG26252                   0000000180053048     m_FAU8KyrDQYUp9atreb3T4G.obj
 0003:00001058       $SG26261                   0000000180053058     m_FAU8KyrDQYUp9atreb3T4G.obj
 0003:00001064       $SG26294                   0000000180053064     m_FAU8KyrDQYUp9atreb3T4G.obj
 0003:00001070       $SG26232                   0000000180053070     m_FAU8KyrDQYUp9atreb3T4G.obj
 0003:000010d8       $SG26282                   00000001800530d8     m_FAU8KyrDQYUp9atreb3T4G.obj
 0003:000010e8       $SG26285                   00000001800530e8     m_FAU8KyrDQYUp9atreb3T4G.obj
 0003:00001100       $SG26235                   0000000180053100     m_FAU8KyrDQYUp9atreb3T4G.obj
 0003:00001150       $SG26238                   0000000180053150     m_FAU8KyrDQYUp9atreb3T4G.obj
 0003:000011a0       $SG26241                   00000001800531a0     m_FAU8KyrDQYUp9atreb3T4G.obj
 0003:000011f0       $SG26244                   00000001800531f0     m_FAU8KyrDQYUp9atreb3T4G.obj
 0003:00001240       $SG26247                   0000000180053240     m_FAU8KyrDQYUp9atreb3T4G.obj
 0003:00001290       $SG26250                   0000000180053290     m_FAU8KyrDQYUp9atreb3T4G.obj
 0003:000012f4       $SG26312                   00000001800532f4     m_FAU8KyrDQYUp9atreb3T4G.obj
 0003:00001300       $SG26253                   0000000180053300     m_FAU8KyrDQYUp9atreb3T4G.obj
 0003:00001368       $SG26300                   0000000180053368     m_FAU8KyrDQYUp9atreb3T4G.obj
 0003:00001378       $SG26303                   0000000180053378     m_FAU8KyrDQYUp9atreb3T4G.obj
 0003:00001390       $SG26256                   0000000180053390     m_FAU8KyrDQYUp9atreb3T4G.obj
 0003:000013f8       $SG26306                   00000001800533f8     m_FAU8KyrDQYUp9atreb3T4G.obj
 0003:00001410       $SG26259                   0000000180053410     m_FAU8KyrDQYUp9atreb3T4G.obj
 0003:00001460       $SG26262                   0000000180053460     m_FAU8KyrDQYUp9atreb3T4G.obj
 0003:000014b0       $SG26265                   00000001800534b0     m_FAU8KyrDQYUp9atreb3T4G.obj
 0003:00001530       $SG26268                   0000000180053530     m_FAU8KyrDQYUp9atreb3T4G.obj
 0003:00001580       $SG26271                   0000000180053580     m_FAU8KyrDQYUp9atreb3T4G.obj
 0003:000015c8       $SG26309                   00000001800535c8     m_FAU8KyrDQYUp9atreb3T4G.obj
 0003:000015d8       $SG26331                   00000001800535d8     m_FAU8KyrDQYUp9atreb3T4G.obj
 0003:000015f0       $SG26274                   00000001800535f0     m_FAU8KyrDQYUp9atreb3T4G.obj
 0003:00001648       $SG26288                   0000000180053648     m_FAU8KyrDQYUp9atreb3T4G.obj
 0003:00001658       $SG26315                   0000000180053658     m_FAU8KyrDQYUp9atreb3T4G.obj
 0003:00001668       $SG26328                   0000000180053668     m_FAU8KyrDQYUp9atreb3T4G.obj
 0003:00001678       $SG26334                   0000000180053678     m_FAU8KyrDQYUp9atreb3T4G.obj
 0003:00001690       $SG26277                   0000000180053690     m_FAU8KyrDQYUp9atreb3T4G.obj
 0003:000016d8       $SG26319                   00000001800536d8     m_FAU8KyrDQYUp9atreb3T4G.obj
 0003:000016e8       $SG26337                   00000001800536e8     m_FAU8KyrDQYUp9atreb3T4G.obj
 0003:00001700       $SG26280                   0000000180053700     m_FAU8KyrDQYUp9atreb3T4G.obj
 0003:00001758       $SG26340                   0000000180053758     m_FAU8KyrDQYUp9atreb3T4G.obj
 0003:00001770       $SG26283                   0000000180053770     m_FAU8KyrDQYUp9atreb3T4G.obj
 0003:000017d8       $SG26343                   00000001800537d8     m_FAU8KyrDQYUp9atreb3T4G.obj
 0003:000017f0       $SG26286                   00000001800537f0     m_FAU8KyrDQYUp9atreb3T4G.obj
 0003:00001860       $SG26289                   0000000180053860     m_FAU8KyrDQYUp9atreb3T4G.obj
 0003:000018c0       $SG26292                   00000001800538c0     m_FAU8KyrDQYUp9atreb3T4G.obj
 0003:00001920       $SG26295                   0000000180053920     m_FAU8KyrDQYUp9atreb3T4G.obj
 0003:00001968       $SG26322                   0000000180053968     m_FAU8KyrDQYUp9atreb3T4G.obj
 0003:00001978       $SG26347                   0000000180053978     m_FAU8KyrDQYUp9atreb3T4G.obj
 0003:00001990       $SG26298                   0000000180053990     m_FAU8KyrDQYUp9atreb3T4G.obj
 0003:000019d8       $SG26350                   00000001800539d8     m_FAU8KyrDQYUp9atreb3T4G.obj
 0003:000019f0       $SG26301                   00000001800539f0     m_FAU8KyrDQYUp9atreb3T4G.obj
 0003:00001a50       $SG26304                   0000000180053a50     m_FAU8KyrDQYUp9atreb3T4G.obj
 0003:00001aa0       $SG26307                   0000000180053aa0     m_FAU8KyrDQYUp9atreb3T4G.obj
 0003:00001af0       $SG26310                   0000000180053af0     m_FAU8KyrDQYUp9atreb3T4G.obj
 0003:00001b48       $SG26325                   0000000180053b48     m_FAU8KyrDQYUp9atreb3T4G.obj
 0003:00001b58       $SG26354                   0000000180053b58     m_FAU8KyrDQYUp9atreb3T4G.obj
 0003:00001b70       $SG26313                   0000000180053b70     m_FAU8KyrDQYUp9atreb3T4G.obj
 0003:00001bb8       $SG26357                   0000000180053bb8     m_FAU8KyrDQYUp9atreb3T4G.obj
 0003:00001bd0       $SG26316                   0000000180053bd0     m_FAU8KyrDQYUp9atreb3T4G.obj
 0003:00001c38       $SG26361                   0000000180053c38     m_FAU8KyrDQYUp9atreb3T4G.obj
 0003:00001c50       $SG26320                   0000000180053c50     m_FAU8KyrDQYUp9atreb3T4G.obj
 0003:00001cb8       $SG26364                   0000000180053cb8     m_FAU8KyrDQYUp9atreb3T4G.obj
 0003:00001cd0       $SG26323                   0000000180053cd0     m_FAU8KyrDQYUp9atreb3T4G.obj
 0003:00001d38       $SG26368                   0000000180053d38     m_FAU8KyrDQYUp9atreb3T4G.obj
 0003:00001d50       $SG26326                   0000000180053d50     m_FAU8KyrDQYUp9atreb3T4G.obj
 0003:00001db8       $SG26372                   0000000180053db8     m_FAU8KyrDQYUp9atreb3T4G.obj
 0003:00001dd0       $SG26329                   0000000180053dd0     m_FAU8KyrDQYUp9atreb3T4G.obj
 0003:00001e58       $SG26375                   0000000180053e58     m_FAU8KyrDQYUp9atreb3T4G.obj
 0003:00001e70       $SG26332                   0000000180053e70     m_FAU8KyrDQYUp9atreb3T4G.obj
 0003:00001ee0       $SG26335                   0000000180053ee0     m_FAU8KyrDQYUp9atreb3T4G.obj
 0003:00001f50       $SG26338                   0000000180053f50     m_FAU8KyrDQYUp9atreb3T4G.obj
 0003:00001fc0       $SG26341                   0000000180053fc0     m_FAU8KyrDQYUp9atreb3T4G.obj
 0003:00002030       $SG26344                   0000000180054030     m_FAU8KyrDQYUp9atreb3T4G.obj
 0003:000020a0       $SG26348                   00000001800540a0     m_FAU8KyrDQYUp9atreb3T4G.obj
 0003:00002110       $SG26351                   0000000180054110     m_FAU8KyrDQYUp9atreb3T4G.obj
 0003:00002180       $SG26355                   0000000180054180     m_FAU8KyrDQYUp9atreb3T4G.obj
 0003:000021f0       $SG26358                   00000001800541f0     m_FAU8KyrDQYUp9atreb3T4G.obj
 0003:00002260       $SG26362                   0000000180054260     m_FAU8KyrDQYUp9atreb3T4G.obj
 0003:000022d0       $SG26365                   00000001800542d0     m_FAU8KyrDQYUp9atreb3T4G.obj
 0003:00002340       $SG26369                   0000000180054340     m_FAU8KyrDQYUp9atreb3T4G.obj
 0003:000023b0       $SG26373                   00000001800543b0     m_FAU8KyrDQYUp9atreb3T4G.obj
 0003:00002420       $SG26376                   0000000180054420     m_FAU8KyrDQYUp9atreb3T4G.obj
 0003:00002490       $SG26378                   0000000180054490     m_FAU8KyrDQYUp9atreb3T4G.obj
 0003:000024a8       $SG26381                   00000001800544a8     m_FAU8KyrDQYUp9atreb3T4G.obj
 0003:000024c0       $SG26379                   00000001800544c0     m_FAU8KyrDQYUp9atreb3T4G.obj
 0003:00002530       $SG26382                   0000000180054530     m_FAU8KyrDQYUp9atreb3T4G.obj
 0003:000025a0       $SG26385                   00000001800545a0     m_FAU8KyrDQYUp9atreb3T4G.obj
 0003:000025b8       $SG26388                   00000001800545b8     m_FAU8KyrDQYUp9atreb3T4G.obj
 0003:000025d0       $SG26386                   00000001800545d0     m_FAU8KyrDQYUp9atreb3T4G.obj
 0003:00002640       $SG26389                   0000000180054640     m_FAU8KyrDQYUp9atreb3T4G.obj
 0003:000026b0       $SG26392                   00000001800546b0     m_FAU8KyrDQYUp9atreb3T4G.obj
 0003:000026c8       $SG26395                   00000001800546c8     m_FAU8KyrDQYUp9atreb3T4G.obj
 0003:000026e0       $SG26393                   00000001800546e0     m_FAU8KyrDQYUp9atreb3T4G.obj
 0003:00002750       $SG26396                   0000000180054750     m_FAU8KyrDQYUp9atreb3T4G.obj
 0003:000027c0       $SG26399                   00000001800547c0     m_FAU8KyrDQYUp9atreb3T4G.obj
 0003:000027d8       $SG26402                   00000001800547d8     m_FAU8KyrDQYUp9atreb3T4G.obj
 0003:000027f0       $SG26400                   00000001800547f0     m_FAU8KyrDQYUp9atreb3T4G.obj
 0003:00002860       $SG26403                   0000000180054860     m_FAU8KyrDQYUp9atreb3T4G.obj
 0003:000028d0       $SG26406                   00000001800548d0     m_FAU8KyrDQYUp9atreb3T4G.obj
 0003:000028e8       $SG26409                   00000001800548e8     m_FAU8KyrDQYUp9atreb3T4G.obj
 0003:00002900       $SG26407                   0000000180054900     m_FAU8KyrDQYUp9atreb3T4G.obj
 0003:00002970       $SG26410                   0000000180054970     m_FAU8KyrDQYUp9atreb3T4G.obj
 0003:000029e0       $SG26413                   00000001800549e0     m_FAU8KyrDQYUp9atreb3T4G.obj
 0003:000029f8       $SG26416                   00000001800549f8     m_FAU8KyrDQYUp9atreb3T4G.obj
 0003:00002a10       $SG26414                   0000000180054a10     m_FAU8KyrDQYUp9atreb3T4G.obj
 0003:00002a80       $SG26417                   0000000180054a80     m_FAU8KyrDQYUp9atreb3T4G.obj
 0003:00002af0       $SG26419                   0000000180054af0     m_FAU8KyrDQYUp9atreb3T4G.obj
 0003:00002b08       $SG26423                   0000000180054b08     m_FAU8KyrDQYUp9atreb3T4G.obj
 0003:00002b20       $SG26420                   0000000180054b20     m_FAU8KyrDQYUp9atreb3T4G.obj
 0003:00002b90       $SG26424                   0000000180054b90     m_FAU8KyrDQYUp9atreb3T4G.obj
 0003:00002c00       $SG26426                   0000000180054c00     m_FAU8KyrDQYUp9atreb3T4G.obj
 0003:00002c18       $SG26430                   0000000180054c18     m_FAU8KyrDQYUp9atreb3T4G.obj
 0003:00002c30       $SG26427                   0000000180054c30     m_FAU8KyrDQYUp9atreb3T4G.obj
 0003:00002ca0       $SG26431                   0000000180054ca0     m_FAU8KyrDQYUp9atreb3T4G.obj
 0003:00002d10       $SG26433                   0000000180054d10     m_FAU8KyrDQYUp9atreb3T4G.obj
 0003:00002d28       $SG26437                   0000000180054d28     m_FAU8KyrDQYUp9atreb3T4G.obj
 0003:00002d40       $SG26434                   0000000180054d40     m_FAU8KyrDQYUp9atreb3T4G.obj
 0003:00002db0       $SG26438                   0000000180054db0     m_FAU8KyrDQYUp9atreb3T4G.obj
 0003:00002e20       $SG26440                   0000000180054e20     m_FAU8KyrDQYUp9atreb3T4G.obj
 0003:00002e38       $SG26444                   0000000180054e38     m_FAU8KyrDQYUp9atreb3T4G.obj
 0003:00002e50       $SG26441                   0000000180054e50     m_FAU8KyrDQYUp9atreb3T4G.obj
 0003:00002ec0       $SG26445                   0000000180054ec0     m_FAU8KyrDQYUp9atreb3T4G.obj
 0003:00002f30       $SG26447                   0000000180054f30     m_FAU8KyrDQYUp9atreb3T4G.obj
 0003:00002f48       $SG26450                   0000000180054f48     m_FAU8KyrDQYUp9atreb3T4G.obj
 0003:00002f60       $SG26448                   0000000180054f60     m_FAU8KyrDQYUp9atreb3T4G.obj
 0003:00002fd0       $SG26451                   0000000180054fd0     m_FAU8KyrDQYUp9atreb3T4G.obj
 0003:00003040       $SG26454                   0000000180055040     m_FAU8KyrDQYUp9atreb3T4G.obj
 0003:00003058       $SG26457                   0000000180055058     m_FAU8KyrDQYUp9atreb3T4G.obj
 0003:00003070       $SG26455                   0000000180055070     m_FAU8KyrDQYUp9atreb3T4G.obj
 0003:000030e0       $SG26458                   00000001800550e0     m_FAU8KyrDQYUp9atreb3T4G.obj
 0003:00003150       $SG26461                   0000000180055150     m_FAU8KyrDQYUp9atreb3T4G.obj
 0003:00003168       $SG26464                   0000000180055168     m_FAU8KyrDQYUp9atreb3T4G.obj
 0003:00003180       $SG26462                   0000000180055180     m_FAU8KyrDQYUp9atreb3T4G.obj
 0003:000031f0       $SG26465                   00000001800551f0     m_FAU8KyrDQYUp9atreb3T4G.obj
 0003:00003260       $SG26468                   0000000180055260     m_FAU8KyrDQYUp9atreb3T4G.obj
 0003:00003278       $SG26471                   0000000180055278     m_FAU8KyrDQYUp9atreb3T4G.obj
 0003:00003290       $SG26469                   0000000180055290     m_FAU8KyrDQYUp9atreb3T4G.obj
 0003:00003300       $SG26472                   0000000180055300     m_FAU8KyrDQYUp9atreb3T4G.obj
 0003:00003370       $SG26475                   0000000180055370     m_FAU8KyrDQYUp9atreb3T4G.obj
 0003:00003388       $SG26478                   0000000180055388     m_FAU8KyrDQYUp9atreb3T4G.obj
 0003:000033a0       $SG26476                   00000001800553a0     m_FAU8KyrDQYUp9atreb3T4G.obj
 0003:00003410       $SG26479                   0000000180055410     m_FAU8KyrDQYUp9atreb3T4G.obj
 0003:00003480       $SG26481                   0000000180055480     m_FAU8KyrDQYUp9atreb3T4G.obj
 0003:00003498       $SG26485                   0000000180055498     m_FAU8KyrDQYUp9atreb3T4G.obj
 0003:000034b0       $SG26482                   00000001800554b0     m_FAU8KyrDQYUp9atreb3T4G.obj
 0003:00003520       $SG26486                   0000000180055520     m_FAU8KyrDQYUp9atreb3T4G.obj
 0003:00003590       $SG26488                   0000000180055590     m_FAU8KyrDQYUp9atreb3T4G.obj
 0003:000035a8       $SG26492                   00000001800555a8     m_FAU8KyrDQYUp9atreb3T4G.obj
 0003:000035c0       $SG26489                   00000001800555c0     m_FAU8KyrDQYUp9atreb3T4G.obj
 0003:00003630       $SG26493                   0000000180055630     m_FAU8KyrDQYUp9atreb3T4G.obj
 0003:000036a0       $SG26495                   00000001800556a0     m_FAU8KyrDQYUp9atreb3T4G.obj
 0003:000036b8       $SG26499                   00000001800556b8     m_FAU8KyrDQYUp9atreb3T4G.obj
 0003:000036d0       $SG26496                   00000001800556d0     m_FAU8KyrDQYUp9atreb3T4G.obj
 0003:00003740       $SG26500                   0000000180055740     m_FAU8KyrDQYUp9atreb3T4G.obj
 0003:000037b0       $SG26503                   00000001800557b0     m_FAU8KyrDQYUp9atreb3T4G.obj
 0003:000037c8       $SG26507                   00000001800557c8     m_FAU8KyrDQYUp9atreb3T4G.obj
 0003:000037e0       $SG26504                   00000001800557e0     m_FAU8KyrDQYUp9atreb3T4G.obj
 0003:00003850       $SG26508                   0000000180055850     m_FAU8KyrDQYUp9atreb3T4G.obj
 0003:000038c0       $SG26511                   00000001800558c0     m_FAU8KyrDQYUp9atreb3T4G.obj
 0003:000038d8       $SG26515                   00000001800558d8     m_FAU8KyrDQYUp9atreb3T4G.obj
 0003:000038f0       $SG26512                   00000001800558f0     m_FAU8KyrDQYUp9atreb3T4G.obj
 0003:00003960       $SG26516                   0000000180055960     m_FAU8KyrDQYUp9atreb3T4G.obj
 0003:000039d0       $SG26519                   00000001800559d0     m_FAU8KyrDQYUp9atreb3T4G.obj
 0003:000039e8       $SG26522                   00000001800559e8     m_FAU8KyrDQYUp9atreb3T4G.obj
 0003:00003a00       $SG26520                   0000000180055a00     m_FAU8KyrDQYUp9atreb3T4G.obj
 0003:00003a70       $SG26523                   0000000180055a70     m_FAU8KyrDQYUp9atreb3T4G.obj
 0003:00003ae0       $SG26525                   0000000180055ae0     m_FAU8KyrDQYUp9atreb3T4G.obj
 0003:00003af8       $SG26528                   0000000180055af8     m_FAU8KyrDQYUp9atreb3T4G.obj
 0003:00003b10       $SG26526                   0000000180055b10     m_FAU8KyrDQYUp9atreb3T4G.obj
 0003:00003b80       $SG26529                   0000000180055b80     m_FAU8KyrDQYUp9atreb3T4G.obj
 0003:00003bf0       $SG26531                   0000000180055bf0     m_FAU8KyrDQYUp9atreb3T4G.obj
 0003:00003c08       $SG26534                   0000000180055c08     m_FAU8KyrDQYUp9atreb3T4G.obj
 0003:00003c20       $SG26532                   0000000180055c20     m_FAU8KyrDQYUp9atreb3T4G.obj
 0003:00003c90       $SG26535                   0000000180055c90     m_FAU8KyrDQYUp9atreb3T4G.obj
 0003:00003d00       $SG26537                   0000000180055d00     m_FAU8KyrDQYUp9atreb3T4G.obj
 0003:00003d18       $SG26540                   0000000180055d18     m_FAU8KyrDQYUp9atreb3T4G.obj
 0003:00003d30       $SG26538                   0000000180055d30     m_FAU8KyrDQYUp9atreb3T4G.obj
 0003:00003da0       $SG26541                   0000000180055da0     m_FAU8KyrDQYUp9atreb3T4G.obj
 0003:00003e10       $SG26543                   0000000180055e10     m_FAU8KyrDQYUp9atreb3T4G.obj
 0003:00003e28       $SG26547                   0000000180055e28     m_FAU8KyrDQYUp9atreb3T4G.obj
 0003:00003e40       $SG26544                   0000000180055e40     m_FAU8KyrDQYUp9atreb3T4G.obj
 0003:00003eb0       $SG26548                   0000000180055eb0     m_FAU8KyrDQYUp9atreb3T4G.obj
 0003:00003f20       $SG26551                   0000000180055f20     m_FAU8KyrDQYUp9atreb3T4G.obj
 0003:00003f38       $SG26554                   0000000180055f38     m_FAU8KyrDQYUp9atreb3T4G.obj
 0003:00003f50       $SG26552                   0000000180055f50     m_FAU8KyrDQYUp9atreb3T4G.obj
 0003:00003fc0       $SG26555                   0000000180055fc0     m_FAU8KyrDQYUp9atreb3T4G.obj
 0003:00004030       $SG26558                   0000000180056030     m_FAU8KyrDQYUp9atreb3T4G.obj
 0003:00004048       $SG26562                   0000000180056048     m_FAU8KyrDQYUp9atreb3T4G.obj
 0003:00004060       $SG26559                   0000000180056060     m_FAU8KyrDQYUp9atreb3T4G.obj
 0003:000040d0       $SG26563                   00000001800560d0     m_FAU8KyrDQYUp9atreb3T4G.obj
 0003:00004140       $SG26565                   0000000180056140     m_FAU8KyrDQYUp9atreb3T4G.obj
 0003:00004158       $SG26569                   0000000180056158     m_FAU8KyrDQYUp9atreb3T4G.obj
 0003:00004170       $SG26566                   0000000180056170     m_FAU8KyrDQYUp9atreb3T4G.obj
 0003:000041e0       $SG26570                   00000001800561e0     m_FAU8KyrDQYUp9atreb3T4G.obj
 0003:00004250       $SG26572                   0000000180056250     m_FAU8KyrDQYUp9atreb3T4G.obj
 0003:00004268       $SG26576                   0000000180056268     m_FAU8KyrDQYUp9atreb3T4G.obj
 0003:00004280       $SG26573                   0000000180056280     m_FAU8KyrDQYUp9atreb3T4G.obj
 0003:000042f0       $SG26577                   00000001800562f0     m_FAU8KyrDQYUp9atreb3T4G.obj
 0003:00004360       $SG26580                   0000000180056360     m_FAU8KyrDQYUp9atreb3T4G.obj
 0003:00004378       $SG26584                   0000000180056378     m_FAU8KyrDQYUp9atreb3T4G.obj
 0003:00004390       $SG26581                   0000000180056390     m_FAU8KyrDQYUp9atreb3T4G.obj
 0003:00004400       $SG26585                   0000000180056400     m_FAU8KyrDQYUp9atreb3T4G.obj
 0003:00004470       $SG26587                   0000000180056470     m_FAU8KyrDQYUp9atreb3T4G.obj
 0003:00004488       $SG26591                   0000000180056488     m_FAU8KyrDQYUp9atreb3T4G.obj
 0003:000044a0       $SG26588                   00000001800564a0     m_FAU8KyrDQYUp9atreb3T4G.obj
 0003:00004510       $SG26592                   0000000180056510     m_FAU8KyrDQYUp9atreb3T4G.obj
 0003:00004580       $SG26595                   0000000180056580     m_FAU8KyrDQYUp9atreb3T4G.obj
 0003:00004598       $SG26598                   0000000180056598     m_FAU8KyrDQYUp9atreb3T4G.obj
 0003:000045b0       $SG26596                   00000001800565b0     m_FAU8KyrDQYUp9atreb3T4G.obj
 0003:00004620       $SG26599                   0000000180056620     m_FAU8KyrDQYUp9atreb3T4G.obj
 0003:00004690       $SG26602                   0000000180056690     m_FAU8KyrDQYUp9atreb3T4G.obj
 0003:000046a8       $SG26606                   00000001800566a8     m_FAU8KyrDQYUp9atreb3T4G.obj
 0003:000046c0       $SG26603                   00000001800566c0     m_FAU8KyrDQYUp9atreb3T4G.obj
 0003:00004730       $SG26607                   0000000180056730     m_FAU8KyrDQYUp9atreb3T4G.obj
 0003:000047a0       $SG26610                   00000001800567a0     m_FAU8KyrDQYUp9atreb3T4G.obj
 0003:000047b8       $SG26614                   00000001800567b8     m_FAU8KyrDQYUp9atreb3T4G.obj
 0003:000047d0       $SG26611                   00000001800567d0     m_FAU8KyrDQYUp9atreb3T4G.obj
 0003:00004840       $SG26615                   0000000180056840     m_FAU8KyrDQYUp9atreb3T4G.obj
 0003:000048b0       $SG26617                   00000001800568b0     m_FAU8KyrDQYUp9atreb3T4G.obj
 0003:000048c8       $SG26621                   00000001800568c8     m_FAU8KyrDQYUp9atreb3T4G.obj
 0003:000048e0       $SG26618                   00000001800568e0     m_FAU8KyrDQYUp9atreb3T4G.obj
 0003:00004950       $SG26622                   0000000180056950     m_FAU8KyrDQYUp9atreb3T4G.obj
 0003:000049c0       $SG26625                   00000001800569c0     m_FAU8KyrDQYUp9atreb3T4G.obj
 0003:000049d8       $SG26628                   00000001800569d8     m_FAU8KyrDQYUp9atreb3T4G.obj
 0003:000049f0       $SG26626                   00000001800569f0     m_FAU8KyrDQYUp9atreb3T4G.obj
 0003:00004a60       $SG26629                   0000000180056a60     m_FAU8KyrDQYUp9atreb3T4G.obj
 0003:00004ad0       $SG26632                   0000000180056ad0     m_FAU8KyrDQYUp9atreb3T4G.obj
 0003:00004ae8       $SG26635                   0000000180056ae8     m_FAU8KyrDQYUp9atreb3T4G.obj
 0003:00004b00       $SG26633                   0000000180056b00     m_FAU8KyrDQYUp9atreb3T4G.obj
 0003:00004b70       $SG26636                   0000000180056b70     m_FAU8KyrDQYUp9atreb3T4G.obj
 0003:00004be0       $SG26639                   0000000180056be0     m_FAU8KyrDQYUp9atreb3T4G.obj
 0003:00004bf8       $SG26642                   0000000180056bf8     m_FAU8KyrDQYUp9atreb3T4G.obj
 0003:00004c10       $SG26640                   0000000180056c10     m_FAU8KyrDQYUp9atreb3T4G.obj
 0003:00004c80       $SG26643                   0000000180056c80     m_FAU8KyrDQYUp9atreb3T4G.obj
 0003:00004cf0       $SG26646                   0000000180056cf0     m_FAU8KyrDQYUp9atreb3T4G.obj
 0003:00004d08       $SG26664                   0000000180056d08     m_FAU8KyrDQYUp9atreb3T4G.obj
 0003:00004d10       $SG26647                   0000000180056d10     m_FAU8KyrDQYUp9atreb3T4G.obj
 0003:00004d80       $SG26650                   0000000180056d80     m_FAU8KyrDQYUp9atreb3T4G.obj
 0003:00004d90       $SG26651                   0000000180056d90     m_FAU8KyrDQYUp9atreb3T4G.obj
 0003:00004df8       $SG26653                   0000000180056df8     m_FAU8KyrDQYUp9atreb3T4G.obj
 0003:00004e08       $SG26667                   0000000180056e08     m_FAU8KyrDQYUp9atreb3T4G.obj
 0003:00004e10       $SG26654                   0000000180056e10     m_FAU8KyrDQYUp9atreb3T4G.obj
 0003:00004e78       $SG26657                   0000000180056e78     m_FAU8KyrDQYUp9atreb3T4G.obj
 0003:00004e88       $SG26670                   0000000180056e88     m_FAU8KyrDQYUp9atreb3T4G.obj
 0003:00004e90       $SG26658                   0000000180056e90     m_FAU8KyrDQYUp9atreb3T4G.obj
 0003:00004ef8       $SG26661                   0000000180056ef8     m_FAU8KyrDQYUp9atreb3T4G.obj
 0003:00004f08       $SG26673                   0000000180056f08     m_FAU8KyrDQYUp9atreb3T4G.obj
 0003:00004f18       $SG26679                   0000000180056f18     m_FAU8KyrDQYUp9atreb3T4G.obj
 0003:00004f30       $SG26662                   0000000180056f30     m_FAU8KyrDQYUp9atreb3T4G.obj
 0003:00004f98       $SG26682                   0000000180056f98     m_FAU8KyrDQYUp9atreb3T4G.obj
 0003:00004fb0       $SG26665                   0000000180056fb0     m_FAU8KyrDQYUp9atreb3T4G.obj
 0003:00005000       $SG26668                   0000000180057000     m_FAU8KyrDQYUp9atreb3T4G.obj
 0003:00005060       $SG26671                   0000000180057060     m_FAU8KyrDQYUp9atreb3T4G.obj
 0003:000050b0       $SG26674                   00000001800570b0     m_FAU8KyrDQYUp9atreb3T4G.obj
 0003:00005110       $SG26677                   0000000180057110     m_FAU8KyrDQYUp9atreb3T4G.obj
 0003:00005160       $SG26680                   0000000180057160     m_FAU8KyrDQYUp9atreb3T4G.obj
 0003:000051b0       $SG26683                   00000001800571b0     m_FAU8KyrDQYUp9atreb3T4G.obj
 0003:00005200       emlrtRSI                   0000000180057200     m_FAU8KyrDQYUp9atreb3T4G.obj
 0003:00005218       b_emlrtRSI                 0000000180057218     m_FAU8KyrDQYUp9atreb3T4G.obj
 0003:00005230       c_emlrtRSI                 0000000180057230     m_FAU8KyrDQYUp9atreb3T4G.obj
 0003:00005248       d_emlrtRSI                 0000000180057248     m_FAU8KyrDQYUp9atreb3T4G.obj
 0003:00005260       e_emlrtRSI                 0000000180057260     m_FAU8KyrDQYUp9atreb3T4G.obj
 0003:00005278       f_emlrtRSI                 0000000180057278     m_FAU8KyrDQYUp9atreb3T4G.obj
 0003:00005290       g_emlrtRSI                 0000000180057290     m_FAU8KyrDQYUp9atreb3T4G.obj
 0003:000052a8       h_emlrtRSI                 00000001800572a8     m_FAU8KyrDQYUp9atreb3T4G.obj
 0003:000052c0       i_emlrtRSI                 00000001800572c0     m_FAU8KyrDQYUp9atreb3T4G.obj
 0003:000052d8       j_emlrtRSI                 00000001800572d8     m_FAU8KyrDQYUp9atreb3T4G.obj
 0003:000052f0       k_emlrtRSI                 00000001800572f0     m_FAU8KyrDQYUp9atreb3T4G.obj
 0003:00005308       l_emlrtRSI                 0000000180057308     m_FAU8KyrDQYUp9atreb3T4G.obj
 0003:00005320       m_emlrtRSI                 0000000180057320     m_FAU8KyrDQYUp9atreb3T4G.obj
 0003:00005338       n_emlrtRSI                 0000000180057338     m_FAU8KyrDQYUp9atreb3T4G.obj
 0003:00005350       o_emlrtRSI                 0000000180057350     m_FAU8KyrDQYUp9atreb3T4G.obj
 0003:00005368       p_emlrtRSI                 0000000180057368     m_FAU8KyrDQYUp9atreb3T4G.obj
 0003:00005380       q_emlrtRSI                 0000000180057380     m_FAU8KyrDQYUp9atreb3T4G.obj
 0003:00005398       r_emlrtRSI                 0000000180057398     m_FAU8KyrDQYUp9atreb3T4G.obj
 0003:000053b0       s_emlrtRSI                 00000001800573b0     m_FAU8KyrDQYUp9atreb3T4G.obj
 0003:000053c8       t_emlrtRSI                 00000001800573c8     m_FAU8KyrDQYUp9atreb3T4G.obj
 0003:000053e0       u_emlrtRSI                 00000001800573e0     m_FAU8KyrDQYUp9atreb3T4G.obj
 0003:000053f8       v_emlrtRSI                 00000001800573f8     m_FAU8KyrDQYUp9atreb3T4G.obj
 0003:00005410       w_emlrtRSI                 0000000180057410     m_FAU8KyrDQYUp9atreb3T4G.obj
 0003:00005428       x_emlrtRSI                 0000000180057428     m_FAU8KyrDQYUp9atreb3T4G.obj
 0003:00005440       y_emlrtRSI                 0000000180057440     m_FAU8KyrDQYUp9atreb3T4G.obj
 0003:00005458       ab_emlrtRSI                0000000180057458     m_FAU8KyrDQYUp9atreb3T4G.obj
 0003:00005470       bb_emlrtRSI                0000000180057470     m_FAU8KyrDQYUp9atreb3T4G.obj
 0003:00005488       cb_emlrtRSI                0000000180057488     m_FAU8KyrDQYUp9atreb3T4G.obj
 0003:000054a0       db_emlrtRSI                00000001800574a0     m_FAU8KyrDQYUp9atreb3T4G.obj
 0003:000054b8       eb_emlrtRSI                00000001800574b8     m_FAU8KyrDQYUp9atreb3T4G.obj
 0003:000054d0       fb_emlrtRSI                00000001800574d0     m_FAU8KyrDQYUp9atreb3T4G.obj
 0003:000054e8       gb_emlrtRSI                00000001800574e8     m_FAU8KyrDQYUp9atreb3T4G.obj
 0003:00005500       hb_emlrtRSI                0000000180057500     m_FAU8KyrDQYUp9atreb3T4G.obj
 0003:00005518       ib_emlrtRSI                0000000180057518     m_FAU8KyrDQYUp9atreb3T4G.obj
 0003:00005530       jb_emlrtRSI                0000000180057530     m_FAU8KyrDQYUp9atreb3T4G.obj
 0003:00005548       kb_emlrtRSI                0000000180057548     m_FAU8KyrDQYUp9atreb3T4G.obj
 0003:00005560       lb_emlrtRSI                0000000180057560     m_FAU8KyrDQYUp9atreb3T4G.obj
 0003:00005578       mb_emlrtRSI                0000000180057578     m_FAU8KyrDQYUp9atreb3T4G.obj
 0003:00005590       nb_emlrtRSI                0000000180057590     m_FAU8KyrDQYUp9atreb3T4G.obj
 0003:000055a8       ob_emlrtRSI                00000001800575a8     m_FAU8KyrDQYUp9atreb3T4G.obj
 0003:000055c0       pb_emlrtRSI                00000001800575c0     m_FAU8KyrDQYUp9atreb3T4G.obj
 0003:000055d8       qb_emlrtRSI                00000001800575d8     m_FAU8KyrDQYUp9atreb3T4G.obj
 0003:000055f0       rb_emlrtRSI                00000001800575f0     m_FAU8KyrDQYUp9atreb3T4G.obj
 0003:00005608       sb_emlrtRSI                0000000180057608     m_FAU8KyrDQYUp9atreb3T4G.obj
 0003:00005620       tb_emlrtRSI                0000000180057620     m_FAU8KyrDQYUp9atreb3T4G.obj
 0003:00005638       ub_emlrtRSI                0000000180057638     m_FAU8KyrDQYUp9atreb3T4G.obj
 0003:00005650       vb_emlrtRSI                0000000180057650     m_FAU8KyrDQYUp9atreb3T4G.obj
 0003:00005668       wb_emlrtRSI                0000000180057668     m_FAU8KyrDQYUp9atreb3T4G.obj
 0003:00005680       xb_emlrtRSI                0000000180057680     m_FAU8KyrDQYUp9atreb3T4G.obj
 0003:00005698       yb_emlrtRSI                0000000180057698     m_FAU8KyrDQYUp9atreb3T4G.obj
 0003:000056b0       ac_emlrtRSI                00000001800576b0     m_FAU8KyrDQYUp9atreb3T4G.obj
 0003:000056c8       bc_emlrtRSI                00000001800576c8     m_FAU8KyrDQYUp9atreb3T4G.obj
 0003:000056e0       cc_emlrtRSI                00000001800576e0     m_FAU8KyrDQYUp9atreb3T4G.obj
 0003:000056f8       dc_emlrtRSI                00000001800576f8     m_FAU8KyrDQYUp9atreb3T4G.obj
 0003:00005710       ec_emlrtRSI                0000000180057710     m_FAU8KyrDQYUp9atreb3T4G.obj
 0003:00005728       emlrtMCI                   0000000180057728     m_FAU8KyrDQYUp9atreb3T4G.obj
 0003:00005740       b_emlrtMCI                 0000000180057740     m_FAU8KyrDQYUp9atreb3T4G.obj
 0003:00005758       c_emlrtMCI                 0000000180057758     m_FAU8KyrDQYUp9atreb3T4G.obj
 0003:00005770       d_emlrtMCI                 0000000180057770     m_FAU8KyrDQYUp9atreb3T4G.obj
 0003:00005788       e_emlrtMCI                 0000000180057788     m_FAU8KyrDQYUp9atreb3T4G.obj
 0003:000057a0       f_emlrtMCI                 00000001800577a0     m_FAU8KyrDQYUp9atreb3T4G.obj
 0003:000057b8       g_emlrtMCI                 00000001800577b8     m_FAU8KyrDQYUp9atreb3T4G.obj
 0003:000057d0       i_emlrtMCI                 00000001800577d0     m_FAU8KyrDQYUp9atreb3T4G.obj
 0003:000057e8       emlrtRTEI                  00000001800577e8     m_FAU8KyrDQYUp9atreb3T4G.obj
 0003:00005800       emlrtBCI                   0000000180057800     m_FAU8KyrDQYUp9atreb3T4G.obj
 0003:00005830       emlrtDCI                   0000000180057830     m_FAU8KyrDQYUp9atreb3T4G.obj
 0003:00005850       b_emlrtDCI                 0000000180057850     m_FAU8KyrDQYUp9atreb3T4G.obj
 0003:00005870       emlrtECI                   0000000180057870     m_FAU8KyrDQYUp9atreb3T4G.obj
 0003:00005890       c_emlrtDCI                 0000000180057890     m_FAU8KyrDQYUp9atreb3T4G.obj
 0003:000058b0       d_emlrtDCI                 00000001800578b0     m_FAU8KyrDQYUp9atreb3T4G.obj
 0003:000058d0       e_emlrtDCI                 00000001800578d0     m_FAU8KyrDQYUp9atreb3T4G.obj
 0003:000058f0       b_emlrtRTEI                00000001800578f0     m_FAU8KyrDQYUp9atreb3T4G.obj
 0003:00005908       f_emlrtDCI                 0000000180057908     m_FAU8KyrDQYUp9atreb3T4G.obj
 0003:00005928       b_emlrtBCI                 0000000180057928     m_FAU8KyrDQYUp9atreb3T4G.obj
 0003:00005958       g_emlrtDCI                 0000000180057958     m_FAU8KyrDQYUp9atreb3T4G.obj
 0003:00005978       c_emlrtBCI                 0000000180057978     m_FAU8KyrDQYUp9atreb3T4G.obj
 0003:000059a8       c_emlrtRTEI                00000001800579a8     m_FAU8KyrDQYUp9atreb3T4G.obj
 0003:000059c0       d_emlrtBCI                 00000001800579c0     m_FAU8KyrDQYUp9atreb3T4G.obj
 0003:000059f0       h_emlrtDCI                 00000001800579f0     m_FAU8KyrDQYUp9atreb3T4G.obj
 0003:00005a10       e_emlrtBCI                 0000000180057a10     m_FAU8KyrDQYUp9atreb3T4G.obj
 0003:00005a40       f_emlrtBCI                 0000000180057a40     m_FAU8KyrDQYUp9atreb3T4G.obj
 0003:00005a70       i_emlrtDCI                 0000000180057a70     m_FAU8KyrDQYUp9atreb3T4G.obj
 0003:00005a90       j_emlrtDCI                 0000000180057a90     m_FAU8KyrDQYUp9atreb3T4G.obj
 0003:00005ab0       k_emlrtDCI                 0000000180057ab0     m_FAU8KyrDQYUp9atreb3T4G.obj
 0003:00005ad0       g_emlrtBCI                 0000000180057ad0     m_FAU8KyrDQYUp9atreb3T4G.obj
 0003:00005b00       l_emlrtDCI                 0000000180057b00     m_FAU8KyrDQYUp9atreb3T4G.obj
 0003:00005b20       h_emlrtBCI                 0000000180057b20     m_FAU8KyrDQYUp9atreb3T4G.obj
 0003:00005b50       m_emlrtDCI                 0000000180057b50     m_FAU8KyrDQYUp9atreb3T4G.obj
 0003:00005b70       i_emlrtBCI                 0000000180057b70     m_FAU8KyrDQYUp9atreb3T4G.obj
 0003:00005ba0       n_emlrtDCI                 0000000180057ba0     m_FAU8KyrDQYUp9atreb3T4G.obj
 0003:00005bc0       j_emlrtBCI                 0000000180057bc0     m_FAU8KyrDQYUp9atreb3T4G.obj
 0003:00005bf0       o_emlrtDCI                 0000000180057bf0     m_FAU8KyrDQYUp9atreb3T4G.obj
 0003:00005c10       k_emlrtBCI                 0000000180057c10     m_FAU8KyrDQYUp9atreb3T4G.obj
 0003:00005c40       b_emlrtECI                 0000000180057c40     m_FAU8KyrDQYUp9atreb3T4G.obj
 0003:00005c60       p_emlrtDCI                 0000000180057c60     m_FAU8KyrDQYUp9atreb3T4G.obj
 0003:00005c80       l_emlrtBCI                 0000000180057c80     m_FAU8KyrDQYUp9atreb3T4G.obj
 0003:00005cb0       q_emlrtDCI                 0000000180057cb0     m_FAU8KyrDQYUp9atreb3T4G.obj
 0003:00005cd0       m_emlrtBCI                 0000000180057cd0     m_FAU8KyrDQYUp9atreb3T4G.obj
 0003:00005d00       r_emlrtDCI                 0000000180057d00     m_FAU8KyrDQYUp9atreb3T4G.obj
 0003:00005d20       n_emlrtBCI                 0000000180057d20     m_FAU8KyrDQYUp9atreb3T4G.obj
 0003:00005d50       s_emlrtDCI                 0000000180057d50     m_FAU8KyrDQYUp9atreb3T4G.obj
 0003:00005d70       o_emlrtBCI                 0000000180057d70     m_FAU8KyrDQYUp9atreb3T4G.obj
 0003:00005da0       c_emlrtECI                 0000000180057da0     m_FAU8KyrDQYUp9atreb3T4G.obj
 0003:00005dc0       t_emlrtDCI                 0000000180057dc0     m_FAU8KyrDQYUp9atreb3T4G.obj
 0003:00005de0       p_emlrtBCI                 0000000180057de0     m_FAU8KyrDQYUp9atreb3T4G.obj
 0003:00005e10       u_emlrtDCI                 0000000180057e10     m_FAU8KyrDQYUp9atreb3T4G.obj
 0003:00005e30       q_emlrtBCI                 0000000180057e30     m_FAU8KyrDQYUp9atreb3T4G.obj
 0003:00005e60       v_emlrtDCI                 0000000180057e60     m_FAU8KyrDQYUp9atreb3T4G.obj
 0003:00005e80       r_emlrtBCI                 0000000180057e80     m_FAU8KyrDQYUp9atreb3T4G.obj
 0003:00005eb0       w_emlrtDCI                 0000000180057eb0     m_FAU8KyrDQYUp9atreb3T4G.obj
 0003:00005ed0       s_emlrtBCI                 0000000180057ed0     m_FAU8KyrDQYUp9atreb3T4G.obj
 0003:00005f00       d_emlrtECI                 0000000180057f00     m_FAU8KyrDQYUp9atreb3T4G.obj
 0003:00005f20       x_emlrtDCI                 0000000180057f20     m_FAU8KyrDQYUp9atreb3T4G.obj
 0003:00005f40       t_emlrtBCI                 0000000180057f40     m_FAU8KyrDQYUp9atreb3T4G.obj
 0003:00005f70       y_emlrtDCI                 0000000180057f70     m_FAU8KyrDQYUp9atreb3T4G.obj
 0003:00005f90       u_emlrtBCI                 0000000180057f90     m_FAU8KyrDQYUp9atreb3T4G.obj
 0003:00005fc0       e_emlrtECI                 0000000180057fc0     m_FAU8KyrDQYUp9atreb3T4G.obj
 0003:00005fe0       v_emlrtBCI                 0000000180057fe0     m_FAU8KyrDQYUp9atreb3T4G.obj
 0003:00006010       w_emlrtBCI                 0000000180058010     m_FAU8KyrDQYUp9atreb3T4G.obj
 0003:00006040       x_emlrtBCI                 0000000180058040     m_FAU8KyrDQYUp9atreb3T4G.obj
 0003:00006070       y_emlrtBCI                 0000000180058070     m_FAU8KyrDQYUp9atreb3T4G.obj
 0003:000060a0       ab_emlrtBCI                00000001800580a0     m_FAU8KyrDQYUp9atreb3T4G.obj
 0003:000060d0       bb_emlrtBCI                00000001800580d0     m_FAU8KyrDQYUp9atreb3T4G.obj
 0003:00006100       ab_emlrtDCI                0000000180058100     m_FAU8KyrDQYUp9atreb3T4G.obj
 0003:00006120       bb_emlrtDCI                0000000180058120     m_FAU8KyrDQYUp9atreb3T4G.obj
 0003:00006140       cb_emlrtDCI                0000000180058140     m_FAU8KyrDQYUp9atreb3T4G.obj
 0003:00006160       db_emlrtDCI                0000000180058160     m_FAU8KyrDQYUp9atreb3T4G.obj
 0003:00006180       eb_emlrtDCI                0000000180058180     m_FAU8KyrDQYUp9atreb3T4G.obj
 0003:000061a0       fb_emlrtDCI                00000001800581a0     m_FAU8KyrDQYUp9atreb3T4G.obj
 0003:000061c0       gb_emlrtDCI                00000001800581c0     m_FAU8KyrDQYUp9atreb3T4G.obj
 0003:000061e0       hb_emlrtDCI                00000001800581e0     m_FAU8KyrDQYUp9atreb3T4G.obj
 0003:00006200       cb_emlrtBCI                0000000180058200     m_FAU8KyrDQYUp9atreb3T4G.obj
 0003:00006230       db_emlrtBCI                0000000180058230     m_FAU8KyrDQYUp9atreb3T4G.obj
 0003:00006260       ib_emlrtDCI                0000000180058260     m_FAU8KyrDQYUp9atreb3T4G.obj
 0003:00006280       eb_emlrtBCI                0000000180058280     m_FAU8KyrDQYUp9atreb3T4G.obj
 0003:000062b0       fb_emlrtBCI                00000001800582b0     m_FAU8KyrDQYUp9atreb3T4G.obj
 0003:000062e0       jb_emlrtDCI                00000001800582e0     m_FAU8KyrDQYUp9atreb3T4G.obj
 0003:00006300       gb_emlrtBCI                0000000180058300     m_FAU8KyrDQYUp9atreb3T4G.obj
 0003:00006330       kb_emlrtDCI                0000000180058330     m_FAU8KyrDQYUp9atreb3T4G.obj
 0003:00006350       hb_emlrtBCI                0000000180058350     m_FAU8KyrDQYUp9atreb3T4G.obj
 0003:00006380       ib_emlrtBCI                0000000180058380     m_FAU8KyrDQYUp9atreb3T4G.obj
 0003:000063b0       jb_emlrtBCI                00000001800583b0     m_FAU8KyrDQYUp9atreb3T4G.obj
 0003:000063e0       lb_emlrtDCI                00000001800583e0     m_FAU8KyrDQYUp9atreb3T4G.obj
 0003:00006400       kb_emlrtBCI                0000000180058400     m_FAU8KyrDQYUp9atreb3T4G.obj
 0003:00006430       lb_emlrtBCI                0000000180058430     m_FAU8KyrDQYUp9atreb3T4G.obj
 0003:00006460       mb_emlrtDCI                0000000180058460     m_FAU8KyrDQYUp9atreb3T4G.obj
 0003:00006480       mb_emlrtBCI                0000000180058480     m_FAU8KyrDQYUp9atreb3T4G.obj
 0003:000064b0       nb_emlrtBCI                00000001800584b0     m_FAU8KyrDQYUp9atreb3T4G.obj
 0003:000064e0       ob_emlrtBCI                00000001800584e0     m_FAU8KyrDQYUp9atreb3T4G.obj
 0003:00006510       pb_emlrtBCI                0000000180058510     m_FAU8KyrDQYUp9atreb3T4G.obj
 0003:00006540       nb_emlrtDCI                0000000180058540     m_FAU8KyrDQYUp9atreb3T4G.obj
 0003:00006560       qb_emlrtBCI                0000000180058560     m_FAU8KyrDQYUp9atreb3T4G.obj
 0003:00006590       rb_emlrtBCI                0000000180058590     m_FAU8KyrDQYUp9atreb3T4G.obj
 0003:000065c0       ob_emlrtDCI                00000001800585c0     m_FAU8KyrDQYUp9atreb3T4G.obj
 0003:000065e0       sb_emlrtBCI                00000001800585e0     m_FAU8KyrDQYUp9atreb3T4G.obj
 0003:00006610       pb_emlrtDCI                0000000180058610     m_FAU8KyrDQYUp9atreb3T4G.obj
 0003:00006630       tb_emlrtBCI                0000000180058630     m_FAU8KyrDQYUp9atreb3T4G.obj
 0003:00006660       qb_emlrtDCI                0000000180058660     m_FAU8KyrDQYUp9atreb3T4G.obj
 0003:00006680       ub_emlrtBCI                0000000180058680     m_FAU8KyrDQYUp9atreb3T4G.obj
 0003:000066b0       vb_emlrtBCI                00000001800586b0     m_FAU8KyrDQYUp9atreb3T4G.obj
 0003:000066e0       d_emlrtRTEI                00000001800586e0     m_FAU8KyrDQYUp9atreb3T4G.obj
 0003:000066f8       wb_emlrtBCI                00000001800586f8     m_FAU8KyrDQYUp9atreb3T4G.obj
 0003:00006728       xb_emlrtBCI                0000000180058728     m_FAU8KyrDQYUp9atreb3T4G.obj
 0003:00006758       fc_emlrtRSI                0000000180058758     m_FAU8KyrDQYUp9atreb3T4G.obj
 0003:00006770       gc_emlrtRSI                0000000180058770     m_FAU8KyrDQYUp9atreb3T4G.obj
 0003:00006788       hc_emlrtRSI                0000000180058788     m_FAU8KyrDQYUp9atreb3T4G.obj
 0003:000067a0       ic_emlrtRSI                00000001800587a0     m_FAU8KyrDQYUp9atreb3T4G.obj
 0003:000067b8       jc_emlrtRSI                00000001800587b8     m_FAU8KyrDQYUp9atreb3T4G.obj
 0003:000067d0       kc_emlrtRSI                00000001800587d0     m_FAU8KyrDQYUp9atreb3T4G.obj
 0003:000067e8       lc_emlrtRSI                00000001800587e8     m_FAU8KyrDQYUp9atreb3T4G.obj
 0003:00006800       $SG27103                   0000000180058800     m_FAU8KyrDQYUp9atreb3T4G.obj
 0003:00006818       $SG27104                   0000000180058818     m_FAU8KyrDQYUp9atreb3T4G.obj
 0003:00006840       ?b_u@?1??SystemCore_setup@@9@9 0000000180058840     m_FAU8KyrDQYUp9atreb3T4G.obj
 0003:00006874       ?d_u@?1??SystemCore_setup@@9@9 0000000180058874     m_FAU8KyrDQYUp9atreb3T4G.obj
 0003:0000687c       ?iv@?1??RigidBodyTree_defaultInitializeBodiesCellArray@@9@9 000000018005887c     m_FAU8KyrDQYUp9atreb3T4G.obj
 0003:00006884       ?iv2@?1??RigidBodyTree_defaultInitializeBodiesCellArray@@9@9 0000000180058884     m_FAU8KyrDQYUp9atreb3T4G.obj
 0003:00006888       ?iv@?1??MassMatrixBlock_setupImpl@@9@9 0000000180058888     m_FAU8KyrDQYUp9atreb3T4G.obj
 0003:00006898       ?b_bname@?1??RigidBodyTree_defaultInitializeBodiesCellArray@@9@9 0000000180058898     m_FAU8KyrDQYUp9atreb3T4G.obj
 0003:000068a4       ?iv2@?1??RigidBody_RigidBody@@9@9 00000001800588a4     m_FAU8KyrDQYUp9atreb3T4G.obj
 0003:000068a8       ?bname@?1??RigidBodyTree_defaultInitializeBodiesCellArray@@9@9 00000001800588a8     m_FAU8KyrDQYUp9atreb3T4G.obj
 0003:000068b4       ?iv2@?1??b_RigidBody_RigidBody@@9@9 00000001800588b4     m_FAU8KyrDQYUp9atreb3T4G.obj
 0003:000068b8       ?c_bname@?1??RigidBodyTree_defaultInitializeBodiesCellArray@@9@9 00000001800588b8     m_FAU8KyrDQYUp9atreb3T4G.obj
 0003:000068c4       ?iv2@?1??c_RigidBody_RigidBody@@9@9 00000001800588c4     m_FAU8KyrDQYUp9atreb3T4G.obj
 0003:000068c8       ?d_bname@?1??RigidBodyTree_defaultInitializeBodiesCellArray@@9@9 00000001800588c8     m_FAU8KyrDQYUp9atreb3T4G.obj
 0003:000068d4       ?iv2@?1??d_RigidBody_RigidBody@@9@9 00000001800588d4     m_FAU8KyrDQYUp9atreb3T4G.obj
 0003:000068d8       ?e_bname@?1??RigidBodyTree_defaultInitializeBodiesCellArray@@9@9 00000001800588d8     m_FAU8KyrDQYUp9atreb3T4G.obj
 0003:000068e4       ?cv@?1??RigidBodyTree_defaultInitializeBodiesCellArray@@9@9 00000001800588e4     m_FAU8KyrDQYUp9atreb3T4G.obj
 0003:000068ec       ?iv1@?1??RigidBodyTree_defaultInitializeBodiesCellArray@@9@9 00000001800588ec     m_FAU8KyrDQYUp9atreb3T4G.obj
 0003:000068f4       ?iv2@?1??e_RigidBody_RigidBody@@9@9 00000001800588f4     m_FAU8KyrDQYUp9atreb3T4G.obj
 0003:000068f8       ?cv@?1??b_strcmp@@9@9      00000001800588f8     m_FAU8KyrDQYUp9atreb3T4G.obj
 0003:00006900       ?cv@?1??c_strcmp@@9@9      0000000180058900     m_FAU8KyrDQYUp9atreb3T4G.obj
 0003:0000690c       ?iv@?1??RigidBody_RigidBody@@9@9 000000018005890c     m_FAU8KyrDQYUp9atreb3T4G.obj
 0003:00006914       ?iv2@?1??f_RigidBody_RigidBody@@9@9 0000000180058914     m_FAU8KyrDQYUp9atreb3T4G.obj
 0003:00006918       ?bname@?1??RigidBody_RigidBody@@9@9 0000000180058918     m_FAU8KyrDQYUp9atreb3T4G.obj
 0003:00006924       ?cv@?1??RigidBody_RigidBody@@9@9 0000000180058924     m_FAU8KyrDQYUp9atreb3T4G.obj
 0003:0000692c       ?iv1@?1??RigidBody_RigidBody@@9@9 000000018005892c     m_FAU8KyrDQYUp9atreb3T4G.obj
 0003:00006934       ?iv5@?1??f_RigidBody_RigidBody@@9@9 0000000180058934     m_FAU8KyrDQYUp9atreb3T4G.obj
 0003:00006938       ?bname@?1??b_RigidBody_RigidBody@@9@9 0000000180058938     m_FAU8KyrDQYUp9atreb3T4G.obj
 0003:00006944       ?cv@?1??b_RigidBody_RigidBody@@9@9 0000000180058944     m_FAU8KyrDQYUp9atreb3T4G.obj
 0003:0000694c       ?iv@?1??b_RigidBody_RigidBody@@9@9 000000018005894c     m_FAU8KyrDQYUp9atreb3T4G.obj
 0003:00006954       ?iv1@?1??b_RigidBody_RigidBody@@9@9 0000000180058954     m_FAU8KyrDQYUp9atreb3T4G.obj
 0003:0000695c       ?iv2@?1??g_RigidBody_RigidBody@@9@9 000000018005895c     m_FAU8KyrDQYUp9atreb3T4G.obj
 0003:00006960       ?bname@?1??c_RigidBody_RigidBody@@9@9 0000000180058960     m_FAU8KyrDQYUp9atreb3T4G.obj
 0003:0000696c       ?cv@?1??c_RigidBody_RigidBody@@9@9 000000018005896c     m_FAU8KyrDQYUp9atreb3T4G.obj
 0003:00006974       ?iv@?1??c_RigidBody_RigidBody@@9@9 0000000180058974     m_FAU8KyrDQYUp9atreb3T4G.obj
 0003:0000697c       ?iv1@?1??c_RigidBody_RigidBody@@9@9 000000018005897c     m_FAU8KyrDQYUp9atreb3T4G.obj
 0003:00006984       ?cv@?1??d_RigidBody_RigidBody@@9@9 0000000180058984     m_FAU8KyrDQYUp9atreb3T4G.obj
 0003:00006990       ?dv@?1??d_RigidBody_RigidBody@@9@9 0000000180058990     m_FAU8KyrDQYUp9atreb3T4G.obj
 0003:00006ab0       ?cv1@?1??d_RigidBody_RigidBody@@9@9 0000000180058ab0     m_FAU8KyrDQYUp9atreb3T4G.obj
 0003:00006ab8       ?iv3@?1??d_RigidBody_RigidBody@@9@9 0000000180058ab8     m_FAU8KyrDQYUp9atreb3T4G.obj
 0003:00006ac8       ?iv@?1??d_RigidBody_RigidBody@@9@9 0000000180058ac8     m_FAU8KyrDQYUp9atreb3T4G.obj
 0003:00006ad0       ?iv1@?1??d_RigidBody_RigidBody@@9@9 0000000180058ad0     m_FAU8KyrDQYUp9atreb3T4G.obj
 0003:00006ad8       ?cv@?1??e_RigidBody_RigidBody@@9@9 0000000180058ad8     m_FAU8KyrDQYUp9atreb3T4G.obj
 0003:00006ae0       ?dv@?1??e_RigidBody_RigidBody@@9@9 0000000180058ae0     m_FAU8KyrDQYUp9atreb3T4G.obj
 0003:00006c00       ?dv1@?1??e_RigidBody_RigidBody@@9@9 0000000180058c00     m_FAU8KyrDQYUp9atreb3T4G.obj
 0003:00006c80       ?cv1@?1??e_RigidBody_RigidBody@@9@9 0000000180058c80     m_FAU8KyrDQYUp9atreb3T4G.obj
 0003:00006c88       ?iv3@?1??e_RigidBody_RigidBody@@9@9 0000000180058c88     m_FAU8KyrDQYUp9atreb3T4G.obj
 0003:00006c98       ?iv@?1??e_RigidBody_RigidBody@@9@9 0000000180058c98     m_FAU8KyrDQYUp9atreb3T4G.obj
 0003:00006ca0       ?iv1@?1??e_RigidBody_RigidBody@@9@9 0000000180058ca0     m_FAU8KyrDQYUp9atreb3T4G.obj
 0003:00006ca8       ?cv1@?1??f_RigidBody_RigidBody@@9@9 0000000180058ca8     m_FAU8KyrDQYUp9atreb3T4G.obj
 0003:00006cb0       ?dv@?1??f_RigidBody_RigidBody@@9@9 0000000180058cb0     m_FAU8KyrDQYUp9atreb3T4G.obj
 0003:00006dd0       ?dv1@?1??f_RigidBody_RigidBody@@9@9 0000000180058dd0     m_FAU8KyrDQYUp9atreb3T4G.obj
 0003:00006e50       ?cv@?1??f_RigidBody_RigidBody@@9@9 0000000180058e50     m_FAU8KyrDQYUp9atreb3T4G.obj
 0003:00006e58       ?iv3@?1??f_RigidBody_RigidBody@@9@9 0000000180058e58     m_FAU8KyrDQYUp9atreb3T4G.obj
 0003:00006e68       ?iv@?1??f_RigidBody_RigidBody@@9@9 0000000180058e68     m_FAU8KyrDQYUp9atreb3T4G.obj
 0003:00006e70       ?iv1@?1??f_RigidBody_RigidBody@@9@9 0000000180058e70     m_FAU8KyrDQYUp9atreb3T4G.obj
 0003:00006e78       ?iv4@?1??f_RigidBody_RigidBody@@9@9 0000000180058e78     m_FAU8KyrDQYUp9atreb3T4G.obj
 0003:00006e80       ?dv@?1??g_RigidBody_RigidBody@@9@9 0000000180058e80     m_FAU8KyrDQYUp9atreb3T4G.obj
 0003:00006fa0       ?dv1@?1??g_RigidBody_RigidBody@@9@9 0000000180058fa0     m_FAU8KyrDQYUp9atreb3T4G.obj
 0003:00007020       ?cv1@?1??g_RigidBody_RigidBody@@9@9 0000000180059020     m_FAU8KyrDQYUp9atreb3T4G.obj
 0003:00007028       ?cv@?1??g_RigidBody_RigidBody@@9@9 0000000180059028     m_FAU8KyrDQYUp9atreb3T4G.obj
 0003:00007030       ?iv3@?1??g_RigidBody_RigidBody@@9@9 0000000180059030     m_FAU8KyrDQYUp9atreb3T4G.obj
 0003:00007040       ?iv@?1??g_RigidBody_RigidBody@@9@9 0000000180059040     m_FAU8KyrDQYUp9atreb3T4G.obj
 0003:00007048       ?iv1@?1??g_RigidBody_RigidBody@@9@9 0000000180059048     m_FAU8KyrDQYUp9atreb3T4G.obj
 0003:00007050       ?iv4@?1??g_RigidBody_RigidBody@@9@9 0000000180059050     m_FAU8KyrDQYUp9atreb3T4G.obj
 0003:00007058       ?iv5@?1??g_RigidBody_RigidBody@@9@9 0000000180059058     m_FAU8KyrDQYUp9atreb3T4G.obj
 0003:00007060       ?dv@?1??h_RigidBody_RigidBody@@9@9 0000000180059060     m_FAU8KyrDQYUp9atreb3T4G.obj
 0003:00007180       ?dv1@?1??h_RigidBody_RigidBody@@9@9 0000000180059180     m_FAU8KyrDQYUp9atreb3T4G.obj
 0003:00007200       ?cv@?1??h_RigidBody_RigidBody@@9@9 0000000180059200     m_FAU8KyrDQYUp9atreb3T4G.obj
 0003:00007208       ?cv1@?1??h_RigidBody_RigidBody@@9@9 0000000180059208     m_FAU8KyrDQYUp9atreb3T4G.obj
 0003:00007210       ?iv3@?1??h_RigidBody_RigidBody@@9@9 0000000180059210     m_FAU8KyrDQYUp9atreb3T4G.obj
 0003:00007220       ?iv@?1??h_RigidBody_RigidBody@@9@9 0000000180059220     m_FAU8KyrDQYUp9atreb3T4G.obj
 0003:00007228       ?iv1@?1??h_RigidBody_RigidBody@@9@9 0000000180059228     m_FAU8KyrDQYUp9atreb3T4G.obj
 0003:00007230       ?iv2@?1??h_RigidBody_RigidBody@@9@9 0000000180059230     m_FAU8KyrDQYUp9atreb3T4G.obj
 0003:00007238       ?cv@?1??i_RigidBody_RigidBody@@9@9 0000000180059238     m_FAU8KyrDQYUp9atreb3T4G.obj
 0003:00007250       ?dv@?1??i_RigidBody_RigidBody@@9@9 0000000180059250     m_FAU8KyrDQYUp9atreb3T4G.obj
 0003:00007370       ?dv1@?1??i_RigidBody_RigidBody@@9@9 0000000180059370     m_FAU8KyrDQYUp9atreb3T4G.obj
 0003:000073f0       ?cv1@?1??i_RigidBody_RigidBody@@9@9 00000001800593f0     m_FAU8KyrDQYUp9atreb3T4G.obj
 0003:000073f8       ?iv3@?1??i_RigidBody_RigidBody@@9@9 00000001800593f8     m_FAU8KyrDQYUp9atreb3T4G.obj
 0003:00007408       ?iv@?1??i_RigidBody_RigidBody@@9@9 0000000180059408     m_FAU8KyrDQYUp9atreb3T4G.obj
 0003:00007410       ?iv1@?1??i_RigidBody_RigidBody@@9@9 0000000180059410     m_FAU8KyrDQYUp9atreb3T4G.obj
 0003:00007418       ?iv2@?1??i_RigidBody_RigidBody@@9@9 0000000180059418     m_FAU8KyrDQYUp9atreb3T4G.obj
 0003:00007420       ?dv@?1??j_RigidBody_RigidBody@@9@9 0000000180059420     m_FAU8KyrDQYUp9atreb3T4G.obj
 0003:00007540       ?dv1@?1??j_RigidBody_RigidBody@@9@9 0000000180059540     m_FAU8KyrDQYUp9atreb3T4G.obj
 0003:000075c0       ?cv@?1??j_RigidBody_RigidBody@@9@9 00000001800595c0     m_FAU8KyrDQYUp9atreb3T4G.obj
 0003:000075cc       ?cv1@?1??j_RigidBody_RigidBody@@9@9 00000001800595cc     m_FAU8KyrDQYUp9atreb3T4G.obj
 0003:000075d4       ?iv@?1??j_RigidBody_RigidBody@@9@9 00000001800595d4     m_FAU8KyrDQYUp9atreb3T4G.obj
 0003:000075dc       ?iv2@?1??j_RigidBody_RigidBody@@9@9 00000001800595dc     m_FAU8KyrDQYUp9atreb3T4G.obj
 0003:000075e0       ?iv3@?1??j_RigidBody_RigidBody@@9@9 00000001800595e0     m_FAU8KyrDQYUp9atreb3T4G.obj
 0003:000075f0       ?iv1@?1??j_RigidBody_RigidBody@@9@9 00000001800595f0     m_FAU8KyrDQYUp9atreb3T4G.obj
 0003:000075f8       ?cv@?1??k_RigidBody_RigidBody@@9@9 00000001800595f8     m_FAU8KyrDQYUp9atreb3T4G.obj
 0003:00007608       ?cv1@?1??k_RigidBody_RigidBody@@9@9 0000000180059608     m_FAU8KyrDQYUp9atreb3T4G.obj
 0003:00007610       ?dv@?1??k_RigidBody_RigidBody@@9@9 0000000180059610     m_FAU8KyrDQYUp9atreb3T4G.obj
 0003:00007730       ?dv1@?1??k_RigidBody_RigidBody@@9@9 0000000180059730     m_FAU8KyrDQYUp9atreb3T4G.obj
 0003:000077b0       ?iv3@?1??k_RigidBody_RigidBody@@9@9 00000001800597b0     m_FAU8KyrDQYUp9atreb3T4G.obj
 0003:000077c0       ?iv@?1??k_RigidBody_RigidBody@@9@9 00000001800597c0     m_FAU8KyrDQYUp9atreb3T4G.obj
 0003:000077c8       ?iv1@?1??k_RigidBody_RigidBody@@9@9 00000001800597c8     m_FAU8KyrDQYUp9atreb3T4G.obj
 0003:000077d0       ?iv2@?1??k_RigidBody_RigidBody@@9@9 00000001800597d0     m_FAU8KyrDQYUp9atreb3T4G.obj
 0003:000077d4       ?cv@?1??l_RigidBody_RigidBody@@9@9 00000001800597d4     m_FAU8KyrDQYUp9atreb3T4G.obj
 0003:000077dc       ?cv1@?1??l_RigidBody_RigidBody@@9@9 00000001800597dc     m_FAU8KyrDQYUp9atreb3T4G.obj
 0003:000077e4       ?iv@?1??l_RigidBody_RigidBody@@9@9 00000001800597e4     m_FAU8KyrDQYUp9atreb3T4G.obj
 0003:000077ec       ?iv1@?1??l_RigidBody_RigidBody@@9@9 00000001800597ec     m_FAU8KyrDQYUp9atreb3T4G.obj
 0003:000077f4       ?iv2@?1??l_RigidBody_RigidBody@@9@9 00000001800597f4     m_FAU8KyrDQYUp9atreb3T4G.obj
 0003:000077f8       ?b_u@?1??mw__internal__call__reset@@9@9 00000001800597f8     m_FAU8KyrDQYUp9atreb3T4G.obj
 0003:00007828       ?d_u@?1??mw__internal__call__reset@@9@9 0000000180059828     m_FAU8KyrDQYUp9atreb3T4G.obj
 0003:00007830       ?b_u@?1??mw__internal__call__step@@9@9 0000000180059830     m_FAU8KyrDQYUp9atreb3T4G.obj
 0003:00007860       ?d_u@?1??mw__internal__call__step@@9@9 0000000180059860     m_FAU8KyrDQYUp9atreb3T4G.obj
 0003:00007864       ?iv@?1??rigidBodyJoint_transformBodyToParent@@9@9 0000000180059864     m_FAU8KyrDQYUp9atreb3T4G.obj
 0003:00007868       ?b_u@?1??RigidBody_get_Joint@@9@9 0000000180059868     m_FAU8KyrDQYUp9atreb3T4G.obj
 0003:0000789c       ?d_u@?1??RigidBody_get_Joint@@9@9 000000018005989c     m_FAU8KyrDQYUp9atreb3T4G.obj
 0003:000078a4       ?cv@?1??d_strcmp@@9@9      00000001800598a4     m_FAU8KyrDQYUp9atreb3T4G.obj
 0003:000078ac       ?d_u@?1??normalizeRows@@9@9 00000001800598ac     m_FAU8KyrDQYUp9atreb3T4G.obj
 0003:000078b0       ?b_u@?1??normalizeRows@@9@9 00000001800598b0     m_FAU8KyrDQYUp9atreb3T4G.obj
 0003:000078d0       ?j_u@?1??b_rigidBodyJoint_transformBodyToParent@@9@9 00000001800598d0     m_FAU8KyrDQYUp9atreb3T4G.obj
 0003:00007900       ?f_u@?1??b_rigidBodyJoint_transformBodyToParent@@9@9 0000000180059900     m_FAU8KyrDQYUp9atreb3T4G.obj
 0003:00007930       ?d_u@?1??b_rigidBodyJoint_transformBodyToParent@@9@9 0000000180059930     m_FAU8KyrDQYUp9atreb3T4G.obj
 0003:00007958       ?h_u@?1??b_rigidBodyJoint_transformBodyToParent@@9@9 0000000180059958     m_FAU8KyrDQYUp9atreb3T4G.obj
 0003:0000797c       ?iv4@?1??b_rigidBodyJoint_transformBodyToParent@@9@9 000000018005997c     m_FAU8KyrDQYUp9atreb3T4G.obj
 0003:00007980       ?e_u@?1??b_rigidBodyJoint_transformBodyToParent@@9@9 0000000180059980     m_FAU8KyrDQYUp9atreb3T4G.obj
 0003:00007990       ?l_u@?1??b_rigidBodyJoint_transformBodyToParent@@9@9 0000000180059990     m_FAU8KyrDQYUp9atreb3T4G.obj
 0003:00007998       ?iv@?1??tforminv@@9@9      0000000180059998     m_FAU8KyrDQYUp9atreb3T4G.obj
 0003:000079a0       ?b_u@?1??eml_float_colon@@9@9 00000001800599a0     m_FAU8KyrDQYUp9atreb3T4G.obj
 0003:000079b8       $SG29784                   00000001800599b8     m_FAU8KyrDQYUp9atreb3T4G.obj
 0003:000079c0       $SG29795                   00000001800599c0     m_FAU8KyrDQYUp9atreb3T4G.obj
 0003:000079cc       $SG29808                   00000001800599cc     m_FAU8KyrDQYUp9atreb3T4G.obj
 0003:000079d8       $SG29819                   00000001800599d8     m_FAU8KyrDQYUp9atreb3T4G.obj
 0003:000079e0       $SG29834                   00000001800599e0     m_FAU8KyrDQYUp9atreb3T4G.obj
 0003:000079e8       $SG30238                   00000001800599e8     m_FAU8KyrDQYUp9atreb3T4G.obj
 0003:000079f8       $SG30239                   00000001800599f8     m_FAU8KyrDQYUp9atreb3T4G.obj
 0003:00007a00       $SG30240                   0000000180059a00     m_FAU8KyrDQYUp9atreb3T4G.obj
 0003:00007a20       $SG30245                   0000000180059a20     m_FAU8KyrDQYUp9atreb3T4G.obj
 0003:00007a58       $SG30246                   0000000180059a58     m_FAU8KyrDQYUp9atreb3T4G.obj
 0003:00007a78       $SG30255                   0000000180059a78     m_FAU8KyrDQYUp9atreb3T4G.obj
 0003:00007a88       $SG30257                   0000000180059a88     m_FAU8KyrDQYUp9atreb3T4G.obj
 0003:00007aa0       $SG30258                   0000000180059aa0     m_FAU8KyrDQYUp9atreb3T4G.obj
 0003:00007ab0       $SG30259                   0000000180059ab0     m_FAU8KyrDQYUp9atreb3T4G.obj
 0003:00007af0       $SG26126                   0000000180059af0     m_xSE9GNLJOSGMLwcrwI4qWD.obj
 0003:00007b10       $SG26127                   0000000180059b10     m_xSE9GNLJOSGMLwcrwI4qWD.obj
 0003:00007b9c       $SG26129                   0000000180059b9c     m_xSE9GNLJOSGMLwcrwI4qWD.obj
 0003:00007ba8       $SG26147                   0000000180059ba8     m_xSE9GNLJOSGMLwcrwI4qWD.obj
 0003:00007bb8       $SG26210                   0000000180059bb8     m_xSE9GNLJOSGMLwcrwI4qWD.obj
 0003:00007bd0       $SG26130                   0000000180059bd0     m_xSE9GNLJOSGMLwcrwI4qWD.obj
 0003:00007c2c       $SG26291                   0000000180059c2c     m_xSE9GNLJOSGMLwcrwI4qWD.obj
 0003:00007c30       $SG26132                   0000000180059c30     m_xSE9GNLJOSGMLwcrwI4qWD.obj
 0003:00007c40       $SG26133                   0000000180059c40     m_xSE9GNLJOSGMLwcrwI4qWD.obj
 0003:00007ca0       $SG26135                   0000000180059ca0     m_xSE9GNLJOSGMLwcrwI4qWD.obj
 0003:00007cb0       $SG26136                   0000000180059cb0     m_xSE9GNLJOSGMLwcrwI4qWD.obj
 0003:00007d10       $SG26144                   0000000180059d10     m_xSE9GNLJOSGMLwcrwI4qWD.obj
 0003:00007d30       $SG26145                   0000000180059d30     m_xSE9GNLJOSGMLwcrwI4qWD.obj
 0003:00007dc0       $SG26148                   0000000180059dc0     m_xSE9GNLJOSGMLwcrwI4qWD.obj
 0003:00007e28       $SG26150                   0000000180059e28     m_xSE9GNLJOSGMLwcrwI4qWD.obj
 0003:00007e38       $SG26177                   0000000180059e38     m_xSE9GNLJOSGMLwcrwI4qWD.obj
 0003:00007e48       $SG26213                   0000000180059e48     m_xSE9GNLJOSGMLwcrwI4qWD.obj
 0003:00007e60       $SG26151                   0000000180059e60     m_xSE9GNLJOSGMLwcrwI4qWD.obj
 0003:00007ec8       $SG26153                   0000000180059ec8     m_xSE9GNLJOSGMLwcrwI4qWD.obj
 0003:00007ed8       $SG26180                   0000000180059ed8     m_xSE9GNLJOSGMLwcrwI4qWD.obj
 0003:00007ee8       $SG26216                   0000000180059ee8     m_xSE9GNLJOSGMLwcrwI4qWD.obj
 0003:00007f00       $SG26154                   0000000180059f00     m_xSE9GNLJOSGMLwcrwI4qWD.obj
 0003:00007f68       $SG26156                   0000000180059f68     m_xSE9GNLJOSGMLwcrwI4qWD.obj
 0003:00007f78       $SG26219                   0000000180059f78     m_xSE9GNLJOSGMLwcrwI4qWD.obj
 0003:00007f90       $SG26157                   0000000180059f90     m_xSE9GNLJOSGMLwcrwI4qWD.obj
 0003:00007ff8       $SG26159                   0000000180059ff8     m_xSE9GNLJOSGMLwcrwI4qWD.obj
 0003:00008008       $SG26222                   000000018005a008     m_xSE9GNLJOSGMLwcrwI4qWD.obj
 0003:00008020       $SG26160                   000000018005a020     m_xSE9GNLJOSGMLwcrwI4qWD.obj
 0003:00008088       $SG26162                   000000018005a088     m_xSE9GNLJOSGMLwcrwI4qWD.obj
 0003:00008098       $SG26225                   000000018005a098     m_xSE9GNLJOSGMLwcrwI4qWD.obj
 0003:000080b0       $SG26163                   000000018005a0b0     m_xSE9GNLJOSGMLwcrwI4qWD.obj
 0003:00008118       $SG26165                   000000018005a118     m_xSE9GNLJOSGMLwcrwI4qWD.obj
 0003:00008128       $SG26228                   000000018005a128     m_xSE9GNLJOSGMLwcrwI4qWD.obj
 0003:00008140       $SG26166                   000000018005a140     m_xSE9GNLJOSGMLwcrwI4qWD.obj
 0003:000081a8       $SG26168                   000000018005a1a8     m_xSE9GNLJOSGMLwcrwI4qWD.obj
 0003:000081b8       $SG26183                   000000018005a1b8     m_xSE9GNLJOSGMLwcrwI4qWD.obj
 0003:000081c8       $SG26231                   000000018005a1c8     m_xSE9GNLJOSGMLwcrwI4qWD.obj
 0003:000081e0       $SG26169                   000000018005a1e0     m_xSE9GNLJOSGMLwcrwI4qWD.obj
 0003:00008244       $SG26621                   000000018005a244     m_xSE9GNLJOSGMLwcrwI4qWD.obj
 0003:00008248       $SG26171                   000000018005a248     m_xSE9GNLJOSGMLwcrwI4qWD.obj
 0003:00008258       $SG26186                   000000018005a258     m_xSE9GNLJOSGMLwcrwI4qWD.obj
 0003:00008268       $SG26234                   000000018005a268     m_xSE9GNLJOSGMLwcrwI4qWD.obj
 0003:00008280       $SG26172                   000000018005a280     m_xSE9GNLJOSGMLwcrwI4qWD.obj
 0003:000082e8       $SG26174                   000000018005a2e8     m_xSE9GNLJOSGMLwcrwI4qWD.obj
 0003:000082f8       $SG26204                   000000018005a2f8     m_xSE9GNLJOSGMLwcrwI4qWD.obj
 0003:00008318       $SG26240                   000000018005a318     m_xSE9GNLJOSGMLwcrwI4qWD.obj
 0003:00008328       $SG26267                   000000018005a328     m_xSE9GNLJOSGMLwcrwI4qWD.obj
 0003:00008340       $SG26175                   000000018005a340     m_xSE9GNLJOSGMLwcrwI4qWD.obj
 0003:000083a8       $SG26207                   000000018005a3a8     m_xSE9GNLJOSGMLwcrwI4qWD.obj
 0003:000083c8       $SG26243                   000000018005a3c8     m_xSE9GNLJOSGMLwcrwI4qWD.obj
 0003:000083d8       $SG26270                   000000018005a3d8     m_xSE9GNLJOSGMLwcrwI4qWD.obj
 0003:000083f0       $SG26178                   000000018005a3f0     m_xSE9GNLJOSGMLwcrwI4qWD.obj
 0003:00008440       $SG26181                   000000018005a440     m_xSE9GNLJOSGMLwcrwI4qWD.obj
 0003:000084b0       $SG26184                   000000018005a4b0     m_xSE9GNLJOSGMLwcrwI4qWD.obj
 0003:00008518       $SG26246                   000000018005a518     m_xSE9GNLJOSGMLwcrwI4qWD.obj
 0003:00008528       $SG26273                   000000018005a528     m_xSE9GNLJOSGMLwcrwI4qWD.obj
 0003:00008540       $SG26187                   000000018005a540     m_xSE9GNLJOSGMLwcrwI4qWD.obj
 0003:000085a8       $SG26189                   000000018005a5a8     m_xSE9GNLJOSGMLwcrwI4qWD.obj
 0003:000085b8       $SG26249                   000000018005a5b8     m_xSE9GNLJOSGMLwcrwI4qWD.obj
 0003:000085c8       $SG26279                   000000018005a5c8     m_xSE9GNLJOSGMLwcrwI4qWD.obj
 0003:000085e0       $SG26190                   000000018005a5e0     m_xSE9GNLJOSGMLwcrwI4qWD.obj
 0003:00008648       $SG26192                   000000018005a648     m_xSE9GNLJOSGMLwcrwI4qWD.obj
 0003:00008658       $SG26252                   000000018005a658     m_xSE9GNLJOSGMLwcrwI4qWD.obj
 0003:00008664       $SG26285                   000000018005a664     m_xSE9GNLJOSGMLwcrwI4qWD.obj
 0003:00008670       $SG26193                   000000018005a670     m_xSE9GNLJOSGMLwcrwI4qWD.obj
 0003:000086d8       $SG26195                   000000018005a6d8     m_xSE9GNLJOSGMLwcrwI4qWD.obj
 0003:000086e8       $SG26255                   000000018005a6e8     m_xSE9GNLJOSGMLwcrwI4qWD.obj
 0003:000086f4       $SG26288                   000000018005a6f4     m_xSE9GNLJOSGMLwcrwI4qWD.obj
 0003:00008700       $SG26196                   000000018005a700     m_xSE9GNLJOSGMLwcrwI4qWD.obj
 0003:00008768       $SG26258                   000000018005a768     m_xSE9GNLJOSGMLwcrwI4qWD.obj
 0003:00008778       $SG26261                   000000018005a778     m_xSE9GNLJOSGMLwcrwI4qWD.obj
 0003:00008788       $SG26297                   000000018005a788     m_xSE9GNLJOSGMLwcrwI4qWD.obj
 0003:000087a0       $SG26205                   000000018005a7a0     m_xSE9GNLJOSGMLwcrwI4qWD.obj
 0003:00008830       $SG26208                   000000018005a830     m_xSE9GNLJOSGMLwcrwI4qWD.obj
 0003:000088c0       $SG26211                   000000018005a8c0     m_xSE9GNLJOSGMLwcrwI4qWD.obj
 0003:00008930       $SG26214                   000000018005a930     m_xSE9GNLJOSGMLwcrwI4qWD.obj
 0003:000089a0       $SG26217                   000000018005a9a0     m_xSE9GNLJOSGMLwcrwI4qWD.obj
 0003:00008a10       $SG26220                   000000018005aa10     m_xSE9GNLJOSGMLwcrwI4qWD.obj
 0003:00008a80       $SG26223                   000000018005aa80     m_xSE9GNLJOSGMLwcrwI4qWD.obj
 0003:00008af0       $SG26226                   000000018005aaf0     m_xSE9GNLJOSGMLwcrwI4qWD.obj
 0003:00008b60       $SG26229                   000000018005ab60     m_xSE9GNLJOSGMLwcrwI4qWD.obj
 0003:00008bd0       $SG26232                   000000018005abd0     m_xSE9GNLJOSGMLwcrwI4qWD.obj
 0003:00008c20       $SG26235                   000000018005ac20     m_xSE9GNLJOSGMLwcrwI4qWD.obj
 0003:00008c70       $SG26237                   000000018005ac70     m_xSE9GNLJOSGMLwcrwI4qWD.obj
 0003:00008c80       $SG26238                   000000018005ac80     m_xSE9GNLJOSGMLwcrwI4qWD.obj
 0003:00008ce8       $SG26264                   000000018005ace8     m_xSE9GNLJOSGMLwcrwI4qWD.obj
 0003:00008cf4       $SG26606                   000000018005acf4     m_xSE9GNLJOSGMLwcrwI4qWD.obj
 0003:00008d00       $SG26241                   000000018005ad00     m_xSE9GNLJOSGMLwcrwI4qWD.obj
 0003:00008d50       $SG26244                   000000018005ad50     m_xSE9GNLJOSGMLwcrwI4qWD.obj
 0003:00008da0       $SG26247                   000000018005ada0     m_xSE9GNLJOSGMLwcrwI4qWD.obj
 0003:00008df0       $SG26250                   000000018005adf0     m_xSE9GNLJOSGMLwcrwI4qWD.obj
 0003:00008e40       $SG26253                   000000018005ae40     m_xSE9GNLJOSGMLwcrwI4qWD.obj
 0003:00008e90       $SG26256                   000000018005ae90     m_xSE9GNLJOSGMLwcrwI4qWD.obj
 0003:00008ef4       $SG26609                   000000018005aef4     m_xSE9GNLJOSGMLwcrwI4qWD.obj
 0003:00008f00       $SG26259                   000000018005af00     m_xSE9GNLJOSGMLwcrwI4qWD.obj
 0003:00008f68       $SG26276                   000000018005af68     m_xSE9GNLJOSGMLwcrwI4qWD.obj
 0003:00008f78       $SG26294                   000000018005af78     m_xSE9GNLJOSGMLwcrwI4qWD.obj
 0003:00008f88       $SG26300                   000000018005af88     m_xSE9GNLJOSGMLwcrwI4qWD.obj
 0003:00008fa0       $SG26262                   000000018005afa0     m_xSE9GNLJOSGMLwcrwI4qWD.obj
 0003:00009008       $SG26316                   000000018005b008     m_xSE9GNLJOSGMLwcrwI4qWD.obj
 0003:00009020       $SG26265                   000000018005b020     m_xSE9GNLJOSGMLwcrwI4qWD.obj
 0003:00009070       $SG26268                   000000018005b070     m_xSE9GNLJOSGMLwcrwI4qWD.obj
 0003:000090f0       $SG26271                   000000018005b0f0     m_xSE9GNLJOSGMLwcrwI4qWD.obj
 0003:00009140       $SG26274                   000000018005b140     m_xSE9GNLJOSGMLwcrwI4qWD.obj
 0003:00009198       $SG26319                   000000018005b198     m_xSE9GNLJOSGMLwcrwI4qWD.obj
 0003:000091b0       $SG26277                   000000018005b1b0     m_xSE9GNLJOSGMLwcrwI4qWD.obj
 0003:00009218       $SG26322                   000000018005b218     m_xSE9GNLJOSGMLwcrwI4qWD.obj
 0003:00009230       $SG26280                   000000018005b230     m_xSE9GNLJOSGMLwcrwI4qWD.obj
 0003:000092a0       $SG26282                   000000018005b2a0     m_xSE9GNLJOSGMLwcrwI4qWD.obj
 0003:000092b0       $SG26283                   000000018005b2b0     m_xSE9GNLJOSGMLwcrwI4qWD.obj
 0003:00009310       $SG26286                   000000018005b310     m_xSE9GNLJOSGMLwcrwI4qWD.obj
 0003:00009370       $SG26289                   000000018005b370     m_xSE9GNLJOSGMLwcrwI4qWD.obj
 0003:000093b8       $SG26303                   000000018005b3b8     m_xSE9GNLJOSGMLwcrwI4qWD.obj
 0003:000093c8       $SG26325                   000000018005b3c8     m_xSE9GNLJOSGMLwcrwI4qWD.obj
 0003:000093e0       $SG26292                   000000018005b3e0     m_xSE9GNLJOSGMLwcrwI4qWD.obj
 0003:00009428       $SG26328                   000000018005b428     m_xSE9GNLJOSGMLwcrwI4qWD.obj
 0003:00009440       $SG26295                   000000018005b440     m_xSE9GNLJOSGMLwcrwI4qWD.obj
 0003:000094a0       $SG26298                   000000018005b4a0     m_xSE9GNLJOSGMLwcrwI4qWD.obj
 0003:000094f0       $SG26301                   000000018005b4f0     m_xSE9GNLJOSGMLwcrwI4qWD.obj
 0003:00009540       $SG26304                   000000018005b540     m_xSE9GNLJOSGMLwcrwI4qWD.obj
 0003:000095a8       $SG26307                   000000018005b5a8     m_xSE9GNLJOSGMLwcrwI4qWD.obj
 0003:000095b8       $SG26331                   000000018005b5b8     m_xSE9GNLJOSGMLwcrwI4qWD.obj
 0003:000095d0       $SG26308                   000000018005b5d0     m_xSE9GNLJOSGMLwcrwI4qWD.obj
 0003:00009638       $SG26310                   000000018005b638     m_xSE9GNLJOSGMLwcrwI4qWD.obj
 0003:00009648       $SG26334                   000000018005b648     m_xSE9GNLJOSGMLwcrwI4qWD.obj
 0003:00009660       $SG26311                   000000018005b660     m_xSE9GNLJOSGMLwcrwI4qWD.obj
 0003:000096c8       $SG26313                   000000018005b6c8     m_xSE9GNLJOSGMLwcrwI4qWD.obj
 0003:000096d8       $SG26338                   000000018005b6d8     m_xSE9GNLJOSGMLwcrwI4qWD.obj
 0003:000096f0       $SG26314                   000000018005b6f0     m_xSE9GNLJOSGMLwcrwI4qWD.obj
 0003:00009758       $SG26341                   000000018005b758     m_xSE9GNLJOSGMLwcrwI4qWD.obj
 0003:00009770       $SG26317                   000000018005b770     m_xSE9GNLJOSGMLwcrwI4qWD.obj
 0003:000097e0       $SG26320                   000000018005b7e0     m_xSE9GNLJOSGMLwcrwI4qWD.obj
 0003:00009850       $SG26323                   000000018005b850     m_xSE9GNLJOSGMLwcrwI4qWD.obj
 0003:000098c0       $SG26326                   000000018005b8c0     m_xSE9GNLJOSGMLwcrwI4qWD.obj
 0003:00009930       $SG26329                   000000018005b930     m_xSE9GNLJOSGMLwcrwI4qWD.obj
 0003:000099a0       $SG26332                   000000018005b9a0     m_xSE9GNLJOSGMLwcrwI4qWD.obj
 0003:00009a10       $SG26335                   000000018005ba10     m_xSE9GNLJOSGMLwcrwI4qWD.obj
 0003:00009a80       $SG26339                   000000018005ba80     m_xSE9GNLJOSGMLwcrwI4qWD.obj
 0003:00009af0       $SG26342                   000000018005baf0     m_xSE9GNLJOSGMLwcrwI4qWD.obj
 0003:00009b60       $SG26345                   000000018005bb60     m_xSE9GNLJOSGMLwcrwI4qWD.obj
 0003:00009b78       $SG26348                   000000018005bb78     m_xSE9GNLJOSGMLwcrwI4qWD.obj
 0003:00009b90       $SG26346                   000000018005bb90     m_xSE9GNLJOSGMLwcrwI4qWD.obj
 0003:00009c00       $SG26349                   000000018005bc00     m_xSE9GNLJOSGMLwcrwI4qWD.obj
 0003:00009c70       $SG26352                   000000018005bc70     m_xSE9GNLJOSGMLwcrwI4qWD.obj
 0003:00009c88       $SG26355                   000000018005bc88     m_xSE9GNLJOSGMLwcrwI4qWD.obj
 0003:00009ca0       $SG26353                   000000018005bca0     m_xSE9GNLJOSGMLwcrwI4qWD.obj
 0003:00009d10       $SG26356                   000000018005bd10     m_xSE9GNLJOSGMLwcrwI4qWD.obj
 0003:00009d80       $SG26359                   000000018005bd80     m_xSE9GNLJOSGMLwcrwI4qWD.obj
 0003:00009d98       $SG26362                   000000018005bd98     m_xSE9GNLJOSGMLwcrwI4qWD.obj
 0003:00009db0       $SG26360                   000000018005bdb0     m_xSE9GNLJOSGMLwcrwI4qWD.obj
 0003:00009e20       $SG26363                   000000018005be20     m_xSE9GNLJOSGMLwcrwI4qWD.obj
 0003:00009e90       $SG26366                   000000018005be90     m_xSE9GNLJOSGMLwcrwI4qWD.obj
 0003:00009ea8       $SG26369                   000000018005bea8     m_xSE9GNLJOSGMLwcrwI4qWD.obj
 0003:00009ec0       $SG26367                   000000018005bec0     m_xSE9GNLJOSGMLwcrwI4qWD.obj
 0003:00009f30       $SG26370                   000000018005bf30     m_xSE9GNLJOSGMLwcrwI4qWD.obj
 0003:00009fa0       $SG26373                   000000018005bfa0     m_xSE9GNLJOSGMLwcrwI4qWD.obj
 0003:00009fb8       $SG26377                   000000018005bfb8     m_xSE9GNLJOSGMLwcrwI4qWD.obj
 0003:00009fd0       $SG26374                   000000018005bfd0     m_xSE9GNLJOSGMLwcrwI4qWD.obj
 0003:0000a040       $SG26378                   000000018005c040     m_xSE9GNLJOSGMLwcrwI4qWD.obj
 0003:0000a0b0       $SG26381                   000000018005c0b0     m_xSE9GNLJOSGMLwcrwI4qWD.obj
 0003:0000a0c8       $SG26384                   000000018005c0c8     m_xSE9GNLJOSGMLwcrwI4qWD.obj
 0003:0000a0e0       $SG26382                   000000018005c0e0     m_xSE9GNLJOSGMLwcrwI4qWD.obj
 0003:0000a150       $SG26385                   000000018005c150     m_xSE9GNLJOSGMLwcrwI4qWD.obj
 0003:0000a1c0       $SG26388                   000000018005c1c0     m_xSE9GNLJOSGMLwcrwI4qWD.obj
 0003:0000a1d8       $SG26392                   000000018005c1d8     m_xSE9GNLJOSGMLwcrwI4qWD.obj
 0003:0000a1f0       $SG26389                   000000018005c1f0     m_xSE9GNLJOSGMLwcrwI4qWD.obj
 0003:0000a260       $SG26393                   000000018005c260     m_xSE9GNLJOSGMLwcrwI4qWD.obj
 0003:0000a2d0       $SG26396                   000000018005c2d0     m_xSE9GNLJOSGMLwcrwI4qWD.obj
 0003:0000a2e8       $SG26400                   000000018005c2e8     m_xSE9GNLJOSGMLwcrwI4qWD.obj
 0003:0000a300       $SG26397                   000000018005c300     m_xSE9GNLJOSGMLwcrwI4qWD.obj
 0003:0000a370       $SG26401                   000000018005c370     m_xSE9GNLJOSGMLwcrwI4qWD.obj
 0003:0000a3e0       $SG26404                   000000018005c3e0     m_xSE9GNLJOSGMLwcrwI4qWD.obj
 0003:0000a3f8       $SG26408                   000000018005c3f8     m_xSE9GNLJOSGMLwcrwI4qWD.obj
 0003:0000a410       $SG26405                   000000018005c410     m_xSE9GNLJOSGMLwcrwI4qWD.obj
 0003:0000a480       $SG26409                   000000018005c480     m_xSE9GNLJOSGMLwcrwI4qWD.obj
 0003:0000a4f0       $SG26412                   000000018005c4f0     m_xSE9GNLJOSGMLwcrwI4qWD.obj
 0003:0000a508       $SG26416                   000000018005c508     m_xSE9GNLJOSGMLwcrwI4qWD.obj
 0003:0000a520       $SG26413                   000000018005c520     m_xSE9GNLJOSGMLwcrwI4qWD.obj
 0003:0000a590       $SG26417                   000000018005c590     m_xSE9GNLJOSGMLwcrwI4qWD.obj
 0003:0000a600       $SG26420                   000000018005c600     m_xSE9GNLJOSGMLwcrwI4qWD.obj
 0003:0000a618       $SG26424                   000000018005c618     m_xSE9GNLJOSGMLwcrwI4qWD.obj
 0003:0000a630       $SG26421                   000000018005c630     m_xSE9GNLJOSGMLwcrwI4qWD.obj
 0003:0000a6a0       $SG26425                   000000018005c6a0     m_xSE9GNLJOSGMLwcrwI4qWD.obj
 0003:0000a710       $SG26428                   000000018005c710     m_xSE9GNLJOSGMLwcrwI4qWD.obj
 0003:0000a728       $SG26432                   000000018005c728     m_xSE9GNLJOSGMLwcrwI4qWD.obj
 0003:0000a740       $SG26429                   000000018005c740     m_xSE9GNLJOSGMLwcrwI4qWD.obj
 0003:0000a7b0       $SG26433                   000000018005c7b0     m_xSE9GNLJOSGMLwcrwI4qWD.obj
 0003:0000a820       $SG26435                   000000018005c820     m_xSE9GNLJOSGMLwcrwI4qWD.obj
 0003:0000a838       $SG26439                   000000018005c838     m_xSE9GNLJOSGMLwcrwI4qWD.obj
 0003:0000a850       $SG26436                   000000018005c850     m_xSE9GNLJOSGMLwcrwI4qWD.obj
 0003:0000a8c0       $SG26440                   000000018005c8c0     m_xSE9GNLJOSGMLwcrwI4qWD.obj
 0003:0000a930       $SG26443                   000000018005c930     m_xSE9GNLJOSGMLwcrwI4qWD.obj
 0003:0000a948       $SG26447                   000000018005c948     m_xSE9GNLJOSGMLwcrwI4qWD.obj
 0003:0000a960       $SG26444                   000000018005c960     m_xSE9GNLJOSGMLwcrwI4qWD.obj
 0003:0000a9d0       $SG26448                   000000018005c9d0     m_xSE9GNLJOSGMLwcrwI4qWD.obj
 0003:0000aa40       $SG26451                   000000018005ca40     m_xSE9GNLJOSGMLwcrwI4qWD.obj
 0003:0000aa58       $SG26454                   000000018005ca58     m_xSE9GNLJOSGMLwcrwI4qWD.obj
 0003:0000aa70       $SG26452                   000000018005ca70     m_xSE9GNLJOSGMLwcrwI4qWD.obj
 0003:0000aae0       $SG26455                   000000018005cae0     m_xSE9GNLJOSGMLwcrwI4qWD.obj
 0003:0000ab50       $SG26458                   000000018005cb50     m_xSE9GNLJOSGMLwcrwI4qWD.obj
 0003:0000ab68       $SG26461                   000000018005cb68     m_xSE9GNLJOSGMLwcrwI4qWD.obj
 0003:0000ab80       $SG26459                   000000018005cb80     m_xSE9GNLJOSGMLwcrwI4qWD.obj
 0003:0000abf0       $SG26462                   000000018005cbf0     m_xSE9GNLJOSGMLwcrwI4qWD.obj
 0003:0000ac60       $SG26465                   000000018005cc60     m_xSE9GNLJOSGMLwcrwI4qWD.obj
 0003:0000ac78       $SG26468                   000000018005cc78     m_xSE9GNLJOSGMLwcrwI4qWD.obj
 0003:0000ac90       $SG26466                   000000018005cc90     m_xSE9GNLJOSGMLwcrwI4qWD.obj
 0003:0000ad00       $SG26469                   000000018005cd00     m_xSE9GNLJOSGMLwcrwI4qWD.obj
 0003:0000ad70       $SG26472                   000000018005cd70     m_xSE9GNLJOSGMLwcrwI4qWD.obj
 0003:0000ad88       $SG26475                   000000018005cd88     m_xSE9GNLJOSGMLwcrwI4qWD.obj
 0003:0000ada0       $SG26473                   000000018005cda0     m_xSE9GNLJOSGMLwcrwI4qWD.obj
 0003:0000ae10       $SG26476                   000000018005ce10     m_xSE9GNLJOSGMLwcrwI4qWD.obj
 0003:0000ae80       $SG26479                   000000018005ce80     m_xSE9GNLJOSGMLwcrwI4qWD.obj
 0003:0000ae98       $SG26482                   000000018005ce98     m_xSE9GNLJOSGMLwcrwI4qWD.obj
 0003:0000aeb0       $SG26480                   000000018005ceb0     m_xSE9GNLJOSGMLwcrwI4qWD.obj
 0003:0000af20       $SG26483                   000000018005cf20     m_xSE9GNLJOSGMLwcrwI4qWD.obj
 0003:0000af90       $SG26486                   000000018005cf90     m_xSE9GNLJOSGMLwcrwI4qWD.obj
 0003:0000afa8       $SG26490                   000000018005cfa8     m_xSE9GNLJOSGMLwcrwI4qWD.obj
 0003:0000afc0       $SG26487                   000000018005cfc0     m_xSE9GNLJOSGMLwcrwI4qWD.obj
 0003:0000b030       $SG26491                   000000018005d030     m_xSE9GNLJOSGMLwcrwI4qWD.obj
 0003:0000b0a0       $SG26494                   000000018005d0a0     m_xSE9GNLJOSGMLwcrwI4qWD.obj
 0003:0000b0b8       $SG26498                   000000018005d0b8     m_xSE9GNLJOSGMLwcrwI4qWD.obj
 0003:0000b0d0       $SG26495                   000000018005d0d0     m_xSE9GNLJOSGMLwcrwI4qWD.obj
 0003:0000b140       $SG26499                   000000018005d140     m_xSE9GNLJOSGMLwcrwI4qWD.obj
 0003:0000b1b0       $SG26502                   000000018005d1b0     m_xSE9GNLJOSGMLwcrwI4qWD.obj
 0003:0000b1c8       $SG26506                   000000018005d1c8     m_xSE9GNLJOSGMLwcrwI4qWD.obj
 0003:0000b1e0       $SG26503                   000000018005d1e0     m_xSE9GNLJOSGMLwcrwI4qWD.obj
 0003:0000b250       $SG26507                   000000018005d250     m_xSE9GNLJOSGMLwcrwI4qWD.obj
 0003:0000b2c0       $SG26510                   000000018005d2c0     m_xSE9GNLJOSGMLwcrwI4qWD.obj
 0003:0000b2d8       $SG26514                   000000018005d2d8     m_xSE9GNLJOSGMLwcrwI4qWD.obj
 0003:0000b2f0       $SG26511                   000000018005d2f0     m_xSE9GNLJOSGMLwcrwI4qWD.obj
 0003:0000b360       $SG26515                   000000018005d360     m_xSE9GNLJOSGMLwcrwI4qWD.obj
 0003:0000b3d0       $SG26517                   000000018005d3d0     m_xSE9GNLJOSGMLwcrwI4qWD.obj
 0003:0000b3e8       $SG26520                   000000018005d3e8     m_xSE9GNLJOSGMLwcrwI4qWD.obj
 0003:0000b400       $SG26518                   000000018005d400     m_xSE9GNLJOSGMLwcrwI4qWD.obj
 0003:0000b470       $SG26521                   000000018005d470     m_xSE9GNLJOSGMLwcrwI4qWD.obj
 0003:0000b4e0       $SG26523                   000000018005d4e0     m_xSE9GNLJOSGMLwcrwI4qWD.obj
 0003:0000b4f8       $SG26526                   000000018005d4f8     m_xSE9GNLJOSGMLwcrwI4qWD.obj
 0003:0000b510       $SG26524                   000000018005d510     m_xSE9GNLJOSGMLwcrwI4qWD.obj
 0003:0000b580       $SG26527                   000000018005d580     m_xSE9GNLJOSGMLwcrwI4qWD.obj
 0003:0000b5f0       $SG26529                   000000018005d5f0     m_xSE9GNLJOSGMLwcrwI4qWD.obj
 0003:0000b608       $SG26532                   000000018005d608     m_xSE9GNLJOSGMLwcrwI4qWD.obj
 0003:0000b620       $SG26530                   000000018005d620     m_xSE9GNLJOSGMLwcrwI4qWD.obj
 0003:0000b690       $SG26533                   000000018005d690     m_xSE9GNLJOSGMLwcrwI4qWD.obj
 0003:0000b700       $SG26536                   000000018005d700     m_xSE9GNLJOSGMLwcrwI4qWD.obj
 0003:0000b718       $SG26540                   000000018005d718     m_xSE9GNLJOSGMLwcrwI4qWD.obj
 0003:0000b730       $SG26537                   000000018005d730     m_xSE9GNLJOSGMLwcrwI4qWD.obj
 0003:0000b7a0       $SG26541                   000000018005d7a0     m_xSE9GNLJOSGMLwcrwI4qWD.obj
 0003:0000b810       $SG26544                   000000018005d810     m_xSE9GNLJOSGMLwcrwI4qWD.obj
 0003:0000b828       $SG26548                   000000018005d828     m_xSE9GNLJOSGMLwcrwI4qWD.obj
 0003:0000b840       $SG26545                   000000018005d840     m_xSE9GNLJOSGMLwcrwI4qWD.obj
 0003:0000b8b0       $SG26549                   000000018005d8b0     m_xSE9GNLJOSGMLwcrwI4qWD.obj
 0003:0000b920       $SG26551                   000000018005d920     m_xSE9GNLJOSGMLwcrwI4qWD.obj
 0003:0000b938       $SG26555                   000000018005d938     m_xSE9GNLJOSGMLwcrwI4qWD.obj
 0003:0000b950       $SG26552                   000000018005d950     m_xSE9GNLJOSGMLwcrwI4qWD.obj
 0003:0000b9c0       $SG26556                   000000018005d9c0     m_xSE9GNLJOSGMLwcrwI4qWD.obj
 0003:0000ba30       $SG26558                   000000018005da30     m_xSE9GNLJOSGMLwcrwI4qWD.obj
 0003:0000ba48       $SG26562                   000000018005da48     m_xSE9GNLJOSGMLwcrwI4qWD.obj
 0003:0000ba60       $SG26559                   000000018005da60     m_xSE9GNLJOSGMLwcrwI4qWD.obj
 0003:0000bad0       $SG26563                   000000018005dad0     m_xSE9GNLJOSGMLwcrwI4qWD.obj
 0003:0000bb40       $SG26565                   000000018005db40     m_xSE9GNLJOSGMLwcrwI4qWD.obj
 0003:0000bb58       $SG26569                   000000018005db58     m_xSE9GNLJOSGMLwcrwI4qWD.obj
 0003:0000bb70       $SG26566                   000000018005db70     m_xSE9GNLJOSGMLwcrwI4qWD.obj
 0003:0000bbe0       $SG26570                   000000018005dbe0     m_xSE9GNLJOSGMLwcrwI4qWD.obj
 0003:0000bc50       $SG26572                   000000018005dc50     m_xSE9GNLJOSGMLwcrwI4qWD.obj
 0003:0000bc68       $SG26576                   000000018005dc68     m_xSE9GNLJOSGMLwcrwI4qWD.obj
 0003:0000bc80       $SG26573                   000000018005dc80     m_xSE9GNLJOSGMLwcrwI4qWD.obj
 0003:0000bcf0       $SG26577                   000000018005dcf0     m_xSE9GNLJOSGMLwcrwI4qWD.obj
 0003:0000bd60       $SG26580                   000000018005dd60     m_xSE9GNLJOSGMLwcrwI4qWD.obj
 0003:0000bd78       $SG26584                   000000018005dd78     m_xSE9GNLJOSGMLwcrwI4qWD.obj
 0003:0000bd90       $SG26581                   000000018005dd90     m_xSE9GNLJOSGMLwcrwI4qWD.obj
 0003:0000be00       $SG26585                   000000018005de00     m_xSE9GNLJOSGMLwcrwI4qWD.obj
 0003:0000be70       $SG26588                   000000018005de70     m_xSE9GNLJOSGMLwcrwI4qWD.obj
 0003:0000be88       $SG26612                   000000018005de88     m_xSE9GNLJOSGMLwcrwI4qWD.obj
 0003:0000bea0       $SG26589                   000000018005dea0     m_xSE9GNLJOSGMLwcrwI4qWD.obj
 0003:0000bf10       $SG26592                   000000018005df10     m_xSE9GNLJOSGMLwcrwI4qWD.obj
 0003:0000bf20       $SG26593                   000000018005df20     m_xSE9GNLJOSGMLwcrwI4qWD.obj
 0003:0000bf88       $SG26595                   000000018005df88     m_xSE9GNLJOSGMLwcrwI4qWD.obj
 0003:0000bf98       $SG26615                   000000018005df98     m_xSE9GNLJOSGMLwcrwI4qWD.obj
 0003:0000bfb0       $SG26596                   000000018005dfb0     m_xSE9GNLJOSGMLwcrwI4qWD.obj
 0003:0000c018       $SG26599                   000000018005e018     m_xSE9GNLJOSGMLwcrwI4qWD.obj
 0003:0000c028       $SG26618                   000000018005e028     m_xSE9GNLJOSGMLwcrwI4qWD.obj
 0003:0000c040       $SG26600                   000000018005e040     m_xSE9GNLJOSGMLwcrwI4qWD.obj
 0003:0000c0a8       $SG26603                   000000018005e0a8     m_xSE9GNLJOSGMLwcrwI4qWD.obj
 0003:0000c0c0       $SG26604                   000000018005e0c0     m_xSE9GNLJOSGMLwcrwI4qWD.obj
 0003:0000c130       $SG26607                   000000018005e130     m_xSE9GNLJOSGMLwcrwI4qWD.obj
 0003:0000c180       $SG26610                   000000018005e180     m_xSE9GNLJOSGMLwcrwI4qWD.obj
 0003:0000c1e0       $SG26613                   000000018005e1e0     m_xSE9GNLJOSGMLwcrwI4qWD.obj
 0003:0000c230       $SG26616                   000000018005e230     m_xSE9GNLJOSGMLwcrwI4qWD.obj
 0003:0000c280       $SG26619                   000000018005e280     m_xSE9GNLJOSGMLwcrwI4qWD.obj
 0003:0000c2e0       $SG26622                   000000018005e2e0     m_xSE9GNLJOSGMLwcrwI4qWD.obj
 0003:0000c328       emlrtRSI                   000000018005e328     m_xSE9GNLJOSGMLwcrwI4qWD.obj
 0003:0000c340       b_emlrtRSI                 000000018005e340     m_xSE9GNLJOSGMLwcrwI4qWD.obj
 0003:0000c358       c_emlrtRSI                 000000018005e358     m_xSE9GNLJOSGMLwcrwI4qWD.obj
 0003:0000c370       d_emlrtRSI                 000000018005e370     m_xSE9GNLJOSGMLwcrwI4qWD.obj
 0003:0000c388       e_emlrtRSI                 000000018005e388     m_xSE9GNLJOSGMLwcrwI4qWD.obj
 0003:0000c3a0       f_emlrtRSI                 000000018005e3a0     m_xSE9GNLJOSGMLwcrwI4qWD.obj
 0003:0000c3b8       g_emlrtRSI                 000000018005e3b8     m_xSE9GNLJOSGMLwcrwI4qWD.obj
 0003:0000c3d0       h_emlrtRSI                 000000018005e3d0     m_xSE9GNLJOSGMLwcrwI4qWD.obj
 0003:0000c3e8       i_emlrtRSI                 000000018005e3e8     m_xSE9GNLJOSGMLwcrwI4qWD.obj
 0003:0000c400       j_emlrtRSI                 000000018005e400     m_xSE9GNLJOSGMLwcrwI4qWD.obj
 0003:0000c418       k_emlrtRSI                 000000018005e418     m_xSE9GNLJOSGMLwcrwI4qWD.obj
 0003:0000c430       l_emlrtRSI                 000000018005e430     m_xSE9GNLJOSGMLwcrwI4qWD.obj
 0003:0000c448       m_emlrtRSI                 000000018005e448     m_xSE9GNLJOSGMLwcrwI4qWD.obj
 0003:0000c460       n_emlrtRSI                 000000018005e460     m_xSE9GNLJOSGMLwcrwI4qWD.obj
 0003:0000c478       o_emlrtRSI                 000000018005e478     m_xSE9GNLJOSGMLwcrwI4qWD.obj
 0003:0000c490       p_emlrtRSI                 000000018005e490     m_xSE9GNLJOSGMLwcrwI4qWD.obj
 0003:0000c4a8       q_emlrtRSI                 000000018005e4a8     m_xSE9GNLJOSGMLwcrwI4qWD.obj
 0003:0000c4c0       r_emlrtRSI                 000000018005e4c0     m_xSE9GNLJOSGMLwcrwI4qWD.obj
 0003:0000c4d8       s_emlrtRSI                 000000018005e4d8     m_xSE9GNLJOSGMLwcrwI4qWD.obj
 0003:0000c4f0       t_emlrtRSI                 000000018005e4f0     m_xSE9GNLJOSGMLwcrwI4qWD.obj
 0003:0000c508       u_emlrtRSI                 000000018005e508     m_xSE9GNLJOSGMLwcrwI4qWD.obj
 0003:0000c520       v_emlrtRSI                 000000018005e520     m_xSE9GNLJOSGMLwcrwI4qWD.obj
 0003:0000c538       w_emlrtRSI                 000000018005e538     m_xSE9GNLJOSGMLwcrwI4qWD.obj
 0003:0000c550       x_emlrtRSI                 000000018005e550     m_xSE9GNLJOSGMLwcrwI4qWD.obj
 0003:0000c568       y_emlrtRSI                 000000018005e568     m_xSE9GNLJOSGMLwcrwI4qWD.obj
 0003:0000c580       ab_emlrtRSI                000000018005e580     m_xSE9GNLJOSGMLwcrwI4qWD.obj
 0003:0000c598       bb_emlrtRSI                000000018005e598     m_xSE9GNLJOSGMLwcrwI4qWD.obj
 0003:0000c5b0       cb_emlrtRSI                000000018005e5b0     m_xSE9GNLJOSGMLwcrwI4qWD.obj
 0003:0000c5c8       db_emlrtRSI                000000018005e5c8     m_xSE9GNLJOSGMLwcrwI4qWD.obj
 0003:0000c5e0       eb_emlrtRSI                000000018005e5e0     m_xSE9GNLJOSGMLwcrwI4qWD.obj
 0003:0000c5f8       fb_emlrtRSI                000000018005e5f8     m_xSE9GNLJOSGMLwcrwI4qWD.obj
 0003:0000c610       gb_emlrtRSI                000000018005e610     m_xSE9GNLJOSGMLwcrwI4qWD.obj
 0003:0000c628       hb_emlrtRSI                000000018005e628     m_xSE9GNLJOSGMLwcrwI4qWD.obj
 0003:0000c640       ib_emlrtRSI                000000018005e640     m_xSE9GNLJOSGMLwcrwI4qWD.obj
 0003:0000c658       jb_emlrtRSI                000000018005e658     m_xSE9GNLJOSGMLwcrwI4qWD.obj
 0003:0000c670       kb_emlrtRSI                000000018005e670     m_xSE9GNLJOSGMLwcrwI4qWD.obj
 0003:0000c688       lb_emlrtRSI                000000018005e688     m_xSE9GNLJOSGMLwcrwI4qWD.obj
 0003:0000c6a0       mb_emlrtRSI                000000018005e6a0     m_xSE9GNLJOSGMLwcrwI4qWD.obj
 0003:0000c6b8       nb_emlrtRSI                000000018005e6b8     m_xSE9GNLJOSGMLwcrwI4qWD.obj
 0003:0000c6d0       ob_emlrtRSI                000000018005e6d0     m_xSE9GNLJOSGMLwcrwI4qWD.obj
 0003:0000c6e8       pb_emlrtRSI                000000018005e6e8     m_xSE9GNLJOSGMLwcrwI4qWD.obj
 0003:0000c700       qb_emlrtRSI                000000018005e700     m_xSE9GNLJOSGMLwcrwI4qWD.obj
 0003:0000c718       rb_emlrtRSI                000000018005e718     m_xSE9GNLJOSGMLwcrwI4qWD.obj
 0003:0000c730       sb_emlrtRSI                000000018005e730     m_xSE9GNLJOSGMLwcrwI4qWD.obj
 0003:0000c748       tb_emlrtRSI                000000018005e748     m_xSE9GNLJOSGMLwcrwI4qWD.obj
 0003:0000c760       ub_emlrtRSI                000000018005e760     m_xSE9GNLJOSGMLwcrwI4qWD.obj
 0003:0000c778       vb_emlrtRSI                000000018005e778     m_xSE9GNLJOSGMLwcrwI4qWD.obj
 0003:0000c790       wb_emlrtRSI                000000018005e790     m_xSE9GNLJOSGMLwcrwI4qWD.obj
 0003:0000c7a8       xb_emlrtRSI                000000018005e7a8     m_xSE9GNLJOSGMLwcrwI4qWD.obj
 0003:0000c7c0       yb_emlrtRSI                000000018005e7c0     m_xSE9GNLJOSGMLwcrwI4qWD.obj
 0003:0000c7d8       ac_emlrtRSI                000000018005e7d8     m_xSE9GNLJOSGMLwcrwI4qWD.obj
 0003:0000c7f0       bc_emlrtRSI                000000018005e7f0     m_xSE9GNLJOSGMLwcrwI4qWD.obj
 0003:0000c808       emlrtMCI                   000000018005e808     m_xSE9GNLJOSGMLwcrwI4qWD.obj
 0003:0000c820       b_emlrtMCI                 000000018005e820     m_xSE9GNLJOSGMLwcrwI4qWD.obj
 0003:0000c838       c_emlrtMCI                 000000018005e838     m_xSE9GNLJOSGMLwcrwI4qWD.obj
 0003:0000c850       d_emlrtMCI                 000000018005e850     m_xSE9GNLJOSGMLwcrwI4qWD.obj
 0003:0000c868       e_emlrtMCI                 000000018005e868     m_xSE9GNLJOSGMLwcrwI4qWD.obj
 0003:0000c880       f_emlrtMCI                 000000018005e880     m_xSE9GNLJOSGMLwcrwI4qWD.obj
 0003:0000c898       g_emlrtMCI                 000000018005e898     m_xSE9GNLJOSGMLwcrwI4qWD.obj
 0003:0000c8b0       emlrtRTEI                  000000018005e8b0     m_xSE9GNLJOSGMLwcrwI4qWD.obj
 0003:0000c8c8       emlrtBCI                   000000018005e8c8     m_xSE9GNLJOSGMLwcrwI4qWD.obj
 0003:0000c8f8       emlrtDCI                   000000018005e8f8     m_xSE9GNLJOSGMLwcrwI4qWD.obj
 0003:0000c918       b_emlrtDCI                 000000018005e918     m_xSE9GNLJOSGMLwcrwI4qWD.obj
 0003:0000c938       c_emlrtDCI                 000000018005e938     m_xSE9GNLJOSGMLwcrwI4qWD.obj
 0003:0000c958       d_emlrtDCI                 000000018005e958     m_xSE9GNLJOSGMLwcrwI4qWD.obj
 0003:0000c978       e_emlrtDCI                 000000018005e978     m_xSE9GNLJOSGMLwcrwI4qWD.obj
 0003:0000c998       f_emlrtDCI                 000000018005e998     m_xSE9GNLJOSGMLwcrwI4qWD.obj
 0003:0000c9b8       b_emlrtRTEI                000000018005e9b8     m_xSE9GNLJOSGMLwcrwI4qWD.obj
 0003:0000c9d0       c_emlrtRTEI                000000018005e9d0     m_xSE9GNLJOSGMLwcrwI4qWD.obj
 0003:0000c9e8       g_emlrtDCI                 000000018005e9e8     m_xSE9GNLJOSGMLwcrwI4qWD.obj
 0003:0000ca08       b_emlrtBCI                 000000018005ea08     m_xSE9GNLJOSGMLwcrwI4qWD.obj
 0003:0000ca38       h_emlrtDCI                 000000018005ea38     m_xSE9GNLJOSGMLwcrwI4qWD.obj
 0003:0000ca58       c_emlrtBCI                 000000018005ea58     m_xSE9GNLJOSGMLwcrwI4qWD.obj
 0003:0000ca88       i_emlrtDCI                 000000018005ea88     m_xSE9GNLJOSGMLwcrwI4qWD.obj
 0003:0000caa8       d_emlrtBCI                 000000018005eaa8     m_xSE9GNLJOSGMLwcrwI4qWD.obj
 0003:0000cad8       j_emlrtDCI                 000000018005ead8     m_xSE9GNLJOSGMLwcrwI4qWD.obj
 0003:0000caf8       e_emlrtBCI                 000000018005eaf8     m_xSE9GNLJOSGMLwcrwI4qWD.obj
 0003:0000cb28       k_emlrtDCI                 000000018005eb28     m_xSE9GNLJOSGMLwcrwI4qWD.obj
 0003:0000cb48       f_emlrtBCI                 000000018005eb48     m_xSE9GNLJOSGMLwcrwI4qWD.obj
 0003:0000cb78       l_emlrtDCI                 000000018005eb78     m_xSE9GNLJOSGMLwcrwI4qWD.obj
 0003:0000cb98       g_emlrtBCI                 000000018005eb98     m_xSE9GNLJOSGMLwcrwI4qWD.obj
 0003:0000cbc8       h_emlrtBCI                 000000018005ebc8     m_xSE9GNLJOSGMLwcrwI4qWD.obj
 0003:0000cbf8       i_emlrtBCI                 000000018005ebf8     m_xSE9GNLJOSGMLwcrwI4qWD.obj
 0003:0000cc28       m_emlrtDCI                 000000018005ec28     m_xSE9GNLJOSGMLwcrwI4qWD.obj
 0003:0000cc48       j_emlrtBCI                 000000018005ec48     m_xSE9GNLJOSGMLwcrwI4qWD.obj
 0003:0000cc78       k_emlrtBCI                 000000018005ec78     m_xSE9GNLJOSGMLwcrwI4qWD.obj
 0003:0000cca8       l_emlrtBCI                 000000018005eca8     m_xSE9GNLJOSGMLwcrwI4qWD.obj
 0003:0000ccd8       m_emlrtBCI                 000000018005ecd8     m_xSE9GNLJOSGMLwcrwI4qWD.obj
 0003:0000cd08       n_emlrtBCI                 000000018005ed08     m_xSE9GNLJOSGMLwcrwI4qWD.obj
 0003:0000cd38       o_emlrtBCI                 000000018005ed38     m_xSE9GNLJOSGMLwcrwI4qWD.obj
 0003:0000cd68       p_emlrtBCI                 000000018005ed68     m_xSE9GNLJOSGMLwcrwI4qWD.obj
 0003:0000cd98       q_emlrtBCI                 000000018005ed98     m_xSE9GNLJOSGMLwcrwI4qWD.obj
 0003:0000cdc8       r_emlrtBCI                 000000018005edc8     m_xSE9GNLJOSGMLwcrwI4qWD.obj
 0003:0000cdf8       s_emlrtBCI                 000000018005edf8     m_xSE9GNLJOSGMLwcrwI4qWD.obj
 0003:0000ce28       t_emlrtBCI                 000000018005ee28     m_xSE9GNLJOSGMLwcrwI4qWD.obj
 0003:0000ce58       u_emlrtBCI                 000000018005ee58     m_xSE9GNLJOSGMLwcrwI4qWD.obj
 0003:0000ce88       d_emlrtRTEI                000000018005ee88     m_xSE9GNLJOSGMLwcrwI4qWD.obj
 0003:0000cea0       v_emlrtBCI                 000000018005eea0     m_xSE9GNLJOSGMLwcrwI4qWD.obj
 0003:0000ced0       w_emlrtBCI                 000000018005eed0     m_xSE9GNLJOSGMLwcrwI4qWD.obj
 0003:0000cf00       x_emlrtBCI                 000000018005ef00     m_xSE9GNLJOSGMLwcrwI4qWD.obj
 0003:0000cf30       y_emlrtBCI                 000000018005ef30     m_xSE9GNLJOSGMLwcrwI4qWD.obj
 0003:0000cf60       n_emlrtDCI                 000000018005ef60     m_xSE9GNLJOSGMLwcrwI4qWD.obj
 0003:0000cf80       ab_emlrtBCI                000000018005ef80     m_xSE9GNLJOSGMLwcrwI4qWD.obj
 0003:0000cfb0       o_emlrtDCI                 000000018005efb0     m_xSE9GNLJOSGMLwcrwI4qWD.obj
 0003:0000cfd0       bb_emlrtBCI                000000018005efd0     m_xSE9GNLJOSGMLwcrwI4qWD.obj
 0003:0000d000       p_emlrtDCI                 000000018005f000     m_xSE9GNLJOSGMLwcrwI4qWD.obj
 0003:0000d020       cb_emlrtBCI                000000018005f020     m_xSE9GNLJOSGMLwcrwI4qWD.obj
 0003:0000d050       q_emlrtDCI                 000000018005f050     m_xSE9GNLJOSGMLwcrwI4qWD.obj
 0003:0000d070       db_emlrtBCI                000000018005f070     m_xSE9GNLJOSGMLwcrwI4qWD.obj
 0003:0000d0a0       emlrtECI                   000000018005f0a0     m_xSE9GNLJOSGMLwcrwI4qWD.obj
 0003:0000d0c0       eb_emlrtBCI                000000018005f0c0     m_xSE9GNLJOSGMLwcrwI4qWD.obj
 0003:0000d0f0       fb_emlrtBCI                000000018005f0f0     m_xSE9GNLJOSGMLwcrwI4qWD.obj
 0003:0000d120       gb_emlrtBCI                000000018005f120     m_xSE9GNLJOSGMLwcrwI4qWD.obj
 0003:0000d150       hb_emlrtBCI                000000018005f150     m_xSE9GNLJOSGMLwcrwI4qWD.obj
 0003:0000d180       ib_emlrtBCI                000000018005f180     m_xSE9GNLJOSGMLwcrwI4qWD.obj
 0003:0000d1b0       jb_emlrtBCI                000000018005f1b0     m_xSE9GNLJOSGMLwcrwI4qWD.obj
 0003:0000d1e0       kb_emlrtBCI                000000018005f1e0     m_xSE9GNLJOSGMLwcrwI4qWD.obj
 0003:0000d210       lb_emlrtBCI                000000018005f210     m_xSE9GNLJOSGMLwcrwI4qWD.obj
 0003:0000d240       r_emlrtDCI                 000000018005f240     m_xSE9GNLJOSGMLwcrwI4qWD.obj
 0003:0000d260       s_emlrtDCI                 000000018005f260     m_xSE9GNLJOSGMLwcrwI4qWD.obj
 0003:0000d280       t_emlrtDCI                 000000018005f280     m_xSE9GNLJOSGMLwcrwI4qWD.obj
 0003:0000d2a0       u_emlrtDCI                 000000018005f2a0     m_xSE9GNLJOSGMLwcrwI4qWD.obj
 0003:0000d2c0       v_emlrtDCI                 000000018005f2c0     m_xSE9GNLJOSGMLwcrwI4qWD.obj
 0003:0000d2e0       w_emlrtDCI                 000000018005f2e0     m_xSE9GNLJOSGMLwcrwI4qWD.obj
 0003:0000d300       mb_emlrtBCI                000000018005f300     m_xSE9GNLJOSGMLwcrwI4qWD.obj
 0003:0000d330       nb_emlrtBCI                000000018005f330     m_xSE9GNLJOSGMLwcrwI4qWD.obj
 0003:0000d360       ob_emlrtBCI                000000018005f360     m_xSE9GNLJOSGMLwcrwI4qWD.obj
 0003:0000d390       pb_emlrtBCI                000000018005f390     m_xSE9GNLJOSGMLwcrwI4qWD.obj
 0003:0000d3c0       x_emlrtDCI                 000000018005f3c0     m_xSE9GNLJOSGMLwcrwI4qWD.obj
 0003:0000d3e0       qb_emlrtBCI                000000018005f3e0     m_xSE9GNLJOSGMLwcrwI4qWD.obj
 0003:0000d410       y_emlrtDCI                 000000018005f410     m_xSE9GNLJOSGMLwcrwI4qWD.obj
 0003:0000d430       rb_emlrtBCI                000000018005f430     m_xSE9GNLJOSGMLwcrwI4qWD.obj
 0003:0000d460       ab_emlrtDCI                000000018005f460     m_xSE9GNLJOSGMLwcrwI4qWD.obj
 0003:0000d480       sb_emlrtBCI                000000018005f480     m_xSE9GNLJOSGMLwcrwI4qWD.obj
 0003:0000d4b0       bb_emlrtDCI                000000018005f4b0     m_xSE9GNLJOSGMLwcrwI4qWD.obj
 0003:0000d4d0       tb_emlrtBCI                000000018005f4d0     m_xSE9GNLJOSGMLwcrwI4qWD.obj
 0003:0000d500       ub_emlrtBCI                000000018005f500     m_xSE9GNLJOSGMLwcrwI4qWD.obj
 0003:0000d530       vb_emlrtBCI                000000018005f530     m_xSE9GNLJOSGMLwcrwI4qWD.obj
 0003:0000d560       wb_emlrtBCI                000000018005f560     m_xSE9GNLJOSGMLwcrwI4qWD.obj
 0003:0000d590       xb_emlrtBCI                000000018005f590     m_xSE9GNLJOSGMLwcrwI4qWD.obj
 0003:0000d5c0       e_emlrtRTEI                000000018005f5c0     m_xSE9GNLJOSGMLwcrwI4qWD.obj
 0003:0000d5d8       yb_emlrtBCI                000000018005f5d8     m_xSE9GNLJOSGMLwcrwI4qWD.obj
 0003:0000d608       ac_emlrtBCI                000000018005f608     m_xSE9GNLJOSGMLwcrwI4qWD.obj
 0003:0000d638       cc_emlrtRSI                000000018005f638     m_xSE9GNLJOSGMLwcrwI4qWD.obj
 0003:0000d650       dc_emlrtRSI                000000018005f650     m_xSE9GNLJOSGMLwcrwI4qWD.obj
 0003:0000d668       ec_emlrtRSI                000000018005f668     m_xSE9GNLJOSGMLwcrwI4qWD.obj
 0003:0000d680       fc_emlrtRSI                000000018005f680     m_xSE9GNLJOSGMLwcrwI4qWD.obj
 0003:0000d698       gc_emlrtRSI                000000018005f698     m_xSE9GNLJOSGMLwcrwI4qWD.obj
 0003:0000d6b0       hc_emlrtRSI                000000018005f6b0     m_xSE9GNLJOSGMLwcrwI4qWD.obj
 0003:0000d6c8       $SG27087                   000000018005f6c8     m_xSE9GNLJOSGMLwcrwI4qWD.obj
 0003:0000d6e0       $SG27088                   000000018005f6e0     m_xSE9GNLJOSGMLwcrwI4qWD.obj
 0003:0000d708       ?b_u@?1??SystemCore_setup@@9@9 000000018005f708     m_xSE9GNLJOSGMLwcrwI4qWD.obj
 0003:0000d73c       ?d_u@?1??SystemCore_setup@@9@9 000000018005f73c     m_xSE9GNLJOSGMLwcrwI4qWD.obj
 0003:0000d744       ?iv@?1??RigidBodyTree_defaultInitializeBodiesCellArray@@9@9 000000018005f744     m_xSE9GNLJOSGMLwcrwI4qWD.obj
 0003:0000d74c       ?iv2@?1??RigidBodyTree_defaultInitializeBodiesCellArray@@9@9 000000018005f74c     m_xSE9GNLJOSGMLwcrwI4qWD.obj
 0003:0000d750       ?iv@?1??VelocityProductTorqueBlock_setupImpl@@9@9 000000018005f750     m_xSE9GNLJOSGMLwcrwI4qWD.obj
 0003:0000d760       ?b_bname@?1??RigidBodyTree_defaultInitializeBodiesCellArray@@9@9 000000018005f760     m_xSE9GNLJOSGMLwcrwI4qWD.obj
 0003:0000d76c       ?iv2@?1??RigidBody_RigidBody@@9@9 000000018005f76c     m_xSE9GNLJOSGMLwcrwI4qWD.obj
 0003:0000d770       ?bname@?1??RigidBodyTree_defaultInitializeBodiesCellArray@@9@9 000000018005f770     m_xSE9GNLJOSGMLwcrwI4qWD.obj
 0003:0000d77c       ?iv2@?1??b_RigidBody_RigidBody@@9@9 000000018005f77c     m_xSE9GNLJOSGMLwcrwI4qWD.obj
 0003:0000d780       ?c_bname@?1??RigidBodyTree_defaultInitializeBodiesCellArray@@9@9 000000018005f780     m_xSE9GNLJOSGMLwcrwI4qWD.obj
 0003:0000d78c       ?iv2@?1??c_RigidBody_RigidBody@@9@9 000000018005f78c     m_xSE9GNLJOSGMLwcrwI4qWD.obj
 0003:0000d790       ?d_bname@?1??RigidBodyTree_defaultInitializeBodiesCellArray@@9@9 000000018005f790     m_xSE9GNLJOSGMLwcrwI4qWD.obj
 0003:0000d79c       ?iv2@?1??d_RigidBody_RigidBody@@9@9 000000018005f79c     m_xSE9GNLJOSGMLwcrwI4qWD.obj
 0003:0000d7a0       ?e_bname@?1??RigidBodyTree_defaultInitializeBodiesCellArray@@9@9 000000018005f7a0     m_xSE9GNLJOSGMLwcrwI4qWD.obj
 0003:0000d7ac       ?cv@?1??RigidBodyTree_defaultInitializeBodiesCellArray@@9@9 000000018005f7ac     m_xSE9GNLJOSGMLwcrwI4qWD.obj
 0003:0000d7b4       ?iv1@?1??RigidBodyTree_defaultInitializeBodiesCellArray@@9@9 000000018005f7b4     m_xSE9GNLJOSGMLwcrwI4qWD.obj
 0003:0000d7bc       ?iv2@?1??e_RigidBody_RigidBody@@9@9 000000018005f7bc     m_xSE9GNLJOSGMLwcrwI4qWD.obj
 0003:0000d7c0       ?cv@?1??b_strcmp@@9@9      000000018005f7c0     m_xSE9GNLJOSGMLwcrwI4qWD.obj
 0003:0000d7c8       ?cv@?1??c_strcmp@@9@9      000000018005f7c8     m_xSE9GNLJOSGMLwcrwI4qWD.obj
 0003:0000d7d4       ?iv@?1??RigidBody_RigidBody@@9@9 000000018005f7d4     m_xSE9GNLJOSGMLwcrwI4qWD.obj
 0003:0000d7dc       ?iv2@?1??f_RigidBody_RigidBody@@9@9 000000018005f7dc     m_xSE9GNLJOSGMLwcrwI4qWD.obj
 0003:0000d7e0       ?bname@?1??RigidBody_RigidBody@@9@9 000000018005f7e0     m_xSE9GNLJOSGMLwcrwI4qWD.obj
 0003:0000d7ec       ?cv@?1??RigidBody_RigidBody@@9@9 000000018005f7ec     m_xSE9GNLJOSGMLwcrwI4qWD.obj
 0003:0000d7f4       ?iv1@?1??RigidBody_RigidBody@@9@9 000000018005f7f4     m_xSE9GNLJOSGMLwcrwI4qWD.obj
 0003:0000d7fc       ?iv5@?1??f_RigidBody_RigidBody@@9@9 000000018005f7fc     m_xSE9GNLJOSGMLwcrwI4qWD.obj
 0003:0000d800       ?bname@?1??b_RigidBody_RigidBody@@9@9 000000018005f800     m_xSE9GNLJOSGMLwcrwI4qWD.obj
 0003:0000d80c       ?cv@?1??b_RigidBody_RigidBody@@9@9 000000018005f80c     m_xSE9GNLJOSGMLwcrwI4qWD.obj
 0003:0000d814       ?iv@?1??b_RigidBody_RigidBody@@9@9 000000018005f814     m_xSE9GNLJOSGMLwcrwI4qWD.obj
 0003:0000d81c       ?iv1@?1??b_RigidBody_RigidBody@@9@9 000000018005f81c     m_xSE9GNLJOSGMLwcrwI4qWD.obj
 0003:0000d824       ?iv2@?1??g_RigidBody_RigidBody@@9@9 000000018005f824     m_xSE9GNLJOSGMLwcrwI4qWD.obj
 0003:0000d828       ?bname@?1??c_RigidBody_RigidBody@@9@9 000000018005f828     m_xSE9GNLJOSGMLwcrwI4qWD.obj
 0003:0000d834       ?cv@?1??c_RigidBody_RigidBody@@9@9 000000018005f834     m_xSE9GNLJOSGMLwcrwI4qWD.obj
 0003:0000d83c       ?iv@?1??c_RigidBody_RigidBody@@9@9 000000018005f83c     m_xSE9GNLJOSGMLwcrwI4qWD.obj
 0003:0000d844       ?iv1@?1??c_RigidBody_RigidBody@@9@9 000000018005f844     m_xSE9GNLJOSGMLwcrwI4qWD.obj
 0003:0000d850       ?dv@?1??d_RigidBody_RigidBody@@9@9 000000018005f850     m_xSE9GNLJOSGMLwcrwI4qWD.obj
 0003:0000d970       ?cv@?1??d_RigidBody_RigidBody@@9@9 000000018005f970     m_xSE9GNLJOSGMLwcrwI4qWD.obj
 0003:0000d978       ?cv1@?1??d_RigidBody_RigidBody@@9@9 000000018005f978     m_xSE9GNLJOSGMLwcrwI4qWD.obj
 0003:0000d980       ?iv3@?1??d_RigidBody_RigidBody@@9@9 000000018005f980     m_xSE9GNLJOSGMLwcrwI4qWD.obj
 0003:0000d990       ?iv@?1??d_RigidBody_RigidBody@@9@9 000000018005f990     m_xSE9GNLJOSGMLwcrwI4qWD.obj
 0003:0000d998       ?iv1@?1??d_RigidBody_RigidBody@@9@9 000000018005f998     m_xSE9GNLJOSGMLwcrwI4qWD.obj
 0003:0000d9a0       ?dv@?1??e_RigidBody_RigidBody@@9@9 000000018005f9a0     m_xSE9GNLJOSGMLwcrwI4qWD.obj
 0003:0000dac0       ?dv1@?1??e_RigidBody_RigidBody@@9@9 000000018005fac0     m_xSE9GNLJOSGMLwcrwI4qWD.obj
 0003:0000db40       ?cv@?1??e_RigidBody_RigidBody@@9@9 000000018005fb40     m_xSE9GNLJOSGMLwcrwI4qWD.obj
 0003:0000db48       ?cv1@?1??e_RigidBody_RigidBody@@9@9 000000018005fb48     m_xSE9GNLJOSGMLwcrwI4qWD.obj
 0003:0000db50       ?iv3@?1??e_RigidBody_RigidBody@@9@9 000000018005fb50     m_xSE9GNLJOSGMLwcrwI4qWD.obj
 0003:0000db60       ?iv@?1??e_RigidBody_RigidBody@@9@9 000000018005fb60     m_xSE9GNLJOSGMLwcrwI4qWD.obj
 0003:0000db68       ?iv1@?1??e_RigidBody_RigidBody@@9@9 000000018005fb68     m_xSE9GNLJOSGMLwcrwI4qWD.obj
 0003:0000db70       ?dv@?1??f_RigidBody_RigidBody@@9@9 000000018005fb70     m_xSE9GNLJOSGMLwcrwI4qWD.obj
 0003:0000dc90       ?dv1@?1??f_RigidBody_RigidBody@@9@9 000000018005fc90     m_xSE9GNLJOSGMLwcrwI4qWD.obj
 0003:0000dd10       ?cv1@?1??f_RigidBody_RigidBody@@9@9 000000018005fd10     m_xSE9GNLJOSGMLwcrwI4qWD.obj
 0003:0000dd18       ?cv@?1??f_RigidBody_RigidBody@@9@9 000000018005fd18     m_xSE9GNLJOSGMLwcrwI4qWD.obj
 0003:0000dd20       ?iv3@?1??f_RigidBody_RigidBody@@9@9 000000018005fd20     m_xSE9GNLJOSGMLwcrwI4qWD.obj
 0003:0000dd30       ?iv@?1??f_RigidBody_RigidBody@@9@9 000000018005fd30     m_xSE9GNLJOSGMLwcrwI4qWD.obj
 0003:0000dd38       ?iv1@?1??f_RigidBody_RigidBody@@9@9 000000018005fd38     m_xSE9GNLJOSGMLwcrwI4qWD.obj
 0003:0000dd40       ?iv4@?1??f_RigidBody_RigidBody@@9@9 000000018005fd40     m_xSE9GNLJOSGMLwcrwI4qWD.obj
 0003:0000dd48       ?cv1@?1??g_RigidBody_RigidBody@@9@9 000000018005fd48     m_xSE9GNLJOSGMLwcrwI4qWD.obj
 0003:0000dd50       ?dv@?1??g_RigidBody_RigidBody@@9@9 000000018005fd50     m_xSE9GNLJOSGMLwcrwI4qWD.obj
 0003:0000de70       ?dv1@?1??g_RigidBody_RigidBody@@9@9 000000018005fe70     m_xSE9GNLJOSGMLwcrwI4qWD.obj
 0003:0000def0       ?cv@?1??g_RigidBody_RigidBody@@9@9 000000018005fef0     m_xSE9GNLJOSGMLwcrwI4qWD.obj
 0003:0000def8       ?iv3@?1??g_RigidBody_RigidBody@@9@9 000000018005fef8     m_xSE9GNLJOSGMLwcrwI4qWD.obj
 0003:0000df08       ?iv@?1??g_RigidBody_RigidBody@@9@9 000000018005ff08     m_xSE9GNLJOSGMLwcrwI4qWD.obj
 0003:0000df10       ?iv1@?1??g_RigidBody_RigidBody@@9@9 000000018005ff10     m_xSE9GNLJOSGMLwcrwI4qWD.obj
 0003:0000df18       ?iv4@?1??g_RigidBody_RigidBody@@9@9 000000018005ff18     m_xSE9GNLJOSGMLwcrwI4qWD.obj
 0003:0000df20       ?iv5@?1??g_RigidBody_RigidBody@@9@9 000000018005ff20     m_xSE9GNLJOSGMLwcrwI4qWD.obj
 0003:0000df24       ?cv@?1??h_RigidBody_RigidBody@@9@9 000000018005ff24     m_xSE9GNLJOSGMLwcrwI4qWD.obj
 0003:0000df30       ?dv@?1??h_RigidBody_RigidBody@@9@9 000000018005ff30     m_xSE9GNLJOSGMLwcrwI4qWD.obj
 0003:0000e050       ?dv1@?1??h_RigidBody_RigidBody@@9@9 0000000180060050     m_xSE9GNLJOSGMLwcrwI4qWD.obj
 0003:0000e0d0       ?cv1@?1??h_RigidBody_RigidBody@@9@9 00000001800600d0     m_xSE9GNLJOSGMLwcrwI4qWD.obj
 0003:0000e0d8       ?iv3@?1??h_RigidBody_RigidBody@@9@9 00000001800600d8     m_xSE9GNLJOSGMLwcrwI4qWD.obj
 0003:0000e0e8       ?iv@?1??h_RigidBody_RigidBody@@9@9 00000001800600e8     m_xSE9GNLJOSGMLwcrwI4qWD.obj
 0003:0000e0f0       ?iv1@?1??h_RigidBody_RigidBody@@9@9 00000001800600f0     m_xSE9GNLJOSGMLwcrwI4qWD.obj
 0003:0000e0f8       ?iv2@?1??h_RigidBody_RigidBody@@9@9 00000001800600f8     m_xSE9GNLJOSGMLwcrwI4qWD.obj
 0003:0000e100       ?dv@?1??i_RigidBody_RigidBody@@9@9 0000000180060100     m_xSE9GNLJOSGMLwcrwI4qWD.obj
 0003:0000e220       ?dv1@?1??i_RigidBody_RigidBody@@9@9 0000000180060220     m_xSE9GNLJOSGMLwcrwI4qWD.obj
 0003:0000e2a0       ?cv@?1??i_RigidBody_RigidBody@@9@9 00000001800602a0     m_xSE9GNLJOSGMLwcrwI4qWD.obj
 0003:0000e2b4       ?cv1@?1??i_RigidBody_RigidBody@@9@9 00000001800602b4     m_xSE9GNLJOSGMLwcrwI4qWD.obj
 0003:0000e2bc       ?iv@?1??i_RigidBody_RigidBody@@9@9 00000001800602bc     m_xSE9GNLJOSGMLwcrwI4qWD.obj
 0003:0000e2c4       ?iv2@?1??i_RigidBody_RigidBody@@9@9 00000001800602c4     m_xSE9GNLJOSGMLwcrwI4qWD.obj
 0003:0000e2c8       ?iv3@?1??i_RigidBody_RigidBody@@9@9 00000001800602c8     m_xSE9GNLJOSGMLwcrwI4qWD.obj
 0003:0000e2d8       ?iv1@?1??i_RigidBody_RigidBody@@9@9 00000001800602d8     m_xSE9GNLJOSGMLwcrwI4qWD.obj
 0003:0000e2e0       ?dv@?1??j_RigidBody_RigidBody@@9@9 00000001800602e0     m_xSE9GNLJOSGMLwcrwI4qWD.obj
 0003:0000e400       ?dv1@?1??j_RigidBody_RigidBody@@9@9 0000000180060400     m_xSE9GNLJOSGMLwcrwI4qWD.obj
 0003:0000e480       ?cv@?1??j_RigidBody_RigidBody@@9@9 0000000180060480     m_xSE9GNLJOSGMLwcrwI4qWD.obj
 0003:0000e48c       ?cv1@?1??j_RigidBody_RigidBody@@9@9 000000018006048c     m_xSE9GNLJOSGMLwcrwI4qWD.obj
 0003:0000e494       ?iv@?1??j_RigidBody_RigidBody@@9@9 0000000180060494     m_xSE9GNLJOSGMLwcrwI4qWD.obj
 0003:0000e49c       ?iv2@?1??j_RigidBody_RigidBody@@9@9 000000018006049c     m_xSE9GNLJOSGMLwcrwI4qWD.obj
 0003:0000e4a0       ?iv3@?1??j_RigidBody_RigidBody@@9@9 00000001800604a0     m_xSE9GNLJOSGMLwcrwI4qWD.obj
 0003:0000e4b0       ?iv1@?1??j_RigidBody_RigidBody@@9@9 00000001800604b0     m_xSE9GNLJOSGMLwcrwI4qWD.obj
 0003:0000e4b8       ?cv@?1??k_RigidBody_RigidBody@@9@9 00000001800604b8     m_xSE9GNLJOSGMLwcrwI4qWD.obj
 0003:0000e4c8       ?cv1@?1??k_RigidBody_RigidBody@@9@9 00000001800604c8     m_xSE9GNLJOSGMLwcrwI4qWD.obj
 0003:0000e4d0       ?dv@?1??k_RigidBody_RigidBody@@9@9 00000001800604d0     m_xSE9GNLJOSGMLwcrwI4qWD.obj
 0003:0000e5f0       ?dv1@?1??k_RigidBody_RigidBody@@9@9 00000001800605f0     m_xSE9GNLJOSGMLwcrwI4qWD.obj
 0003:0000e670       ?iv3@?1??k_RigidBody_RigidBody@@9@9 0000000180060670     m_xSE9GNLJOSGMLwcrwI4qWD.obj
 0003:0000e680       ?iv@?1??k_RigidBody_RigidBody@@9@9 0000000180060680     m_xSE9GNLJOSGMLwcrwI4qWD.obj
 0003:0000e688       ?iv1@?1??k_RigidBody_RigidBody@@9@9 0000000180060688     m_xSE9GNLJOSGMLwcrwI4qWD.obj
 0003:0000e690       ?iv2@?1??k_RigidBody_RigidBody@@9@9 0000000180060690     m_xSE9GNLJOSGMLwcrwI4qWD.obj
 0003:0000e694       ?iv2@?1??l_RigidBody_RigidBody@@9@9 0000000180060694     m_xSE9GNLJOSGMLwcrwI4qWD.obj
 0003:0000e698       ?dv@?1??RigidBodyTree_set_Gravity@@9@9 0000000180060698     m_xSE9GNLJOSGMLwcrwI4qWD.obj
 0003:0000e6b0       ?cv@?1??l_RigidBody_RigidBody@@9@9 00000001800606b0     m_xSE9GNLJOSGMLwcrwI4qWD.obj
 0003:0000e6b8       ?cv1@?1??l_RigidBody_RigidBody@@9@9 00000001800606b8     m_xSE9GNLJOSGMLwcrwI4qWD.obj
 0003:0000e6c0       ?iv@?1??l_RigidBody_RigidBody@@9@9 00000001800606c0     m_xSE9GNLJOSGMLwcrwI4qWD.obj
 0003:0000e6c8       ?iv1@?1??l_RigidBody_RigidBody@@9@9 00000001800606c8     m_xSE9GNLJOSGMLwcrwI4qWD.obj
 0003:0000e6d0       ?b_u@?1??mw__internal__call__reset@@9@9 00000001800606d0     m_xSE9GNLJOSGMLwcrwI4qWD.obj
 0003:0000e700       ?d_u@?1??mw__internal__call__reset@@9@9 0000000180060700     m_xSE9GNLJOSGMLwcrwI4qWD.obj
 0003:0000e708       ?b_u@?1??mw__internal__call__step@@9@9 0000000180060708     m_xSE9GNLJOSGMLwcrwI4qWD.obj
 0003:0000e738       ?d_u@?1??mw__internal__call__step@@9@9 0000000180060738     m_xSE9GNLJOSGMLwcrwI4qWD.obj
 0003:0000e73c       ?iv@?1??rigidBodyJoint_transformBodyToParent@@9@9 000000018006073c     m_xSE9GNLJOSGMLwcrwI4qWD.obj
 0003:0000e740       ?b_u@?1??RigidBody_get_Joint@@9@9 0000000180060740     m_xSE9GNLJOSGMLwcrwI4qWD.obj
 0003:0000e774       ?d_u@?1??RigidBody_get_Joint@@9@9 0000000180060774     m_xSE9GNLJOSGMLwcrwI4qWD.obj
 0003:0000e77c       ?cv@?1??d_strcmp@@9@9      000000018006077c     m_xSE9GNLJOSGMLwcrwI4qWD.obj
 0003:0000e784       ?d_u@?1??normalizeRows@@9@9 0000000180060784     m_xSE9GNLJOSGMLwcrwI4qWD.obj
 0003:0000e788       ?b_u@?1??normalizeRows@@9@9 0000000180060788     m_xSE9GNLJOSGMLwcrwI4qWD.obj
 0003:0000e7a8       ?j_u@?1??b_rigidBodyJoint_transformBodyToParent@@9@9 00000001800607a8     m_xSE9GNLJOSGMLwcrwI4qWD.obj
 0003:0000e7d8       ?f_u@?1??b_rigidBodyJoint_transformBodyToParent@@9@9 00000001800607d8     m_xSE9GNLJOSGMLwcrwI4qWD.obj
 0003:0000e808       ?d_u@?1??b_rigidBodyJoint_transformBodyToParent@@9@9 0000000180060808     m_xSE9GNLJOSGMLwcrwI4qWD.obj
 0003:0000e830       ?h_u@?1??b_rigidBodyJoint_transformBodyToParent@@9@9 0000000180060830     m_xSE9GNLJOSGMLwcrwI4qWD.obj
 0003:0000e854       ?iv4@?1??b_rigidBodyJoint_transformBodyToParent@@9@9 0000000180060854     m_xSE9GNLJOSGMLwcrwI4qWD.obj
 0003:0000e858       ?e_u@?1??b_rigidBodyJoint_transformBodyToParent@@9@9 0000000180060858     m_xSE9GNLJOSGMLwcrwI4qWD.obj
 0003:0000e868       ?l_u@?1??b_rigidBodyJoint_transformBodyToParent@@9@9 0000000180060868     m_xSE9GNLJOSGMLwcrwI4qWD.obj
 0003:0000e870       ?iv@?1??tforminv@@9@9      0000000180060870     m_xSE9GNLJOSGMLwcrwI4qWD.obj
 0003:0000e878       ?d_u@?1??dynamic_size_checks@@9@9 0000000180060878     m_xSE9GNLJOSGMLwcrwI4qWD.obj
 0003:0000e8a8       ?c_u@?1??dynamic_size_checks@@9@9 00000001800608a8     m_xSE9GNLJOSGMLwcrwI4qWD.obj
 0003:0000e8b8       ?d_u@?1??b_dynamic_size_checks@@9@9 00000001800608b8     m_xSE9GNLJOSGMLwcrwI4qWD.obj
 0003:0000e8e8       ?c_u@?1??b_dynamic_size_checks@@9@9 00000001800608e8     m_xSE9GNLJOSGMLwcrwI4qWD.obj
 0003:0000e8f8       $SG30111                   00000001800608f8     m_xSE9GNLJOSGMLwcrwI4qWD.obj
 0003:0000e900       $SG30122                   0000000180060900     m_xSE9GNLJOSGMLwcrwI4qWD.obj
 0003:0000e90c       $SG30135                   000000018006090c     m_xSE9GNLJOSGMLwcrwI4qWD.obj
 0003:0000e918       $SG30146                   0000000180060918     m_xSE9GNLJOSGMLwcrwI4qWD.obj
 0003:0000e920       $SG30161                   0000000180060920     m_xSE9GNLJOSGMLwcrwI4qWD.obj
 0003:0000e928       $SG30568                   0000000180060928     m_xSE9GNLJOSGMLwcrwI4qWD.obj
 0003:0000e938       $SG30569                   0000000180060938     m_xSE9GNLJOSGMLwcrwI4qWD.obj
 0003:0000e940       $SG30570                   0000000180060940     m_xSE9GNLJOSGMLwcrwI4qWD.obj
 0003:0000e960       $SG30575                   0000000180060960     m_xSE9GNLJOSGMLwcrwI4qWD.obj
 0003:0000e998       $SG30576                   0000000180060998     m_xSE9GNLJOSGMLwcrwI4qWD.obj
 0003:0000e9b8       $SG30585                   00000001800609b8     m_xSE9GNLJOSGMLwcrwI4qWD.obj
 0003:0000e9c8       $SG30587                   00000001800609c8     m_xSE9GNLJOSGMLwcrwI4qWD.obj
 0003:0000e9e0       $SG30588                   00000001800609e0     m_xSE9GNLJOSGMLwcrwI4qWD.obj
 0003:0000e9f0       $SG30589                   00000001800609f0     m_xSE9GNLJOSGMLwcrwI4qWD.obj
 0003:0000ea38       $SG23250                   0000000180060a38     CTM_PID_withoutG_cgxe_registry.obj
 0003:0000ea68       $SG23255                   0000000180060a68     CTM_PID_withoutG_cgxe_registry.obj
 0003:0000eaa8       $SG23262                   0000000180060aa8     CTM_PID_withoutG_cgxe_registry.obj
 0003:0000eadc       $SG23320                   0000000180060adc     CTM_PID_withoutG_cgxe_registry.obj
 0003:0000eae4       $SG23324                   0000000180060ae4     CTM_PID_withoutG_cgxe_registry.obj
 0003:0000eaec       $SG25197                   0000000180060aec     CTM_PID_withoutG_cgxe_registry.obj
 0003:0000eaf0       $SG23269                   0000000180060af0     CTM_PID_withoutG_cgxe_registry.obj
 0003:0000eb24       $SG23330                   0000000180060b24     CTM_PID_withoutG_cgxe_registry.obj
 0003:0000eb2c       $SG25278                   0000000180060b2c     CTM_PID_withoutG_cgxe_registry.obj
 0003:0000eb30       $SG23274                   0000000180060b30     CTM_PID_withoutG_cgxe_registry.obj
 0003:0000eb68       $SG23318                   0000000180060b68     CTM_PID_withoutG_cgxe_registry.obj
 0003:0000eb70       $SG23322                   0000000180060b70     CTM_PID_withoutG_cgxe_registry.obj
 0003:0000eb80       $SG23326                   0000000180060b80     CTM_PID_withoutG_cgxe_registry.obj
 0003:0000eb88       $SG23327                   0000000180060b88     CTM_PID_withoutG_cgxe_registry.obj
 0003:0000eb90       $SG23328                   0000000180060b90     CTM_PID_withoutG_cgxe_registry.obj
 0003:0000eb98       $SG23329                   0000000180060b98     CTM_PID_withoutG_cgxe_registry.obj
 0003:0000eba8       $SG23331                   0000000180060ba8     CTM_PID_withoutG_cgxe_registry.obj
 0003:0000ebb0       $SG23376                   0000000180060bb0     CTM_PID_withoutG_cgxe_registry.obj
 0003:0000ebe0       $SG23391                   0000000180060be0     CTM_PID_withoutG_cgxe_registry.obj
 0003:0000ec10       $SG23411                   0000000180060c10     CTM_PID_withoutG_cgxe_registry.obj
 0003:0000ec28       $SG23413                   0000000180060c28     CTM_PID_withoutG_cgxe_registry.obj
